 fps

 Timestamp is 63de042a (Sat Feb  4 15:07:22 2023)

 Preferred load address is 0000000140000000

 Start         Length     Name                   Class
 0001:00000000 0023cdccH .text                   CODE
 0001:0023cdcc 0000000cH .text$di                CODE
 0001:0023cdd8 00001993H .text$mn                CODE
 0001:0023e770 00000036H .text$mn$00             CODE
 0001:0023e7a6 00000036H .text$x                 CODE
 0001:0023e7dc 0000005bH .text$yd                CODE
 0002:00000000 0003fb00H .rdata                  DATA
 0002:0003fb00 00000080H .rdata$CastGuardVftablesA DATA
 0002:0003fb80 00000080H .rdata$CastGuardVftablesC DATA
 0002:0003fc00 00000028H .rdata$T                DATA
 0002:0003fc28 00000074H .rdata$r                DATA
 0002:0003fcd8 00000008H .CRT$XCA                DATA
 0002:0003fce0 00000008H .CRT$XCAA               DATA
 0002:0003fce8 00000008H .CRT$XCL                DATA
 0002:0003fcf0 00000040H .CRT$XCU                DATA
 0002:0003fd30 00000008H .CRT$XCZ                DATA
 0002:0003fd38 00000008H .CRT$XIA                DATA
 0002:0003fd40 00000008H .CRT$XIAA               DATA
 0002:0003fd48 00000008H .CRT$XIAC               DATA
 0002:0003fd50 00000008H .CRT$XIC                DATA
 0002:0003fd58 00000008H .CRT$XIZ                DATA
 0002:0003fd60 00000008H .CRT$XLA                DATA
 0002:0003fd68 00000008H .CRT$XLZ                DATA
 0002:0003fd70 00000008H .CRT$XPA                DATA
 0002:0003fd78 00000008H .CRT$XPZ                DATA
 0002:0003fd80 00000008H .CRT$XTA                DATA
 0002:0003fd88 00000008H .CRT$XTZ                DATA
 0002:00043b08 00000008H .rtc$IAA                DATA
 0002:00043b10 00000008H .rtc$IZZ                DATA
 0002:00043b18 00000008H .rtc$TAA                DATA
 0002:00043b20 00000008H .rtc$TZZ                DATA
 0002:00043b28 000145a8H .xdata                  DATA
 0002:000580d0 00000034H .xdata$x                DATA
 0003:00000000 00005bb0H .data                   DATA
 0003:00005bb0 00000020H .data$rs                DATA
 0003:00005bd0 0000f580H .bss                    DATA
 0004:00000000 0000d17cH .pdata                  DATA
 0005:00000000 00000038H .00cfg                  DATA
 0006:00000000 00000001H .tls                    DATA
 0006:00000004 00000018H .tls$                   DATA
 0006:0000001c 00000001H .tls$ZZZ                DATA
 0007:00000000 00000058H .rsrc$01                DATA
 0007:00000060 00000178H .rsrc$02                DATA

  Address         Publics by Value              Rva+Base               Lib:Object

 0000:00000000       __AbsoluteZero             0000000000000000     <absolute>
 0000:00000000       __guard_fids_table         0000000000000000     <absolute>
 0000:00000000       __guard_fids_count         0000000000000000     <absolute>
 0000:00000000       __guard_flags              0000000000000000     <absolute>
 0000:00000000       __guard_iat_table          0000000000000000     <absolute>
 0000:00000000       __guard_iat_count          0000000000000000     <absolute>
 0000:00000000       __guard_longjmp_table      0000000000000000     <absolute>
 0000:00000000       __guard_longjmp_count      0000000000000000     <absolute>
 0000:00000000       __enclave_config           0000000000000000     <absolute>
 0000:00000000       __guard_eh_cont_table      0000000000000000     <absolute>
 0000:00000000       __guard_eh_cont_count      0000000000000000     <absolute>
 0000:00000000       __AbsoluteZero             0000000000000000     <absolute>
 0000:00000002       @vol.md                    0000000000000002     <absolute>
 0000:00000002       @vol.md                    0000000000000002     <absolute>
 0000:00000002       @vol.md                    0000000000000002     <absolute>
 0000:00000002       @vol.md                    0000000000000002     <absolute>
 0000:00000002       @vol.md                    0000000000000002     <absolute>
 0000:00000002       @vol.md                    0000000000000002     <absolute>
 0000:00000002       @vol.md                    0000000000000002     <absolute>
 0000:00000002       @vol.md                    0000000000000002     <absolute>
 0000:00000002       @vol.md                    0000000000000002     <absolute>
 0000:00000002       @vol.md                    0000000000000002     <absolute>
 0000:00000002       @vol.md                    0000000000000002     <absolute>
 0000:00000002       @vol.md                    0000000000000002     <absolute>
 0000:00000002       @vol.md                    0000000000000002     <absolute>
 0000:00000002       @vol.md                    0000000000000002     <absolute>
 0000:00000002       @vol.md                    0000000000000002     <absolute>
 0000:00000002       @vol.md                    0000000000000002     <absolute>
 0000:00000002       @vol.md                    0000000000000002     <absolute>
 0000:00000002       @vol.md                    0000000000000002     <absolute>
 0000:00000002       @vol.md                    0000000000000002     <absolute>
 0000:00000002       @vol.md                    0000000000000002     <absolute>
 0000:00000002       @vol.md                    0000000000000002     <absolute>
 0000:00000002       @vol.md                    0000000000000002     <absolute>
 0000:00000002       @vol.md                    0000000000000002     <absolute>
 0000:00000002       @vol.md                    0000000000000002     <absolute>
 0000:00000002       @vol.md                    0000000000000002     <absolute>
 0000:00000002       @vol.md                    0000000000000002     <absolute>
 0000:00000002       @vol.md                    0000000000000002     <absolute>
 0000:00000002       @vol.md                    0000000000000002     <absolute>
 0000:00000002       @vol.md                    0000000000000002     <absolute>
 0000:00000002       @vol.md                    0000000000000002     <absolute>
 0000:00000002       @vol.md                    0000000000000002     <absolute>
 0000:00000002       @vol.md                    0000000000000002     <absolute>
 0000:00000002       @vol.md                    0000000000000002     <absolute>
 0000:00000002       @vol.md                    0000000000000002     <absolute>
 0000:00000002       @vol.md                    0000000000000002     <absolute>
 0000:00000002       @vol.md                    0000000000000002     <absolute>
 0000:00000002       @vol.md                    0000000000000002     <absolute>
 0000:00000000       __ImageBase                0000000140000000     <linker-defined>
 0001:00000680       ??_Gbad_array_new_length@std@@UEAAPEAXI@Z 0000000140001680 f   mygame_version.obj
 0001:00000680       ??_Gbad_array_new_length@std@@UEAAPEAXI@Z 0000000140001680 f   mygame_version.obj
 0001:000006d0       ?what@exception@std@@UEBAPEBDXZ 00000001400016d0 f   mygame_version.obj
 0001:00000700       ??_Gbad_alloc@std@@UEAAPEAXI@Z 0000000140001700 f   mygame_version.obj
 0001:00000700       ??_Gbad_alloc@std@@UEAAPEAXI@Z 0000000140001700 f   mygame_version.obj
 0001:00000750       ??_Gexception@std@@UEAAPEAXI@Z 0000000140001750 f   mygame_version.obj
 0001:00000750       ??_Gexception@std@@UEAAPEAXI@Z 0000000140001750 f   mygame_version.obj
 0001:00000c20       ?init@mygame@@YAXHQEAPEAD@Z 0000000140001c20 f   mygame.obj
 0001:00003830       ??$insert@V?$basic_string@DU?$char_traits@D@std@@V?$allocator@D@2@@std@@@AssetManager@util@yourgame@@QEAAXV?$basic_string@DU?$char_traits@D@std@@V?$allocator@D@2@@std@@PEAV34@@Z 0000000140004830 f   mygame.obj
 0001:00003af0       ??$insert@VGeometry@gl@yourgame@@@AssetManager@util@yourgame@@QEAAXV?$basic_string@DU?$char_traits@D@std@@V?$allocator@D@2@@std@@PEAVGeometry@gl@2@@Z 0000000140004af0 f   mygame.obj
 0001:00003db0       ??$insert@VShader@gl@yourgame@@@AssetManager@util@yourgame@@QEAAXV?$basic_string@DU?$char_traits@D@std@@V?$allocator@D@2@@std@@PEAVShader@gl@2@@Z 0000000140004db0 f   mygame.obj
 0001:00004070       ??$?0HAEAY0BA@$$CBD$0A@@?$pair@IV?$basic_string@DU?$char_traits@D@std@@V?$allocator@D@2@@std@@@std@@QEAA@$$QEAHAEAY0BA@$$CBD@Z 0000000140005070 f   mygame.obj
 0001:00004190       ??$?0HAEAY0BF@$$CBD$0A@@?$pair@IV?$basic_string@DU?$char_traits@D@std@@V?$allocator@D@2@@std@@@std@@QEAA@$$QEAHAEAY0BF@$$CBD@Z 0000000140005190 f   mygame.obj
 0001:000042b0       ??$?0HAEAY0BE@$$CBD$0A@@?$pair@IV?$basic_string@DU?$char_traits@D@std@@V?$allocator@D@2@@std@@@std@@QEAA@$$QEAHAEAY0BE@$$CBD@Z 00000001400052b0 f   mygame.obj
 0001:000043d0       ??$?0HAEAY0BK@$$CBD$0A@@?$pair@IV?$basic_string@DU?$char_traits@D@std@@V?$allocator@D@2@@std@@@std@@QEAA@$$QEAHAEAY0BK@$$CBD@Z 00000001400053d0 f   mygame.obj
 0001:000044f0       ??$?0HAEAY0BD@$$CBD$0A@@?$pair@IV?$basic_string@DU?$char_traits@D@std@@V?$allocator@D@2@@std@@@std@@QEAA@$$QEAHAEAY0BD@$$CBD@Z 00000001400054f0 f   mygame.obj
 0001:00004610       ??$insert@VTexture@gl@yourgame@@@AssetManager@util@yourgame@@QEAAXV?$basic_string@DU?$char_traits@D@std@@V?$allocator@D@2@@std@@PEAVTexture@gl@2@@Z 0000000140005610 f   mygame.obj
 0001:000048d0       ??$get@VGeometry@gl@yourgame@@@AssetManager@util@yourgame@@QEAAPEAVGeometry@gl@2@V?$basic_string@DU?$char_traits@D@std@@V?$allocator@D@2@@std@@@Z 00000001400058d0 f   mygame.obj
 0001:000049f0       ?tick@mygame@@YAXXZ        00000001400059f0 f   mygame.obj
 0001:000061a0       ??$get@V?$basic_string@DU?$char_traits@D@std@@V?$allocator@D@2@@std@@@AssetManager@util@yourgame@@QEAAPEAV?$basic_string@DU?$char_traits@D@std@@V?$allocator@D@2@@std@@V34@@Z 00000001400071a0 f   mygame.obj
 0001:000062c0       ??$get@VShader@gl@yourgame@@@AssetManager@util@yourgame@@QEAAPEAVShader@gl@2@V?$basic_string@DU?$char_traits@D@std@@V?$allocator@D@2@@std@@@Z 00000001400072c0 f   mygame.obj
 0001:000063e0       ??$get@VTexture@gl@yourgame@@@AssetManager@util@yourgame@@QEAAPEAVTexture@gl@2@V?$basic_string@DU?$char_traits@D@std@@V?$allocator@D@2@@std@@@Z 00000001400073e0 f   mygame.obj
 0001:00006500       ?shutdown@mygame@@YAHXZ    0000000140007500 f   mygame.obj
 0001:00006540       ?clear@AssetManager@util@yourgame@@QEAAXXZ 0000000140007540 f   mygame.obj
 0001:00006710       ?_Throw_bad_array_new_length@std@@YAXXZ 0000000140007710 f   mygame.obj
 0001:00006780       ??0bad_array_new_length@std@@QEAA@AEBV01@@Z 0000000140007780 f   mygame.obj
 0001:000067e0       ??0bad_alloc@std@@QEAA@AEBV01@@Z 00000001400077e0 f   mygame.obj
 0001:00006840       ??0exception@std@@QEAA@AEBV01@@Z 0000000140007840 f   mygame.obj
 0001:00006890       ??1exception@std@@UEAA@XZ  0000000140007890 f   mygame.obj
 0001:000068d0       ??$_Erase_tree@V?$allocator@U?$_Tree_node@U?$pair@$$CB_KV?$function@$$A6AX_K@Z@std@@@std@@PEAX@std@@@std@@@?$_Tree_val@U?$_Tree_simple_types@U?$pair@$$CB_KV?$function@$$A6AX_K@Z@std@@@std@@@std@@@std@@QEAAXAEAV?$allocator@U?$_Tree_node@U?$pair@$$CB_KV?$function@$$A6AX_K@Z@std@@@std@@PEAX@std@@@1@PEAU?$_Tree_node@U?$pair@$$CB_KV?$function@$$A6AX_K@Z@std@@@std@@PEAX@1@@Z 00000001400078d0 f   mygame.obj
 0001:00006970       ??$_Erase_tree@V?$allocator@U?$_Tree_node@U?$pair@$$CB_KV?$map@V?$basic_string@DU?$char_traits@D@std@@V?$allocator@D@2@@std@@_KU?$less@V?$basic_string@DU?$char_traits@D@std@@V?$allocator@D@2@@std@@@2@V?$allocator@U?$pair@$$CBV?$basic_string@DU?$char_traits@D@std@@V?$allocator@D@2@@std@@_K@std@@@2@@std@@@std@@PEAX@std@@@std@@@?$_Tree_val@U?$_Tree_simple_types@U?$pair@$$CB_KV?$map@V?$basic_string@DU?$char_traits@D@std@@V?$allocator@D@2@@std@@_KU?$less@V?$basic_string@DU?$char_traits@D@std@@V?$allocator@D@2@@std@@@2@V?$allocator@U?$pair@$$CBV?$basic_string@DU?$char_traits@D@std@@V?$allocator@D@2@@std@@_K@std@@@2@@std@@@std@@@std@@@std@@QEAAXAEAV?$allocator@U?$_Tree_node@U?$pair@$$CB_KV?$map@V?$basic_string@DU?$char_traits@D@std@@V?$allocator@D@2@@std@@_KU?$less@V?$basic_string@DU?$char_traits@D@std@@V?$allocator@D@2@@std@@@2@V?$allocator@U?$pair@$$CBV?$basic_string@DU?$char_traits@D@std@@V?$allocator@D@2@@std@@_K@std@@@2@@std@@@std@@PEAX@std@@@1@PEAU?$_Tree_node@U?$pair@$$CB_KV?$map@V?$basic_string@DU?$char_traits@D@std@@V?$allocator@D@2@@std@@_KU?$less@V?$basic_string@DU?$char_traits@D@std@@V?$allocator@D@2@@std@@@2@V?$allocator@U?$pair@$$CBV?$basic_string@DU?$char_traits@D@std@@V?$allocator@D@2@@std@@_K@std@@@2@@std@@@std@@PEAX@1@@Z 0000000140007970 f   mygame.obj
 0001:00006a20       ??$_Erase_tree@V?$allocator@U?$_Tree_node@U?$pair@$$CBV?$basic_string@DU?$char_traits@D@std@@V?$allocator@D@2@@std@@_K@std@@PEAX@std@@@std@@@?$_Tree_val@U?$_Tree_simple_types@U?$pair@$$CBV?$basic_string@DU?$char_traits@D@std@@V?$allocator@D@2@@std@@_K@std@@@std@@@std@@QEAAXAEAV?$allocator@U?$_Tree_node@U?$pair@$$CBV?$basic_string@DU?$char_traits@D@std@@V?$allocator@D@2@@std@@_K@std@@PEAX@std@@@1@PEAU?$_Tree_node@U?$pair@$$CBV?$basic_string@DU?$char_traits@D@std@@V?$allocator@D@2@@std@@_K@std@@PEAX@1@@Z 0000000140007a20 f   mygame.obj
 0001:00006ae0       ??$_Integral_to_string@DH@std@@YA?AV?$basic_string@DU?$char_traits@D@std@@V?$allocator@D@2@@0@H@Z 0000000140007ae0 f   mygame.obj
 0001:00006cc0       ?_Xlen_string@std@@YAXXZ   0000000140007cc0 f   mygame.obj
 0001:00006cf0       ??$_Try_emplace@AEB_K$$V@?$map@_KV?$function@$$A6AX_K@Z@std@@U?$less@_K@2@V?$allocator@U?$pair@$$CB_KV?$function@$$A6AX_K@Z@std@@@std@@@2@@std@@AEAA?AU?$pair@PEAU?$_Tree_node@U?$pair@$$CB_KV?$function@$$A6AX_K@Z@std@@@std@@PEAX@std@@_N@1@AEB_K@Z 0000000140007cf0 f   mygame.obj
 0001:00006e40       ?_Insert_node@?$_Tree_val@U?$_Tree_simple_types@U?$pair@$$CB_KV?$function@$$A6AX_K@Z@std@@@std@@@std@@@std@@QEAAPEAU?$_Tree_node@U?$pair@$$CB_KV?$function@$$A6AX_K@Z@std@@@std@@PEAX@2@U?$_Tree_id@PEAU?$_Tree_node@U?$pair@$$CB_KV?$function@$$A6AX_K@Z@std@@@std@@PEAX@std@@@2@QEAU32@@Z 0000000140007e40 f   mygame.obj
 0001:000070a0       ?_Throw_tree_length_error@std@@YAXXZ 00000001400080a0 f   mygame.obj
 0001:000070d0       ??$_Try_emplace@_K$$V@?$map@_KV?$function@$$A6AX_K@Z@std@@U?$less@_K@2@V?$allocator@U?$pair@$$CB_KV?$function@$$A6AX_K@Z@std@@@std@@@2@@std@@AEAA?AU?$pair@PEAU?$_Tree_node@U?$pair@$$CB_KV?$function@$$A6AX_K@Z@std@@@std@@PEAX@std@@_N@1@$$QEA_K@Z 00000001400080d0 f   mygame.obj
 0001:00007220       ?_Copy@?$_Func_impl_no_alloc@V<lambda_1>@?0???$insert@V?$basic_string@DU?$char_traits@D@std@@V?$allocator@D@2@@std@@@AssetManager@util@yourgame@@QEAAXV?$basic_string@DU?$char_traits@D@std@@V?$allocator@D@2@@std@@PEAV56@@Z@X_K@std@@EEBAPEAV?$_Func_base@X_K@2@PEAX@Z 0000000140008220 f   mygame.obj
 0001:00007240       ?_Move@?$_Func_impl_no_alloc@V<lambda_1>@?0???$insert@V?$basic_string@DU?$char_traits@D@std@@V?$allocator@D@2@@std@@@AssetManager@util@yourgame@@QEAAXV?$basic_string@DU?$char_traits@D@std@@V?$allocator@D@2@@std@@PEAV56@@Z@X_K@std@@EEAAPEAV?$_Func_base@X_K@2@PEAX@Z 0000000140008240 f   mygame.obj
 0001:00007260       ?_Do_call@?$_Func_impl_no_alloc@V<lambda_1>@?0???$insert@V?$basic_string@DU?$char_traits@D@std@@V?$allocator@D@2@@std@@@AssetManager@util@yourgame@@QEAAXV?$basic_string@DU?$char_traits@D@std@@V?$allocator@D@2@@std@@PEAV56@@Z@X_K@std@@EEAAX$$QEA_K@Z 0000000140008260 f   mygame.obj
 0001:000072e0       ?_Target_type@?$_Func_impl_no_alloc@V<lambda_1>@?0???$insert@V?$basic_string@DU?$char_traits@D@std@@V?$allocator@D@2@@std@@@AssetManager@util@yourgame@@QEAAXV?$basic_string@DU?$char_traits@D@std@@V?$allocator@D@2@@std@@PEAV56@@Z@X_K@std@@EEBAAEBVtype_info@@XZ 00000001400082e0 f   mygame.obj
 0001:00007300       ?_Delete_this@?$_Func_impl_no_alloc@V<lambda_1>@?0???$insert@V?$basic_string@DU?$char_traits@D@std@@V?$allocator@D@2@@std@@@AssetManager@util@yourgame@@QEAAXV?$basic_string@DU?$char_traits@D@std@@V?$allocator@D@2@@std@@PEAV56@@Z@X_K@std@@EEAAX_N@Z 0000000140008300 f   mygame.obj
 0001:00007330       ?_Get@?$_Func_impl_no_alloc@V<lambda_1>@?0???$insert@V?$basic_string@DU?$char_traits@D@std@@V?$allocator@D@2@@std@@@AssetManager@util@yourgame@@QEAAXV?$basic_string@DU?$char_traits@D@std@@V?$allocator@D@2@@std@@PEAV56@@Z@X_K@std@@EEBAPEBXXZ 0000000140008330 f   mygame.obj
 0001:00007350       ?_Swap@?$_Func_class@X_K@std@@IEAAXAEAV12@@Z 0000000140008350 f   mygame.obj
 0001:000074a0       ??$_Try_emplace@_K$$V@?$map@_KV?$map@V?$basic_string@DU?$char_traits@D@std@@V?$allocator@D@2@@std@@_KU?$less@V?$basic_string@DU?$char_traits@D@std@@V?$allocator@D@2@@std@@@2@V?$allocator@U?$pair@$$CBV?$basic_string@DU?$char_traits@D@std@@V?$allocator@D@2@@std@@_K@std@@@2@@std@@U?$less@_K@2@V?$allocator@U?$pair@$$CB_KV?$map@V?$basic_string@DU?$char_traits@D@std@@V?$allocator@D@2@@std@@_KU?$less@V?$basic_string@DU?$char_traits@D@std@@V?$allocator@D@2@@std@@@2@V?$allocator@U?$pair@$$CBV?$basic_string@DU?$char_traits@D@std@@V?$allocator@D@2@@std@@_K@std@@@2@@std@@@std@@@2@@std@@AEAA?AU?$pair@PEAU?$_Tree_node@U?$pair@$$CB_KV?$map@V?$basic_string@DU?$char_traits@D@std@@V?$allocator@D@2@@std@@_KU?$less@V?$basic_string@DU?$char_traits@D@std@@V?$allocator@D@2@@std@@@2@V?$allocator@U?$pair@$$CBV?$basic_string@DU?$char_traits@D@std@@V?$allocator@D@2@@std@@_K@std@@@2@@std@@@std@@PEAX@std@@_N@1@$$QEA_K@Z 00000001400084a0 f   mygame.obj
 0001:00007610       ?_Insert_node@?$_Tree_val@U?$_Tree_simple_types@U?$pair@$$CB_KV?$map@V?$basic_string@DU?$char_traits@D@std@@V?$allocator@D@2@@std@@_KU?$less@V?$basic_string@DU?$char_traits@D@std@@V?$allocator@D@2@@std@@@2@V?$allocator@U?$pair@$$CBV?$basic_string@DU?$char_traits@D@std@@V?$allocator@D@2@@std@@_K@std@@@2@@std@@@std@@@std@@@std@@QEAAPEAU?$_Tree_node@U?$pair@$$CB_KV?$map@V?$basic_string@DU?$char_traits@D@std@@V?$allocator@D@2@@std@@_KU?$less@V?$basic_string@DU?$char_traits@D@std@@V?$allocator@D@2@@std@@@2@V?$allocator@U?$pair@$$CBV?$basic_string@DU?$char_traits@D@std@@V?$allocator@D@2@@std@@_K@std@@@2@@std@@@std@@PEAX@2@U?$_Tree_id@PEAU?$_Tree_node@U?$pair@$$CB_KV?$map@V?$basic_string@DU?$char_traits@D@std@@V?$allocator@D@2@@std@@_KU?$less@V?$basic_string@DU?$char_traits@D@std@@V?$allocator@D@2@@std@@@2@V?$allocator@U?$pair@$$CBV?$basic_string@DU?$char_traits@D@std@@V?$allocator@D@2@@std@@_K@std@@@2@@std@@@std@@PEAX@std@@@2@QEAU32@@Z 0000000140008610 f   mygame.obj
 0001:00007870       ??$_Find@V?$basic_string@DU?$char_traits@D@std@@V?$allocator@D@2@@std@@@?$_Tree@V?$_Tmap_traits@V?$basic_string@DU?$char_traits@D@std@@V?$allocator@D@2@@std@@_KU?$less@V?$basic_string@DU?$char_traits@D@std@@V?$allocator@D@2@@std@@@2@V?$allocator@U?$pair@$$CBV?$basic_string@DU?$char_traits@D@std@@V?$allocator@D@2@@std@@_K@std@@@2@$0A@@std@@@std@@AEBAPEAU?$_Tree_node@U?$pair@$$CBV?$basic_string@DU?$char_traits@D@std@@V?$allocator@D@2@@std@@_K@std@@PEAX@1@AEBV?$basic_string@DU?$char_traits@D@std@@V?$allocator@D@2@@1@@Z 0000000140008870 f   mygame.obj
 0001:000079b0       ??$_Try_emplace@AEBV?$basic_string@DU?$char_traits@D@std@@V?$allocator@D@2@@std@@$$V@?$map@V?$basic_string@DU?$char_traits@D@std@@V?$allocator@D@2@@std@@_KU?$less@V?$basic_string@DU?$char_traits@D@std@@V?$allocator@D@2@@std@@@2@V?$allocator@U?$pair@$$CBV?$basic_string@DU?$char_traits@D@std@@V?$allocator@D@2@@std@@_K@std@@@2@@std@@AEAA?AU?$pair@PEAU?$_Tree_node@U?$pair@$$CBV?$basic_string@DU?$char_traits@D@std@@V?$allocator@D@2@@std@@_K@std@@PEAX@std@@_N@1@AEBV?$basic_string@DU?$char_traits@D@std@@V?$allocator@D@2@@1@@Z 00000001400089b0 f   mygame.obj
 0001:00007be0       ?_Insert_node@?$_Tree_val@U?$_Tree_simple_types@U?$pair@$$CBV?$basic_string@DU?$char_traits@D@std@@V?$allocator@D@2@@std@@_K@std@@@std@@@std@@QEAAPEAU?$_Tree_node@U?$pair@$$CBV?$basic_string@DU?$char_traits@D@std@@V?$allocator@D@2@@std@@_K@std@@PEAX@2@U?$_Tree_id@PEAU?$_Tree_node@U?$pair@$$CBV?$basic_string@DU?$char_traits@D@std@@V?$allocator@D@2@@std@@_K@std@@PEAX@std@@@2@QEAU32@@Z 0000000140008be0 f   mygame.obj
 0001:00007e40       ??$?0V?$tuple@AEBV?$basic_string@DU?$char_traits@D@std@@V?$allocator@D@2@@std@@@std@@V?$tuple@$$V@1@$0A@$$Z$S@?$pair@$$CBV?$basic_string@DU?$char_traits@D@std@@V?$allocator@D@2@@std@@_K@std@@QEAA@AEAV?$tuple@AEBV?$basic_string@DU?$char_traits@D@std@@V?$allocator@D@2@@std@@@1@AEAV?$tuple@$$V@1@U?$integer_sequence@_K$0A@@1@U?$integer_sequence@_K$S@1@@Z 0000000140008e40 f   mygame.obj
 0001:00007f50       ?_Copy@?$_Func_impl_no_alloc@V<lambda_1>@?0???$insert@VGeometry@gl@yourgame@@@AssetManager@util@yourgame@@QEAAXV?$basic_string@DU?$char_traits@D@std@@V?$allocator@D@2@@std@@PEAVGeometry@gl@4@@Z@X_K@std@@EEBAPEAV?$_Func_base@X_K@2@PEAX@Z 0000000140008f50 f   mygame.obj
 0001:00007f70       ?_Move@?$_Func_impl_no_alloc@V<lambda_1>@?0???$insert@VGeometry@gl@yourgame@@@AssetManager@util@yourgame@@QEAAXV?$basic_string@DU?$char_traits@D@std@@V?$allocator@D@2@@std@@PEAVGeometry@gl@4@@Z@X_K@std@@EEAAPEAV?$_Func_base@X_K@2@PEAX@Z 0000000140008f70 f   mygame.obj
 0001:00007f90       ?_Do_call@?$_Func_impl_no_alloc@V<lambda_1>@?0???$insert@VGeometry@gl@yourgame@@@AssetManager@util@yourgame@@QEAAXV?$basic_string@DU?$char_traits@D@std@@V?$allocator@D@2@@std@@PEAVGeometry@gl@4@@Z@X_K@std@@EEAAX$$QEA_K@Z 0000000140008f90 f   mygame.obj
 0001:00007fd0       ?_Target_type@?$_Func_impl_no_alloc@V<lambda_1>@?0???$insert@VGeometry@gl@yourgame@@@AssetManager@util@yourgame@@QEAAXV?$basic_string@DU?$char_traits@D@std@@V?$allocator@D@2@@std@@PEAVGeometry@gl@4@@Z@X_K@std@@EEBAAEBVtype_info@@XZ 0000000140008fd0 f   mygame.obj
 0001:00007ff0       ?_Delete_this@?$_Func_impl_no_alloc@V<lambda_1>@?0???$insert@VGeometry@gl@yourgame@@@AssetManager@util@yourgame@@QEAAXV?$basic_string@DU?$char_traits@D@std@@V?$allocator@D@2@@std@@PEAVGeometry@gl@4@@Z@X_K@std@@EEAAX_N@Z 0000000140008ff0 f   mygame.obj
 0001:00008020       ?_Get@?$_Func_impl_no_alloc@V<lambda_1>@?0???$insert@VGeometry@gl@yourgame@@@AssetManager@util@yourgame@@QEAAXV?$basic_string@DU?$char_traits@D@std@@V?$allocator@D@2@@std@@PEAVGeometry@gl@4@@Z@X_K@std@@EEBAPEBXXZ 0000000140009020 f   mygame.obj
 0001:00008040       ??0?$pair@IV?$basic_string@DU?$char_traits@D@std@@V?$allocator@D@2@@std@@@std@@QEAA@AEBU01@@Z 0000000140009040 f   mygame.obj
 0001:00008160       ?_Copy@?$_Func_impl_no_alloc@V<lambda_1>@?0???$insert@VShader@gl@yourgame@@@AssetManager@util@yourgame@@QEAAXV?$basic_string@DU?$char_traits@D@std@@V?$allocator@D@2@@std@@PEAVShader@gl@4@@Z@X_K@std@@EEBAPEAV?$_Func_base@X_K@2@PEAX@Z 0000000140009160 f   mygame.obj
 0001:00008180       ?_Move@?$_Func_impl_no_alloc@V<lambda_1>@?0???$insert@VShader@gl@yourgame@@@AssetManager@util@yourgame@@QEAAXV?$basic_string@DU?$char_traits@D@std@@V?$allocator@D@2@@std@@PEAVShader@gl@4@@Z@X_K@std@@EEAAPEAV?$_Func_base@X_K@2@PEAX@Z 0000000140009180 f   mygame.obj
 0001:000081a0       ?_Do_call@?$_Func_impl_no_alloc@V<lambda_1>@?0???$insert@VShader@gl@yourgame@@@AssetManager@util@yourgame@@QEAAXV?$basic_string@DU?$char_traits@D@std@@V?$allocator@D@2@@std@@PEAVShader@gl@4@@Z@X_K@std@@EEAAX$$QEA_K@Z 00000001400091a0 f   mygame.obj
 0001:000081e0       ?_Target_type@?$_Func_impl_no_alloc@V<lambda_1>@?0???$insert@VShader@gl@yourgame@@@AssetManager@util@yourgame@@QEAAXV?$basic_string@DU?$char_traits@D@std@@V?$allocator@D@2@@std@@PEAVShader@gl@4@@Z@X_K@std@@EEBAAEBVtype_info@@XZ 00000001400091e0 f   mygame.obj
 0001:00008200       ?_Delete_this@?$_Func_impl_no_alloc@V<lambda_1>@?0???$insert@VShader@gl@yourgame@@@AssetManager@util@yourgame@@QEAAXV?$basic_string@DU?$char_traits@D@std@@V?$allocator@D@2@@std@@PEAVShader@gl@4@@Z@X_K@std@@EEAAX_N@Z 0000000140009200 f   mygame.obj
 0001:00008230       ?_Get@?$_Func_impl_no_alloc@V<lambda_1>@?0???$insert@VShader@gl@yourgame@@@AssetManager@util@yourgame@@QEAAXV?$basic_string@DU?$char_traits@D@std@@V?$allocator@D@2@@std@@PEAVShader@gl@4@@Z@X_K@std@@EEBAPEBXXZ 0000000140009230 f   mygame.obj
 0001:00008250       ?_Copy@?$_Func_impl_no_alloc@V<lambda_1>@?0???$insert@VTexture@gl@yourgame@@@AssetManager@util@yourgame@@QEAAXV?$basic_string@DU?$char_traits@D@std@@V?$allocator@D@2@@std@@PEAVTexture@gl@4@@Z@X_K@std@@EEBAPEAV?$_Func_base@X_K@2@PEAX@Z 0000000140009250 f   mygame.obj
 0001:00008270       ?_Move@?$_Func_impl_no_alloc@V<lambda_1>@?0???$insert@VTexture@gl@yourgame@@@AssetManager@util@yourgame@@QEAAXV?$basic_string@DU?$char_traits@D@std@@V?$allocator@D@2@@std@@PEAVTexture@gl@4@@Z@X_K@std@@EEAAPEAV?$_Func_base@X_K@2@PEAX@Z 0000000140009270 f   mygame.obj
 0001:00008290       ?_Do_call@?$_Func_impl_no_alloc@V<lambda_1>@?0???$insert@VTexture@gl@yourgame@@@AssetManager@util@yourgame@@QEAAXV?$basic_string@DU?$char_traits@D@std@@V?$allocator@D@2@@std@@PEAVTexture@gl@4@@Z@X_K@std@@EEAAX$$QEA_K@Z 0000000140009290 f   mygame.obj
 0001:000082d0       ?_Target_type@?$_Func_impl_no_alloc@V<lambda_1>@?0???$insert@VTexture@gl@yourgame@@@AssetManager@util@yourgame@@QEAAXV?$basic_string@DU?$char_traits@D@std@@V?$allocator@D@2@@std@@PEAVTexture@gl@4@@Z@X_K@std@@EEBAAEBVtype_info@@XZ 00000001400092d0 f   mygame.obj
 0001:000082f0       ?_Delete_this@?$_Func_impl_no_alloc@V<lambda_1>@?0???$insert@VTexture@gl@yourgame@@@AssetManager@util@yourgame@@QEAAXV?$basic_string@DU?$char_traits@D@std@@V?$allocator@D@2@@std@@PEAVTexture@gl@4@@Z@X_K@std@@EEAAX_N@Z 00000001400092f0 f   mygame.obj
 0001:00008320       ?_Get@?$_Func_impl_no_alloc@V<lambda_1>@?0???$insert@VTexture@gl@yourgame@@@AssetManager@util@yourgame@@QEAAXV?$basic_string@DU?$char_traits@D@std@@V?$allocator@D@2@@std@@PEAVTexture@gl@4@@Z@X_K@std@@EEBAPEBXXZ 0000000140009320 f   mygame.obj
 0001:00008340       ??$_Reallocate_grow_by@V<lambda_1>@?0??insert@?$basic_string@DU?$char_traits@D@std@@V?$allocator@D@2@@std@@QEAAAEAV34@_KQEBD0@Z@_KPEBD_K@?$basic_string@DU?$char_traits@D@std@@V?$allocator@D@2@@std@@AEAAAEAV01@_KV<lambda_1>@?0??insert@01@QEAAAEAV01@0QEBD0@Z@_KPEBD3@Z 0000000140009340 f   mygame.obj
 0001:00008540       ??$_Emplace_reallocate@U?$mat@$03$03M$0A@@glm@@@?$vector@U?$mat@$03$03M$0A@@glm@@V?$allocator@U?$mat@$03$03M$0A@@glm@@@std@@@std@@AEAAPEAU?$mat@$03$03M$0A@@glm@@QEAU23@$$QEAU23@@Z 0000000140009540 f   mygame.obj
 0001:00008710       ?_Clear_and_reserve_geometric@?$vector@PEAVTexture@gl@yourgame@@V?$allocator@PEAVTexture@gl@yourgame@@@std@@@std@@AEAAX_K@Z 0000000140009710 f   mygame.obj
 0001:00008850       ?_Xlength@?$vector@PEAVTexture@gl@yourgame@@V?$allocator@PEAVTexture@gl@yourgame@@@std@@@std@@CAXXZ 0000000140009850 f   mygame.obj
 0001:00008930       ??1RigidBody@util@yourgame@@QEAA@XZ 0000000140009930 f   yourgame:physenv.obj
 0001:000089e0       ?getTrafo@RigidBody@util@yourgame@@QEAA?AVTrafo@math@3@XZ 00000001400099e0 f   yourgame:physenv.obj
 0001:00008c60       ?setTrafo@RigidBody@util@yourgame@@QEAAXVTrafo@math@3@@Z 0000000140009c60 f   yourgame:physenv.obj
 0001:00008eb0       ?setRestitution@RigidBody@util@yourgame@@QEAAXM@Z 0000000140009eb0 f   yourgame:physenv.obj
 0001:00008ed0       ?setFriction@RigidBody@util@yourgame@@QEAAXM@Z 0000000140009ed0 f   yourgame:physenv.obj
 0001:00008ef0       ?setSleepingThresholds@RigidBody@util@yourgame@@QEAAXMM@Z 0000000140009ef0 f   yourgame:physenv.obj
 0001:00008f20       ?setLinearFactors@RigidBody@util@yourgame@@QEAAXMMM@Z 0000000140009f20 f   yourgame:physenv.obj
 0001:00008f90       ?setAngularFactor@RigidBody@util@yourgame@@QEAAXM@Z 0000000140009f90 f   yourgame:physenv.obj
 0001:00008fc0       ?setAngularFactors@RigidBody@util@yourgame@@QEAAXMMM@Z 0000000140009fc0 f   yourgame:physenv.obj
 0001:00009000       ?applyCentralForce@RigidBody@util@yourgame@@QEAAXMMM@Z 000000014000a000 f   yourgame:physenv.obj
 0001:00009050       ?applyCentralImpulse@RigidBody@util@yourgame@@QEAAXMMM@Z 000000014000a050 f   yourgame:physenv.obj
 0001:000090b0       ??0PhysEnv@util@yourgame@@QEAA@XZ 000000014000a0b0 f   yourgame:physenv.obj
 0001:00009100       ??0impl@PhysEnv@util@yourgame@@QEAA@XZ 000000014000a100 f   yourgame:physenv.obj
 0001:000092b0       ??1PhysEnv@util@yourgame@@QEAA@XZ 000000014000a2b0 f   yourgame:physenv.obj
 0001:000092f0       ?setGravity@PhysEnv@util@yourgame@@QEAAXMMM@Z 000000014000a2f0 f   yourgame:physenv.obj
 0001:00009360       ?newBoxShape@PhysEnv@util@yourgame@@QEAA_NAEBV?$basic_string@DU?$char_traits@D@std@@V?$allocator@D@2@@std@@MMM@Z 000000014000a360 f   yourgame:physenv.obj
 0001:00009450       ?newSphereShape@PhysEnv@util@yourgame@@QEAA_NAEBV?$basic_string@DU?$char_traits@D@std@@V?$allocator@D@2@@std@@M@Z 000000014000a450 f   yourgame:physenv.obj
 0001:00009550       ?newCylinderShape@PhysEnv@util@yourgame@@QEAA_NAEBV?$basic_string@DU?$char_traits@D@std@@V?$allocator@D@2@@std@@MM@Z 000000014000a550 f   yourgame:physenv.obj
 0001:00009630       ?newConeShape@PhysEnv@util@yourgame@@QEAA_NAEBV?$basic_string@DU?$char_traits@D@std@@V?$allocator@D@2@@std@@MM@Z 000000014000a630 f   yourgame:physenv.obj
 0001:000096f0       ?deleteShape@PhysEnv@util@yourgame@@QEAA_NAEBV?$basic_string@DU?$char_traits@D@std@@V?$allocator@D@2@@std@@@Z 000000014000a6f0 f   yourgame:physenv.obj
 0001:00009770       ?clearShapes@PhysEnv@util@yourgame@@QEAA_KXZ 000000014000a770 f   yourgame:physenv.obj
 0001:000097c0       ?numShapes@PhysEnv@util@yourgame@@QEAA_KXZ 000000014000a7c0 f   yourgame:physenv.obj
 0001:000097e0       ?newRigidBody@PhysEnv@util@yourgame@@QEAA_NAEBV?$basic_string@DU?$char_traits@D@std@@V?$allocator@D@2@@std@@0AEBVTrafo@math@3@AEBURigidBodyInfo@23@@Z 000000014000a7e0 f   yourgame:physenv.obj
 0001:00009fa0       ??0RigidBody@util@yourgame@@QEAA@V?$basic_string@DU?$char_traits@D@std@@V?$allocator@D@2@@std@@PEAX@Z 000000014000afa0 f   yourgame:physenv.obj
 0001:0000a110       ?deleteRigidBody@PhysEnv@util@yourgame@@QEAA_NAEBV?$basic_string@DU?$char_traits@D@std@@V?$allocator@D@2@@std@@@Z 000000014000b110 f   yourgame:physenv.obj
 0001:0000a1b0       ?getRigidBody@PhysEnv@util@yourgame@@QEAAPEAVRigidBody@23@AEBV?$basic_string@DU?$char_traits@D@std@@V?$allocator@D@2@@std@@@Z 000000014000b1b0 f   yourgame:physenv.obj
 0001:0000a1f0       ?getRigidBodiesStartingWith@PhysEnv@util@yourgame@@QEAA?AV?$vector@PEAVRigidBody@util@yourgame@@V?$allocator@PEAVRigidBody@util@yourgame@@@std@@@std@@AEBV?$basic_string@DU?$char_traits@D@std@@V?$allocator@D@2@@5@@Z 000000014000b1f0 f   yourgame:physenv.obj
 0001:0000a510       ?clearRigidBodies@PhysEnv@util@yourgame@@QEAA_KXZ 000000014000b510 f   yourgame:physenv.obj
 0001:0000a5a0       ?numRigidBodies@PhysEnv@util@yourgame@@QEAA_KXZ 000000014000b5a0 f   yourgame:physenv.obj
 0001:0000a5c0       ?tick@PhysEnv@util@yourgame@@QEAAXM@Z 000000014000b5c0 f   yourgame:physenv.obj
 0001:0000a610       ?getCollisions@PhysEnv@util@yourgame@@QEAA?AV?$vector@VCollision@util@yourgame@@V?$allocator@VCollision@util@yourgame@@@std@@@std@@XZ 000000014000b610 f   yourgame:physenv.obj
 0001:0000a710       ?rayTest@PhysEnv@util@yourgame@@QEAA?AVRayTestResult@23@MMMMMM@Z 000000014000b710 f   yourgame:physenv.obj
 0001:0000a8e0       ?getRotation@btMatrix3x3@@QEBAXAEAVbtQuaternion@@@Z 000000014000b8e0 f   yourgame:physenv.obj
 0001:0000aaf0       ?tickCallback@impl@PhysEnv@util@yourgame@@SAXPEAVbtDynamicsWorld@@M@Z 000000014000baf0 f   yourgame:physenv.obj
 0001:0000acd0       ??$_Emplace_reallocate@PEAVRigidBody@util@yourgame@@PEAV123@AEAM@?$vector@VCollision@util@yourgame@@V?$allocator@VCollision@util@yourgame@@@std@@@std@@AEAAPEAVCollision@util@yourgame@@QEAV234@$$QEAPEAVRigidBody@34@1AEAM@Z 000000014000bcd0 f   yourgame:physenv.obj
 0001:0000aee0       ?_Xlength@?$vector@VCollision@util@yourgame@@V?$allocator@VCollision@util@yourgame@@@std@@@std@@CAXXZ 000000014000bee0 f   yourgame:physenv.obj
 0001:0000af10       ??_GbtSphereShape@@UEAAPEAXI@Z 000000014000bf10 f   yourgame:physenv.obj
 0001:0000af50       ?getLocalScaling@btConvexInternalShape@@UEBAAEBVbtVector3@@XZ 000000014000bf50 f   yourgame:physenv.obj
 0001:0000af70       ?getName@btSphereShape@@UEBAPEBDXZ 000000014000bf70 f   yourgame:physenv.obj
 0001:0000af90       ?getAnisotropicRollingFrictionDirection@btCollisionShape@@UEBA?AVbtVector3@@XZ 000000014000bf90 f   yourgame:physenv.obj
 0001:0000afb0       ?setMargin@btSphereShape@@UEAAXM@Z 000000014000bfb0 f   yourgame:physenv.obj
 0001:0000afd0       ?getMargin@btSphereShape@@UEBAMXZ 000000014000bfd0 f   yourgame:physenv.obj
 0001:0000aff0       ?calculateSerializeBufferSize@btConvexInternalShape@@UEBAHXZ 000000014000bff0 f   yourgame:physenv.obj
 0001:0000b010       ?serialize@btConvexInternalShape@@UEBAPEBDPEAXPEAVbtSerializer@@@Z 000000014000c010 f   yourgame:physenv.obj
 0001:0000b0b0       ?getNumPreferredPenetrationDirections@btConvexInternalShape@@UEBAHXZ 000000014000c0b0 f   yourgame:physenv.obj
 0001:0000b0c0       ?getPreferredPenetrationDirection@btConvexInternalShape@@UEBAXHAEAVbtVector3@@@Z 000000014000c0c0 f   yourgame:physenv.obj
 0001:0000b0d0       ?getIdentity@btMatrix3x3@@SAAEBV1@XZ 000000014000c0d0 f   yourgame:physenv.obj
 0001:0000b190       ??_GbtDefaultMotionState@@UEAAPEAXI@Z 000000014000c190 f   yourgame:physenv.obj
 0001:0000b1d0       ?getWorldTransform@btDefaultMotionState@@UEBAXAEAVbtTransform@@@Z 000000014000c1d0 f   yourgame:physenv.obj
 0001:0000b4e0       ?setWorldTransform@btDefaultMotionState@@UEAAXAEBVbtTransform@@@Z 000000014000c4e0 f   yourgame:physenv.obj
 0001:0000b730       ??_GbtMotionState@@UEAAPEAXI@Z 000000014000c730 f   yourgame:physenv.obj
 0001:0000b740       ??_GClosestRayResultCallback@btCollisionWorld@@UEAAPEAXI@Z 000000014000c740 f   yourgame:physenv.obj
 0001:0000b780       ?needsCollision@RayResultCallback@btCollisionWorld@@UEBA_NPEAUbtBroadphaseProxy@@@Z 000000014000c780 f   yourgame:physenv.obj
 0001:0000b7b0       ?addSingleResult@ClosestRayResultCallback@btCollisionWorld@@UEAAMAEAULocalRayResult@2@_N@Z 000000014000c7b0 f   yourgame:physenv.obj
 0001:0000b8d0       ??_GRayResultCallback@btCollisionWorld@@UEAAPEAXI@Z 000000014000c8d0 f   yourgame:physenv.obj
 0001:0000b8e0       ??1impl@PhysEnv@util@yourgame@@QEAA@XZ 000000014000c8e0 f   yourgame:physenv.obj
 0001:0000ba10       ??$_Erase_tree@V?$allocator@U?$_Tree_node@U?$pair@$$CBV?$basic_string@DU?$char_traits@D@std@@V?$allocator@D@2@@std@@V?$unique_ptr@VRigidBody@util@yourgame@@U?$default_delete@VRigidBody@util@yourgame@@@std@@@2@@std@@PEAX@std@@@std@@@?$_Tree_val@U?$_Tree_simple_types@U?$pair@$$CBV?$basic_string@DU?$char_traits@D@std@@V?$allocator@D@2@@std@@V?$unique_ptr@VRigidBody@util@yourgame@@U?$default_delete@VRigidBody@util@yourgame@@@std@@@2@@std@@@std@@@std@@QEAAXAEAV?$allocator@U?$_Tree_node@U?$pair@$$CBV?$basic_string@DU?$char_traits@D@std@@V?$allocator@D@2@@std@@V?$unique_ptr@VRigidBody@util@yourgame@@U?$default_delete@VRigidBody@util@yourgame@@@std@@@2@@std@@PEAX@std@@@1@PEAU?$_Tree_node@U?$pair@$$CBV?$basic_string@DU?$char_traits@D@std@@V?$allocator@D@2@@std@@V?$unique_ptr@VRigidBody@util@yourgame@@U?$default_delete@VRigidBody@util@yourgame@@@std@@@2@@std@@PEAX@1@@Z 000000014000ca10 f   yourgame:physenv.obj
 0001:0000baa0       ??1?$pair@$$CBV?$basic_string@DU?$char_traits@D@std@@V?$allocator@D@2@@std@@V?$unique_ptr@VRigidBody@util@yourgame@@U?$default_delete@VRigidBody@util@yourgame@@@std@@@2@@std@@QEAA@XZ 000000014000caa0 f   yourgame:physenv.obj
 0001:0000bbb0       ??$_Erase_tree@V?$allocator@U?$_Tree_node@U?$pair@$$CBV?$basic_string@DU?$char_traits@D@std@@V?$allocator@D@2@@std@@V?$unique_ptr@VbtCollisionShape@@U?$default_delete@VbtCollisionShape@@@std@@@2@@std@@PEAX@std@@@std@@@?$_Tree_val@U?$_Tree_simple_types@U?$pair@$$CBV?$basic_string@DU?$char_traits@D@std@@V?$allocator@D@2@@std@@V?$unique_ptr@VbtCollisionShape@@U?$default_delete@VbtCollisionShape@@@std@@@2@@std@@@std@@@std@@QEAAXAEAV?$allocator@U?$_Tree_node@U?$pair@$$CBV?$basic_string@DU?$char_traits@D@std@@V?$allocator@D@2@@std@@V?$unique_ptr@VbtCollisionShape@@U?$default_delete@VbtCollisionShape@@@std@@@2@@std@@PEAX@std@@@1@PEAU?$_Tree_node@U?$pair@$$CBV?$basic_string@DU?$char_traits@D@std@@V?$allocator@D@2@@std@@V?$unique_ptr@VbtCollisionShape@@U?$default_delete@VbtCollisionShape@@@std@@@2@@std@@PEAX@1@@Z 000000014000cbb0 f   yourgame:physenv.obj
 0001:0000bc90       ??$_Emplace@AEBV?$basic_string@DU?$char_traits@D@std@@V?$allocator@D@2@@std@@PEAVbtBoxShape@@@?$_Tree@V?$_Tmap_traits@V?$basic_string@DU?$char_traits@D@std@@V?$allocator@D@2@@std@@V?$unique_ptr@VbtCollisionShape@@U?$default_delete@VbtCollisionShape@@@std@@@2@U?$less@V?$basic_string@DU?$char_traits@D@std@@V?$allocator@D@2@@std@@@2@V?$allocator@U?$pair@$$CBV?$basic_string@DU?$char_traits@D@std@@V?$allocator@D@2@@std@@V?$unique_ptr@VbtCollisionShape@@U?$default_delete@VbtCollisionShape@@@std@@@2@@std@@@2@$0A@@std@@@std@@IEAA?AU?$pair@PEAU?$_Tree_node@U?$pair@$$CBV?$basic_string@DU?$char_traits@D@std@@V?$allocator@D@2@@std@@V?$unique_ptr@VbtCollisionShape@@U?$default_delete@VbtCollisionShape@@@std@@@2@@std@@PEAX@std@@_N@1@AEBV?$basic_string@DU?$char_traits@D@std@@V?$allocator@D@2@@1@$$QEAPEAVbtBoxShape@@@Z 000000014000cc90 f   yourgame:physenv.obj
 0001:0000beb0       ?_Insert_node@?$_Tree_val@U?$_Tree_simple_types@U?$pair@$$CBV?$basic_string@DU?$char_traits@D@std@@V?$allocator@D@2@@std@@V?$unique_ptr@VbtCollisionShape@@U?$default_delete@VbtCollisionShape@@@std@@@2@@std@@@std@@@std@@QEAAPEAU?$_Tree_node@U?$pair@$$CBV?$basic_string@DU?$char_traits@D@std@@V?$allocator@D@2@@std@@V?$unique_ptr@VbtCollisionShape@@U?$default_delete@VbtCollisionShape@@@std@@@2@@std@@PEAX@2@U?$_Tree_id@PEAU?$_Tree_node@U?$pair@$$CBV?$basic_string@DU?$char_traits@D@std@@V?$allocator@D@2@@std@@V?$unique_ptr@VbtCollisionShape@@U?$default_delete@VbtCollisionShape@@@std@@@2@@std@@PEAX@std@@@2@QEAU32@@Z 000000014000ceb0 f   yourgame:physenv.obj
 0001:0000c110       ??$?0AEBV?$basic_string@DU?$char_traits@D@std@@V?$allocator@D@2@@std@@PEAVbtBoxShape@@$0A@@?$pair@$$CBV?$basic_string@DU?$char_traits@D@std@@V?$allocator@D@2@@std@@V?$unique_ptr@VbtCollisionShape@@U?$default_delete@VbtCollisionShape@@@std@@@2@@std@@QEAA@AEBV?$basic_string@DU?$char_traits@D@std@@V?$allocator@D@2@@1@$$QEAPEAVbtBoxShape@@@Z 000000014000d110 f   yourgame:physenv.obj
 0001:0000c220       ??$_Emplace@AEBV?$basic_string@DU?$char_traits@D@std@@V?$allocator@D@2@@std@@PEAVbtSphereShape@@@?$_Tree@V?$_Tmap_traits@V?$basic_string@DU?$char_traits@D@std@@V?$allocator@D@2@@std@@V?$unique_ptr@VbtCollisionShape@@U?$default_delete@VbtCollisionShape@@@std@@@2@U?$less@V?$basic_string@DU?$char_traits@D@std@@V?$allocator@D@2@@std@@@2@V?$allocator@U?$pair@$$CBV?$basic_string@DU?$char_traits@D@std@@V?$allocator@D@2@@std@@V?$unique_ptr@VbtCollisionShape@@U?$default_delete@VbtCollisionShape@@@std@@@2@@std@@@2@$0A@@std@@@std@@IEAA?AU?$pair@PEAU?$_Tree_node@U?$pair@$$CBV?$basic_string@DU?$char_traits@D@std@@V?$allocator@D@2@@std@@V?$unique_ptr@VbtCollisionShape@@U?$default_delete@VbtCollisionShape@@@std@@@2@@std@@PEAX@std@@_N@1@AEBV?$basic_string@DU?$char_traits@D@std@@V?$allocator@D@2@@1@$$QEAPEAVbtSphereShape@@@Z 000000014000d220 f   yourgame:physenv.obj
 0001:0000c440       ??$?0AEBV?$basic_string@DU?$char_traits@D@std@@V?$allocator@D@2@@std@@PEAVbtSphereShape@@$0A@@?$pair@$$CBV?$basic_string@DU?$char_traits@D@std@@V?$allocator@D@2@@std@@V?$unique_ptr@VbtCollisionShape@@U?$default_delete@VbtCollisionShape@@@std@@@2@@std@@QEAA@AEBV?$basic_string@DU?$char_traits@D@std@@V?$allocator@D@2@@1@$$QEAPEAVbtSphereShape@@@Z 000000014000d440 f   yourgame:physenv.obj
 0001:0000c550       ??$_Emplace@AEBV?$basic_string@DU?$char_traits@D@std@@V?$allocator@D@2@@std@@PEAVbtCylinderShape@@@?$_Tree@V?$_Tmap_traits@V?$basic_string@DU?$char_traits@D@std@@V?$allocator@D@2@@std@@V?$unique_ptr@VbtCollisionShape@@U?$default_delete@VbtCollisionShape@@@std@@@2@U?$less@V?$basic_string@DU?$char_traits@D@std@@V?$allocator@D@2@@std@@@2@V?$allocator@U?$pair@$$CBV?$basic_string@DU?$char_traits@D@std@@V?$allocator@D@2@@std@@V?$unique_ptr@VbtCollisionShape@@U?$default_delete@VbtCollisionShape@@@std@@@2@@std@@@2@$0A@@std@@@std@@IEAA?AU?$pair@PEAU?$_Tree_node@U?$pair@$$CBV?$basic_string@DU?$char_traits@D@std@@V?$allocator@D@2@@std@@V?$unique_ptr@VbtCollisionShape@@U?$default_delete@VbtCollisionShape@@@std@@@2@@std@@PEAX@std@@_N@1@AEBV?$basic_string@DU?$char_traits@D@std@@V?$allocator@D@2@@1@$$QEAPEAVbtCylinderShape@@@Z 000000014000d550 f   yourgame:physenv.obj
 0001:0000c770       ??$?0AEBV?$basic_string@DU?$char_traits@D@std@@V?$allocator@D@2@@std@@PEAVbtCylinderShape@@$0A@@?$pair@$$CBV?$basic_string@DU?$char_traits@D@std@@V?$allocator@D@2@@std@@V?$unique_ptr@VbtCollisionShape@@U?$default_delete@VbtCollisionShape@@@std@@@2@@std@@QEAA@AEBV?$basic_string@DU?$char_traits@D@std@@V?$allocator@D@2@@1@$$QEAPEAVbtCylinderShape@@@Z 000000014000d770 f   yourgame:physenv.obj
 0001:0000c880       ??$_Emplace@AEBV?$basic_string@DU?$char_traits@D@std@@V?$allocator@D@2@@std@@PEAVbtConeShape@@@?$_Tree@V?$_Tmap_traits@V?$basic_string@DU?$char_traits@D@std@@V?$allocator@D@2@@std@@V?$unique_ptr@VbtCollisionShape@@U?$default_delete@VbtCollisionShape@@@std@@@2@U?$less@V?$basic_string@DU?$char_traits@D@std@@V?$allocator@D@2@@std@@@2@V?$allocator@U?$pair@$$CBV?$basic_string@DU?$char_traits@D@std@@V?$allocator@D@2@@std@@V?$unique_ptr@VbtCollisionShape@@U?$default_delete@VbtCollisionShape@@@std@@@2@@std@@@2@$0A@@std@@@std@@IEAA?AU?$pair@PEAU?$_Tree_node@U?$pair@$$CBV?$basic_string@DU?$char_traits@D@std@@V?$allocator@D@2@@std@@V?$unique_ptr@VbtCollisionShape@@U?$default_delete@VbtCollisionShape@@@std@@@2@@std@@PEAX@std@@_N@1@AEBV?$basic_string@DU?$char_traits@D@std@@V?$allocator@D@2@@1@$$QEAPEAVbtConeShape@@@Z 000000014000d880 f   yourgame:physenv.obj
 0001:0000caa0       ??$?0AEBV?$basic_string@DU?$char_traits@D@std@@V?$allocator@D@2@@std@@PEAVbtConeShape@@$0A@@?$pair@$$CBV?$basic_string@DU?$char_traits@D@std@@V?$allocator@D@2@@std@@V?$unique_ptr@VbtCollisionShape@@U?$default_delete@VbtCollisionShape@@@std@@@2@@std@@QEAA@AEBV?$basic_string@DU?$char_traits@D@std@@V?$allocator@D@2@@1@$$QEAPEAVbtConeShape@@@Z 000000014000daa0 f   yourgame:physenv.obj
 0001:0000cbb0       ?_Erase@?$_Tree@V?$_Tmap_traits@V?$basic_string@DU?$char_traits@D@std@@V?$allocator@D@2@@std@@V?$unique_ptr@VbtCollisionShape@@U?$default_delete@VbtCollisionShape@@@std@@@2@U?$less@V?$basic_string@DU?$char_traits@D@std@@V?$allocator@D@2@@std@@@2@V?$allocator@U?$pair@$$CBV?$basic_string@DU?$char_traits@D@std@@V?$allocator@D@2@@std@@V?$unique_ptr@VbtCollisionShape@@U?$default_delete@VbtCollisionShape@@@std@@@2@@std@@@2@$0A@@std@@@std@@AEAA_KU?$pair@PEAU?$_Tree_node@U?$pair@$$CBV?$basic_string@DU?$char_traits@D@std@@V?$allocator@D@2@@std@@V?$unique_ptr@VbtCollisionShape@@U?$default_delete@VbtCollisionShape@@@std@@@2@@std@@PEAX@std@@PEAU12@@2@@Z 000000014000dbb0 f   yourgame:physenv.obj
 0001:0000ccf0       ??$_Eqrange@V?$basic_string@DU?$char_traits@D@std@@V?$allocator@D@2@@std@@@?$_Tree@V?$_Tmap_traits@V?$basic_string@DU?$char_traits@D@std@@V?$allocator@D@2@@std@@V?$unique_ptr@VbtCollisionShape@@U?$default_delete@VbtCollisionShape@@@std@@@2@U?$less@V?$basic_string@DU?$char_traits@D@std@@V?$allocator@D@2@@std@@@2@V?$allocator@U?$pair@$$CBV?$basic_string@DU?$char_traits@D@std@@V?$allocator@D@2@@std@@V?$unique_ptr@VbtCollisionShape@@U?$default_delete@VbtCollisionShape@@@std@@@2@@std@@@2@$0A@@std@@@std@@IEBA?AU?$pair@PEAU?$_Tree_node@U?$pair@$$CBV?$basic_string@DU?$char_traits@D@std@@V?$allocator@D@2@@std@@V?$unique_ptr@VbtCollisionShape@@U?$default_delete@VbtCollisionShape@@@std@@@2@@std@@PEAX@std@@PEAU12@@1@AEBV?$basic_string@DU?$char_traits@D@std@@V?$allocator@D@2@@1@@Z 000000014000dcf0 f   yourgame:physenv.obj
 0001:0000ced0       ?_Erase_unchecked@?$_Tree@V?$_Tmap_traits@V?$basic_string@DU?$char_traits@D@std@@V?$allocator@D@2@@std@@V?$unique_ptr@VbtCollisionShape@@U?$default_delete@VbtCollisionShape@@@std@@@2@U?$less@V?$basic_string@DU?$char_traits@D@std@@V?$allocator@D@2@@std@@@2@V?$allocator@U?$pair@$$CBV?$basic_string@DU?$char_traits@D@std@@V?$allocator@D@2@@std@@V?$unique_ptr@VbtCollisionShape@@U?$default_delete@VbtCollisionShape@@@std@@@2@@std@@@2@$0A@@std@@@std@@AEAAPEAU?$_Tree_node@U?$pair@$$CBV?$basic_string@DU?$char_traits@D@std@@V?$allocator@D@2@@std@@V?$unique_ptr@VbtCollisionShape@@U?$default_delete@VbtCollisionShape@@@std@@@2@@std@@PEAX@2@V?$_Tree_unchecked_const_iterator@V?$_Tree_val@U?$_Tree_simple_types@U?$pair@$$CBV?$basic_string@DU?$char_traits@D@std@@V?$allocator@D@2@@std@@V?$unique_ptr@VbtCollisionShape@@U?$default_delete@VbtCollisionShape@@@std@@@2@@std@@@std@@@std@@U_Iterator_base0@2@@2@@Z 000000014000ded0 f   yourgame:physenv.obj
 0001:0000cfc0       ?_Extract@?$_Tree_val@U?$_Tree_simple_types@U?$pair@$$CBV?$basic_string@DU?$char_traits@D@std@@V?$allocator@D@2@@std@@V?$unique_ptr@VbtCollisionShape@@U?$default_delete@VbtCollisionShape@@@std@@@2@@std@@@std@@@std@@QEAAPEAU?$_Tree_node@U?$pair@$$CBV?$basic_string@DU?$char_traits@D@std@@V?$allocator@D@2@@std@@V?$unique_ptr@VbtCollisionShape@@U?$default_delete@VbtCollisionShape@@@std@@@2@@std@@PEAX@2@V?$_Tree_unchecked_const_iterator@V?$_Tree_val@U?$_Tree_simple_types@U?$pair@$$CBV?$basic_string@DU?$char_traits@D@std@@V?$allocator@D@2@@std@@V?$unique_ptr@VbtCollisionShape@@U?$default_delete@VbtCollisionShape@@@std@@@2@@std@@@std@@@std@@U_Iterator_base0@2@@2@@Z 000000014000dfc0 f   yourgame:physenv.obj
 0001:0000d4b0       ??$_Find@V?$basic_string@DU?$char_traits@D@std@@V?$allocator@D@2@@std@@@?$_Tree@V?$_Tmap_traits@V?$basic_string@DU?$char_traits@D@std@@V?$allocator@D@2@@std@@V?$unique_ptr@VRigidBody@util@yourgame@@U?$default_delete@VRigidBody@util@yourgame@@@std@@@2@U?$less@V?$basic_string@DU?$char_traits@D@std@@V?$allocator@D@2@@std@@@2@V?$allocator@U?$pair@$$CBV?$basic_string@DU?$char_traits@D@std@@V?$allocator@D@2@@std@@V?$unique_ptr@VRigidBody@util@yourgame@@U?$default_delete@VRigidBody@util@yourgame@@@std@@@2@@std@@@2@$0A@@std@@@std@@AEBAPEAU?$_Tree_node@U?$pair@$$CBV?$basic_string@DU?$char_traits@D@std@@V?$allocator@D@2@@std@@V?$unique_ptr@VRigidBody@util@yourgame@@U?$default_delete@VRigidBody@util@yourgame@@@std@@@2@@std@@PEAX@1@AEBV?$basic_string@DU?$char_traits@D@std@@V?$allocator@D@2@@1@@Z 000000014000e4b0 f   yourgame:physenv.obj
 0001:0000d5f0       ??$_Find@V?$basic_string@DU?$char_traits@D@std@@V?$allocator@D@2@@std@@@?$_Tree@V?$_Tmap_traits@V?$basic_string@DU?$char_traits@D@std@@V?$allocator@D@2@@std@@V?$unique_ptr@VbtCollisionShape@@U?$default_delete@VbtCollisionShape@@@std@@@2@U?$less@V?$basic_string@DU?$char_traits@D@std@@V?$allocator@D@2@@std@@@2@V?$allocator@U?$pair@$$CBV?$basic_string@DU?$char_traits@D@std@@V?$allocator@D@2@@std@@V?$unique_ptr@VbtCollisionShape@@U?$default_delete@VbtCollisionShape@@@std@@@2@@std@@@2@$0A@@std@@@std@@AEBAPEAU?$_Tree_node@U?$pair@$$CBV?$basic_string@DU?$char_traits@D@std@@V?$allocator@D@2@@std@@V?$unique_ptr@VbtCollisionShape@@U?$default_delete@VbtCollisionShape@@@std@@@2@@std@@PEAX@1@AEBV?$basic_string@DU?$char_traits@D@std@@V?$allocator@D@2@@1@@Z 000000014000e5f0 f   yourgame:physenv.obj
 0001:0000d730       ??$_Try_emplace@AEBV?$basic_string@DU?$char_traits@D@std@@V?$allocator@D@2@@std@@$$V@?$map@V?$basic_string@DU?$char_traits@D@std@@V?$allocator@D@2@@std@@V?$unique_ptr@VbtCollisionShape@@U?$default_delete@VbtCollisionShape@@@std@@@2@U?$less@V?$basic_string@DU?$char_traits@D@std@@V?$allocator@D@2@@std@@@2@V?$allocator@U?$pair@$$CBV?$basic_string@DU?$char_traits@D@std@@V?$allocator@D@2@@std@@V?$unique_ptr@VbtCollisionShape@@U?$default_delete@VbtCollisionShape@@@std@@@2@@std@@@2@@std@@AEAA?AU?$pair@PEAU?$_Tree_node@U?$pair@$$CBV?$basic_string@DU?$char_traits@D@std@@V?$allocator@D@2@@std@@V?$unique_ptr@VbtCollisionShape@@U?$default_delete@VbtCollisionShape@@@std@@@2@@std@@PEAX@std@@_N@1@AEBV?$basic_string@DU?$char_traits@D@std@@V?$allocator@D@2@@1@@Z 000000014000e730 f   yourgame:physenv.obj
 0001:0000d960       ??$?0V?$tuple@AEBV?$basic_string@DU?$char_traits@D@std@@V?$allocator@D@2@@std@@@std@@V?$tuple@$$V@1@$0A@$$Z$S@?$pair@$$CBV?$basic_string@DU?$char_traits@D@std@@V?$allocator@D@2@@std@@V?$unique_ptr@VbtCollisionShape@@U?$default_delete@VbtCollisionShape@@@std@@@2@@std@@QEAA@AEAV?$tuple@AEBV?$basic_string@DU?$char_traits@D@std@@V?$allocator@D@2@@std@@@1@AEAV?$tuple@$$V@1@U?$integer_sequence@_K$0A@@1@U?$integer_sequence@_K$S@1@@Z 000000014000e960 f   yourgame:physenv.obj
 0001:0000da70       ??$_Try_emplace@AEBV?$basic_string@DU?$char_traits@D@std@@V?$allocator@D@2@@std@@$$V@?$map@V?$basic_string@DU?$char_traits@D@std@@V?$allocator@D@2@@std@@V?$unique_ptr@VRigidBody@util@yourgame@@U?$default_delete@VRigidBody@util@yourgame@@@std@@@2@U?$less@V?$basic_string@DU?$char_traits@D@std@@V?$allocator@D@2@@std@@@2@V?$allocator@U?$pair@$$CBV?$basic_string@DU?$char_traits@D@std@@V?$allocator@D@2@@std@@V?$unique_ptr@VRigidBody@util@yourgame@@U?$default_delete@VRigidBody@util@yourgame@@@std@@@2@@std@@@2@@std@@AEAA?AU?$pair@PEAU?$_Tree_node@U?$pair@$$CBV?$basic_string@DU?$char_traits@D@std@@V?$allocator@D@2@@std@@V?$unique_ptr@VRigidBody@util@yourgame@@U?$default_delete@VRigidBody@util@yourgame@@@std@@@2@@std@@PEAX@std@@_N@1@AEBV?$basic_string@DU?$char_traits@D@std@@V?$allocator@D@2@@1@@Z 000000014000ea70 f   yourgame:physenv.obj
 0001:0000dca0       ?_Insert_node@?$_Tree_val@U?$_Tree_simple_types@U?$pair@$$CBV?$basic_string@DU?$char_traits@D@std@@V?$allocator@D@2@@std@@V?$unique_ptr@VRigidBody@util@yourgame@@U?$default_delete@VRigidBody@util@yourgame@@@std@@@2@@std@@@std@@@std@@QEAAPEAU?$_Tree_node@U?$pair@$$CBV?$basic_string@DU?$char_traits@D@std@@V?$allocator@D@2@@std@@V?$unique_ptr@VRigidBody@util@yourgame@@U?$default_delete@VRigidBody@util@yourgame@@@std@@@2@@std@@PEAX@2@U?$_Tree_id@PEAU?$_Tree_node@U?$pair@$$CBV?$basic_string@DU?$char_traits@D@std@@V?$allocator@D@2@@std@@V?$unique_ptr@VRigidBody@util@yourgame@@U?$default_delete@VRigidBody@util@yourgame@@@std@@@2@@std@@PEAX@std@@@2@QEAU32@@Z 000000014000eca0 f   yourgame:physenv.obj
 0001:0000df00       ??$?0V?$tuple@AEBV?$basic_string@DU?$char_traits@D@std@@V?$allocator@D@2@@std@@@std@@V?$tuple@$$V@1@$0A@$$Z$S@?$pair@$$CBV?$basic_string@DU?$char_traits@D@std@@V?$allocator@D@2@@std@@V?$unique_ptr@VRigidBody@util@yourgame@@U?$default_delete@VRigidBody@util@yourgame@@@std@@@2@@std@@QEAA@AEAV?$tuple@AEBV?$basic_string@DU?$char_traits@D@std@@V?$allocator@D@2@@std@@@1@AEAV?$tuple@$$V@1@U?$integer_sequence@_K$0A@@1@U?$integer_sequence@_K$S@1@@Z 000000014000ef00 f   yourgame:physenv.obj
 0001:0000e010       ?_Extract@?$_Tree_val@U?$_Tree_simple_types@U?$pair@$$CBV?$basic_string@DU?$char_traits@D@std@@V?$allocator@D@2@@std@@V?$unique_ptr@VRigidBody@util@yourgame@@U?$default_delete@VRigidBody@util@yourgame@@@std@@@2@@std@@@std@@@std@@QEAAPEAU?$_Tree_node@U?$pair@$$CBV?$basic_string@DU?$char_traits@D@std@@V?$allocator@D@2@@std@@V?$unique_ptr@VRigidBody@util@yourgame@@U?$default_delete@VRigidBody@util@yourgame@@@std@@@2@@std@@PEAX@2@V?$_Tree_unchecked_const_iterator@V?$_Tree_val@U?$_Tree_simple_types@U?$pair@$$CBV?$basic_string@DU?$char_traits@D@std@@V?$allocator@D@2@@std@@V?$unique_ptr@VRigidBody@util@yourgame@@U?$default_delete@VRigidBody@util@yourgame@@@std@@@2@@std@@@std@@@std@@U_Iterator_base0@2@@2@@Z 000000014000f010 f   yourgame:physenv.obj
 0001:0000e500       ??$_Emplace_reallocate@PEAVRigidBody@util@yourgame@@@?$vector@PEAVRigidBody@util@yourgame@@V?$allocator@PEAVRigidBody@util@yourgame@@@std@@@std@@AEAAPEAPEAVRigidBody@util@yourgame@@QEAPEAV234@$$QEAPEAV234@@Z 000000014000f500 f   yourgame:physenv.obj
 0001:0000e770       ?init@audio@yourgame@@YAHHHH@Z 000000014000f770 f   yourgame:audio.obj
 0001:0000f2c0       ?shutdown@audio@yourgame@@YAXXZ 00000001400102c0 f   yourgame:audio.obj
 0001:0000f490       ?isInitialized@audio@yourgame@@YA_NXZ 0000000140010490 f   yourgame:audio.obj
 0001:0000f4b0       ?storeFile@audio@yourgame@@YAHAEBV?$basic_string@DU?$char_traits@D@std@@V?$allocator@D@2@@std@@@Z 00000001400104b0 f   yourgame:audio.obj
 0001:0000f5d0       ?play@audio@yourgame@@YAHAEBV?$basic_string@DU?$char_traits@D@std@@V?$allocator@D@2@@std@@_N@Z 00000001400105d0 f   yourgame:audio.obj
 0001:0000f9b0       ?stop@audio@yourgame@@YAHH@Z 00000001400109b0 f   yourgame:audio.obj
 0001:0000fa10       ?pause@audio@yourgame@@YAHH_N@Z 0000000140010a10 f   yourgame:audio.obj
 0001:0000faa0       ?setChannelGains@audio@yourgame@@YAHHAEBV?$vector@MV?$allocator@M@std@@@std@@@Z 0000000140010aa0 f   yourgame:audio.obj
 0001:0000fc10       ??$_Erase_tree@V?$allocator@U?$_Tree_node@U?$pair@$$CBV?$basic_string@DU?$char_traits@D@std@@V?$allocator@D@2@@std@@V?$vector@EV?$allocator@E@std@@@2@@std@@PEAX@std@@@std@@@?$_Tree_val@U?$_Tree_simple_types@U?$pair@$$CBV?$basic_string@DU?$char_traits@D@std@@V?$allocator@D@2@@std@@V?$vector@EV?$allocator@E@std@@@2@@std@@@std@@@std@@QEAAXAEAV?$allocator@U?$_Tree_node@U?$pair@$$CBV?$basic_string@DU?$char_traits@D@std@@V?$allocator@D@2@@std@@V?$vector@EV?$allocator@E@std@@@2@@std@@PEAX@std@@@1@PEAU?$_Tree_node@U?$pair@$$CBV?$basic_string@DU?$char_traits@D@std@@V?$allocator@D@2@@std@@V?$vector@EV?$allocator@E@std@@@2@@std@@PEAX@1@@Z 0000000140010c10 f   yourgame:audio.obj
 0001:0000fc90       ??$_Freenode@V?$allocator@U?$_Tree_node@U?$pair@$$CBV?$basic_string@DU?$char_traits@D@std@@V?$allocator@D@2@@std@@V?$vector@EV?$allocator@E@std@@@2@@std@@PEAX@std@@@std@@@?$_Tree_node@U?$pair@$$CBV?$basic_string@DU?$char_traits@D@std@@V?$allocator@D@2@@std@@V?$vector@EV?$allocator@E@std@@@2@@std@@PEAX@std@@SAXAEAV?$allocator@U?$_Tree_node@U?$pair@$$CBV?$basic_string@DU?$char_traits@D@std@@V?$allocator@D@2@@std@@V?$vector@EV?$allocator@E@std@@@2@@std@@PEAX@std@@@1@PEAU01@@Z 0000000140010c90 f   yourgame:audio.obj
 0001:0000fd50       ?_Xlength@?$vector@MV?$allocator@M@std@@@std@@CAXXZ 0000000140010d50 f   yourgame:audio.obj
 0001:0000fdb0       ??$_Find@V?$basic_string@DU?$char_traits@D@std@@V?$allocator@D@2@@std@@@?$_Tree@V?$_Tmap_traits@V?$basic_string@DU?$char_traits@D@std@@V?$allocator@D@2@@std@@V?$vector@EV?$allocator@E@std@@@2@U?$less@V?$basic_string@DU?$char_traits@D@std@@V?$allocator@D@2@@std@@@2@V?$allocator@U?$pair@$$CBV?$basic_string@DU?$char_traits@D@std@@V?$allocator@D@2@@std@@V?$vector@EV?$allocator@E@std@@@2@@std@@@2@$0A@@std@@@std@@AEBAPEAU?$_Tree_node@U?$pair@$$CBV?$basic_string@DU?$char_traits@D@std@@V?$allocator@D@2@@std@@V?$vector@EV?$allocator@E@std@@@2@@std@@PEAX@1@AEBV?$basic_string@DU?$char_traits@D@std@@V?$allocator@D@2@@1@@Z 0000000140010db0 f   yourgame:audio.obj
 0001:0000fef0       ??$_Emplace@AEBV?$basic_string@DU?$char_traits@D@std@@V?$allocator@D@2@@std@@AEAV?$vector@EV?$allocator@E@std@@@2@@?$_Tree@V?$_Tmap_traits@V?$basic_string@DU?$char_traits@D@std@@V?$allocator@D@2@@std@@V?$vector@EV?$allocator@E@std@@@2@U?$less@V?$basic_string@DU?$char_traits@D@std@@V?$allocator@D@2@@std@@@2@V?$allocator@U?$pair@$$CBV?$basic_string@DU?$char_traits@D@std@@V?$allocator@D@2@@std@@V?$vector@EV?$allocator@E@std@@@2@@std@@@2@$0A@@std@@@std@@IEAA?AU?$pair@PEAU?$_Tree_node@U?$pair@$$CBV?$basic_string@DU?$char_traits@D@std@@V?$allocator@D@2@@std@@V?$vector@EV?$allocator@E@std@@@2@@std@@PEAX@std@@_N@1@AEBV?$basic_string@DU?$char_traits@D@std@@V?$allocator@D@2@@1@AEAV?$vector@EV?$allocator@E@std@@@1@@Z 0000000140010ef0 f   yourgame:audio.obj
 0001:00010140       ??1?$_Tree_temp_node@V?$allocator@U?$_Tree_node@U?$pair@$$CBV?$basic_string@DU?$char_traits@D@std@@V?$allocator@D@2@@std@@V?$vector@EV?$allocator@E@std@@@2@@std@@PEAX@std@@@std@@@std@@QEAA@XZ 0000000140011140 f   yourgame:audio.obj
 0001:00010230       ?_Insert_node@?$_Tree_val@U?$_Tree_simple_types@U?$pair@$$CBV?$basic_string@DU?$char_traits@D@std@@V?$allocator@D@2@@std@@V?$vector@EV?$allocator@E@std@@@2@@std@@@std@@@std@@QEAAPEAU?$_Tree_node@U?$pair@$$CBV?$basic_string@DU?$char_traits@D@std@@V?$allocator@D@2@@std@@V?$vector@EV?$allocator@E@std@@@2@@std@@PEAX@2@U?$_Tree_id@PEAU?$_Tree_node@U?$pair@$$CBV?$basic_string@DU?$char_traits@D@std@@V?$allocator@D@2@@std@@V?$vector@EV?$allocator@E@std@@@2@@std@@PEAX@std@@@2@QEAU32@@Z 0000000140011230 f   yourgame:audio.obj
 0001:00010490       ??$?0AEBV?$basic_string@DU?$char_traits@D@std@@V?$allocator@D@2@@std@@AEAV?$vector@EV?$allocator@E@std@@@1@$0A@@?$pair@$$CBV?$basic_string@DU?$char_traits@D@std@@V?$allocator@D@2@@std@@V?$vector@EV?$allocator@E@std@@@2@@std@@QEAA@AEBV?$basic_string@DU?$char_traits@D@std@@V?$allocator@D@2@@1@AEAV?$vector@EV?$allocator@E@std@@@1@@Z 0000000140011490 f   yourgame:audio.obj
 0001:00010640       ?_Xlength@?$vector@EV?$allocator@E@std@@@std@@CAXXZ 0000000140011640 f   yourgame:audio.obj
 0001:00010670       ??$_Resize_reallocate@M@?$vector@MV?$allocator@M@std@@@std@@AEAAX_KAEBM@Z 0000000140011670 f   yourgame:audio.obj
 0001:00010930       ?_Clear_and_reserve_geometric@?$vector@MV?$allocator@M@std@@@std@@AEAAX_K@Z 0000000140011930 f   yourgame:audio.obj
 0001:00010b00       ?data@Lightsource@gl@yourgame@@QEAA?AV?$array@M$0M@@std@@XZ 0000000140011b00 f   yourgame:lightsource.obj
 0001:00010b30       ?ambient@Lightsource@gl@yourgame@@QEAA?AV?$array@M$02@std@@XZ 0000000140011b30 f   yourgame:lightsource.obj
 0001:00010b60       ?diffuse@Lightsource@gl@yourgame@@QEAA?AV?$array@M$02@std@@XZ 0000000140011b60 f   yourgame:lightsource.obj
 0001:00010b90       ?specular@Lightsource@gl@yourgame@@QEAA?AV?$array@M$02@std@@XZ 0000000140011b90 f   yourgame:lightsource.obj
 0001:00010bc0       ?position@Lightsource@gl@yourgame@@QEAA?AV?$array@M$02@std@@XZ 0000000140011bc0 f   yourgame:lightsource.obj
 0001:00010bf0       ?setAmbient@Lightsource@gl@yourgame@@QEAAXV?$array@M$02@std@@@Z 0000000140011bf0 f   yourgame:lightsource.obj
 0001:00010c20       ?setDiffuse@Lightsource@gl@yourgame@@QEAAXV?$array@M$02@std@@@Z 0000000140011c20 f   yourgame:lightsource.obj
 0001:00010c50       ?setSpecular@Lightsource@gl@yourgame@@QEAAXV?$array@M$02@std@@@Z 0000000140011c50 f   yourgame:lightsource.obj
 0001:00010c80       ?setPosition@Lightsource@gl@yourgame@@QEAAXV?$array@M$02@std@@@Z 0000000140011c80 f   yourgame:lightsource.obj
 0001:00010d00       ?setInput@yourgame_internal@@YAXW4Source@input@yourgame@@M@Z 0000000140011d00 f   yourgame:input.cpp.obj
 0001:00010d80       ?setInput2@yourgame_internal@@YAXW4Source@input@yourgame@@M@Z 0000000140011d80 f   yourgame:input.cpp.obj
 0001:00010e00       ?get@input@yourgame@@YAMW4Source@12@@Z 0000000140011e00 f   yourgame:input.cpp.obj
 0001:00010e70       ?geti@input@yourgame@@YAHW4Source@12@@Z 0000000140011e70 f   yourgame:input.cpp.obj
 0001:00010ef0       ?getDelta@input@yourgame@@YAMW4Source@12@@Z 0000000140011ef0 f   yourgame:input.cpp.obj
 0001:00010f60       ??$_Erase_tree@V?$allocator@U?$_Tree_node@U?$pair@$$CBW4Source@input@yourgame@@UInputValue@yourgame_internal@@@std@@PEAX@std@@@std@@@?$_Tree_val@U?$_Tree_simple_types@U?$pair@$$CBW4Source@input@yourgame@@UInputValue@yourgame_internal@@@std@@@std@@@std@@QEAAXAEAV?$allocator@U?$_Tree_node@U?$pair@$$CBW4Source@input@yourgame@@UInputValue@yourgame_internal@@@std@@PEAX@std@@@1@PEAU?$_Tree_node@U?$pair@$$CBW4Source@input@yourgame@@UInputValue@yourgame_internal@@@std@@PEAX@1@@Z 0000000140011f60 f   yourgame:input.cpp.obj
 0001:00010fe0       ??$_Try_emplace@AEBW4Source@input@yourgame@@$$V@?$map@W4Source@input@yourgame@@UInputValue@yourgame_internal@@U?$less@W4Source@input@yourgame@@@std@@V?$allocator@U?$pair@$$CBW4Source@input@yourgame@@UInputValue@yourgame_internal@@@std@@@7@@std@@AEAA?AU?$pair@PEAU?$_Tree_node@U?$pair@$$CBW4Source@input@yourgame@@UInputValue@yourgame_internal@@@std@@PEAX@std@@_N@1@AEBW4Source@input@yourgame@@@Z 0000000140011fe0 f   yourgame:input.cpp.obj
 0001:00011120       ?_Insert_node@?$_Tree_val@U?$_Tree_simple_types@U?$pair@$$CBW4Source@input@yourgame@@UInputValue@yourgame_internal@@@std@@@std@@@std@@QEAAPEAU?$_Tree_node@U?$pair@$$CBW4Source@input@yourgame@@UInputValue@yourgame_internal@@@std@@PEAX@2@U?$_Tree_id@PEAU?$_Tree_node@U?$pair@$$CBW4Source@input@yourgame@@UInputValue@yourgame_internal@@@std@@PEAX@std@@@2@QEAU32@@Z 0000000140012120 f   yourgame:input.cpp.obj
 0001:00011380       ??$_Emplace@AEAW4Source@input@yourgame@@AEAM@?$_Tree@V?$_Tmap_traits@W4Source@input@yourgame@@UInputValue@yourgame_internal@@U?$less@W4Source@input@yourgame@@@std@@V?$allocator@U?$pair@$$CBW4Source@input@yourgame@@UInputValue@yourgame_internal@@@std@@@7@$0A@@std@@@std@@IEAA?AU?$pair@PEAU?$_Tree_node@U?$pair@$$CBW4Source@input@yourgame@@UInputValue@yourgame_internal@@@std@@PEAX@std@@_N@1@AEAW4Source@input@yourgame@@AEAM@Z 0000000140012380 f   yourgame:input.cpp.obj
 0001:00011530       ?vMat@Camera@math@yourgame@@QEAA?AU?$mat@$03$03M$0A@@glm@@XZ 0000000140012530 f   yourgame:camera.obj
 0001:00011630       ?updateVMatIfInvalidated@Camera@math@yourgame@@AEAAXXZ 0000000140012630 f   yourgame:camera.obj
 0001:000116f0       ?pMat@Camera@math@yourgame@@QEAA?AU?$mat@$03$03M$0A@@glm@@XZ 00000001400126f0 f   yourgame:camera.obj
 0001:00011750       ?updatePMatIfInvalidated@Camera@math@yourgame@@AEAAXXZ 0000000140012750 f   yourgame:camera.obj
 0001:00011970       ?pMat@Camera@math@yourgame@@QEAA?AU?$mat@$03$03M$0A@@glm@@MM@Z 0000000140012970 f   yourgame:camera.obj
 0001:00011b00       ?calcPMat@Camera@math@yourgame@@AEAA?AU?$mat@$03$03M$0A@@glm@@MM@Z 0000000140012b00 f   yourgame:camera.obj
 0001:00011ca0       ?trafo@Camera@math@yourgame@@QEAAPEAVTrafo@23@XZ 0000000140012ca0 f   yourgame:camera.obj
 0001:00011cc0       ?setProjection@Camera@math@yourgame@@QEAAXW4Projection@23@@Z 0000000140012cc0 f   yourgame:camera.obj
 0001:00011ce0       ?setPerspective@Camera@math@yourgame@@QEAAXMMMM@Z 0000000140012ce0 f   yourgame:camera.obj
 0001:00011d20       ?setOrthographic@Camera@math@yourgame@@QEAAXMMMM@Z 0000000140012d20 f   yourgame:camera.obj
 0001:00011d60       ?setFovy@Camera@math@yourgame@@QEAAXM@Z 0000000140012d60 f   yourgame:camera.obj
 0001:00011d80       ?setHeight@Camera@math@yourgame@@QEAAXM@Z 0000000140012d80 f   yourgame:camera.obj
 0001:00011da0       ?setAspect@Camera@math@yourgame@@QEAAXM@Z 0000000140012da0 f   yourgame:camera.obj
 0001:00011dc0       ?setZNear@Camera@math@yourgame@@QEAAXM@Z 0000000140012dc0 f   yourgame:camera.obj
 0001:00011de0       ?setZFar@Camera@math@yourgame@@QEAAXM@Z 0000000140012de0 f   yourgame:camera.obj
 0001:00011e00       ?castRay@Camera@math@yourgame@@QEAAXMMAEAU?$vec@$02M$0A@@glm@@0@Z 0000000140012e00 f   yourgame:camera.obj
 0001:00012170       ?call@?$compute_inverse@$03$03M$0A@$0A@@detail@glm@@SA?AU?$mat@$03$03M$0A@@3@AEBU43@@Z 0000000140013170 f   yourgame:camera.obj
 0001:00012860       ?readFileFromPath@yourgame_internal@@YAHAEBV?$basic_string@DU?$char_traits@D@std@@V?$allocator@D@2@@std@@AEAV?$vector@EV?$allocator@E@std@@@3@@Z 0000000140013860 f   yourgame:file.cpp.obj
 0001:000129a0       ?writeFileToPath@yourgame_internal@@YAHAEBV?$basic_string@DU?$char_traits@D@std@@V?$allocator@D@2@@std@@PEBX_K@Z 00000001400139a0 f   yourgame:file.cpp.obj
 0001:00012a30       ?getSaveFilePath@file@yourgame@@YA?AV?$basic_string@DU?$char_traits@D@std@@V?$allocator@D@2@@std@@AEBV34@@Z 0000000140013a30 f   yourgame:file.cpp.obj
 0001:00012bd0       ?getProjectFilePath@file@yourgame@@YA?AV?$basic_string@DU?$char_traits@D@std@@V?$allocator@D@2@@std@@AEBV34@@Z 0000000140013bd0 f   yourgame:file.cpp.obj
 0001:00012d70       ?readSaveFile@file@yourgame@@YAHAEBV?$basic_string@DU?$char_traits@D@std@@V?$allocator@D@2@@std@@AEAV?$vector@EV?$allocator@E@std@@@4@@Z 0000000140013d70 f   yourgame:file.cpp.obj
 0001:00012f90       ?readProjectFile@file@yourgame@@YAHAEBV?$basic_string@DU?$char_traits@D@std@@V?$allocator@D@2@@std@@AEAV?$vector@EV?$allocator@E@std@@@4@@Z 0000000140013f90 f   yourgame:file.cpp.obj
 0001:000131b0       ?setProjectPath@file@yourgame@@YAXAEBV?$basic_string@DU?$char_traits@D@std@@V?$allocator@D@2@@std@@@Z 00000001400141b0 f   yourgame:file.cpp.obj
 0001:00013690       ?readFile@file@yourgame@@YAHAEBV?$basic_string@DU?$char_traits@D@std@@V?$allocator@D@2@@std@@AEAV?$vector@EV?$allocator@E@std@@@4@@Z 0000000140014690 f   yourgame:file.cpp.obj
 0001:00013ad0       ?getFileLocation@file@yourgame@@YA?AV?$basic_string@DU?$char_traits@D@std@@V?$allocator@D@2@@std@@AEBV34@@Z 0000000140014ad0 f   yourgame:file.cpp.obj
 0001:00013e20       ??0?$basic_regex@DV?$regex_traits@D@std@@@std@@QEAA@PEBDW4syntax_option_type@regex_constants@1@@Z 0000000140014e20 f   yourgame:file.cpp.obj
 0001:00013f50       ?str@?$sub_match@V?$_String_const_iterator@V?$_String_val@U?$_Simple_types@D@std@@@std@@@std@@@std@@QEBA?AV?$basic_string@DU?$char_traits@D@std@@V?$allocator@D@2@@2@XZ 0000000140014f50 f   yourgame:file.cpp.obj
 0001:00014090       ?getFileName@file@yourgame@@YA?AV?$basic_string@DU?$char_traits@D@std@@V?$allocator@D@2@@std@@AEBV34@@Z 0000000140015090 f   yourgame:file.cpp.obj
 0001:00014420       ?getFileExtension@file@yourgame@@YA?AV?$basic_string@DU?$char_traits@D@std@@V?$allocator@D@2@@std@@AEBV34@@Z 0000000140015420 f   yourgame:file.cpp.obj
 0001:000147b0       ?writeSaveFile@file@yourgame@@YAHAEBV?$basic_string@DU?$char_traits@D@std@@V?$allocator@D@2@@std@@PEBX_K@Z 00000001400157b0 f   yourgame:file.cpp.obj
 0001:00014a50       ?writeProjectFile@file@yourgame@@YAHAEBV?$basic_string@DU?$char_traits@D@std@@V?$allocator@D@2@@std@@PEBX_K@Z 0000000140015a50 f   yourgame:file.cpp.obj
 0001:00014cf0       ?writeFile@file@yourgame@@YAHAEBV?$basic_string@DU?$char_traits@D@std@@V?$allocator@D@2@@std@@PEBX_K@Z 0000000140015cf0 f   yourgame:file.cpp.obj
 0001:00015140       ??$_Getvals@_W@?$time_get@DV?$istreambuf_iterator@DU?$char_traits@D@std@@@std@@@std@@IEAAX_WAEBV_Locinfo@1@@Z 0000000140016140 f   yourgame:file.cpp.obj
 0001:00015330       ??$_Getvals@_W@?$time_get@_WV?$istreambuf_iterator@_WU?$char_traits@_W@std@@@std@@@std@@IEAAX_WAEBV_Locinfo@1@@Z 0000000140016330 f   yourgame:file.cpp.obj
 0001:00015520       ??$_Reallocate_for@V<lambda_1>@?0??assign@?$basic_string@DU?$char_traits@D@std@@V?$allocator@D@2@@std@@QEAAAEAV34@QEBD_K@Z@PEBD@?$basic_string@DU?$char_traits@D@std@@V?$allocator@D@2@@std@@AEAAAEAV01@_KV<lambda_1>@?0??assign@01@QEAAAEAV01@QEBD0@Z@PEBD@Z 0000000140016520 f   yourgame:file.cpp.obj
 0001:00015690       ??$_Resize_reallocate@U_Value_init_tag@std@@@?$vector@EV?$allocator@E@std@@@std@@AEAAX_KAEBU_Value_init_tag@1@@Z 0000000140016690 f   yourgame:file.cpp.obj
 0001:00015800       ??$_Reallocate_grow_by@V<lambda_1>@?0??append@?$basic_string@DU?$char_traits@D@std@@V?$allocator@D@2@@std@@QEAAAEAV34@QEBD_K@Z@PEBD_K@?$basic_string@DU?$char_traits@D@std@@V?$allocator@D@2@@std@@AEAAAEAV01@_KV<lambda_1>@?0??append@01@QEAAAEAV01@QEBD0@Z@PEBD_K@Z 0000000140016800 f   yourgame:file.cpp.obj
 0001:000159c0       ??$_Reset@PEBD@?$basic_regex@DV?$regex_traits@D@std@@@std@@AEAAXPEBD0W4syntax_option_type@regex_constants@1@@Z 00000001400169c0 f   yourgame:file.cpp.obj
 0001:00015ae0       ??$use_facet@V?$collate@D@std@@@std@@YAAEBV?$collate@D@0@AEBVlocale@0@@Z 0000000140016ae0 f   yourgame:file.cpp.obj
 0001:00015c50       ??$use_facet@V?$ctype@D@std@@@std@@YAAEBV?$ctype@D@0@AEBVlocale@0@@Z 0000000140016c50 f   yourgame:file.cpp.obj
 0001:00015dc0       ?_Getcat@?$collate@D@std@@SA_KPEAPEBVfacet@locale@2@PEBV42@@Z 0000000140016dc0 f   yourgame:file.cpp.obj
 0001:00015f40       ?_Throw_bad_cast@std@@YAXXZ 0000000140016f40 f   yourgame:file.cpp.obj
 0001:00015fb0       ?name@locale@std@@QEBA?AV?$basic_string@DU?$char_traits@D@std@@V?$allocator@D@2@@2@XZ 0000000140016fb0 f   yourgame:file.cpp.obj
 0001:00016100       ??_G?$collate@D@std@@MEAAPEAXI@Z 0000000140017100 f   yourgame:file.cpp.obj
 0001:00016160       ?do_compare@?$collate@D@std@@MEBAHPEBD000@Z 0000000140017160 f   yourgame:file.cpp.obj
 0001:000161b0       ?do_transform@?$collate@D@std@@MEBA?AV?$basic_string@DU?$char_traits@D@std@@V?$allocator@D@2@@2@PEBD0@Z 00000001400171b0 f   yourgame:file.cpp.obj
 0001:00016300       ?do_hash@?$collate@D@std@@MEBAJPEBD0@Z 0000000140017300 f   yourgame:file.cpp.obj
 0001:000163c0       ??$_Reallocate_grow_by@V<lambda_1>@?0??append@?$basic_string@DU?$char_traits@D@std@@V?$allocator@D@2@@std@@QEAAAEAV34@_KD@Z@_KD@?$basic_string@DU?$char_traits@D@std@@V?$allocator@D@2@@std@@AEAAAEAV01@_KV<lambda_1>@?0??append@01@QEAAAEAV01@0D@Z@_KD@Z 00000001400173c0 f   yourgame:file.cpp.obj
 0001:00016590       ??0bad_cast@std@@QEAA@AEBV01@@Z 0000000140017590 f   yourgame:file.cpp.obj
 0001:000165f0       ??_Gbad_cast@std@@UEAAPEAXI@Z 00000001400175f0 f   yourgame:file.cpp.obj
 0001:00016640       ??0?$_Parser@PEBDDV?$regex_traits@D@std@@@std@@QEAA@AEBV?$regex_traits@D@1@PEBD1W4syntax_option_type@regex_constants@1@@Z 0000000140017640 f   yourgame:file.cpp.obj
 0001:00016780       ?_Compile@?$_Parser@PEBDDV?$regex_traits@D@std@@@std@@QEAAPEAV_Root_node@2@XZ 0000000140017780 f   yourgame:file.cpp.obj
 0001:00016930       ?_Trans@?$_Parser@PEBDDV?$regex_traits@D@std@@@std@@AEAAXXZ 0000000140017930 f   yourgame:file.cpp.obj
 0001:00016b80       ?_Xlength@?$vector@IV?$allocator@I@std@@@std@@CAXXZ 0000000140017b80 f   yourgame:file.cpp.obj
 0001:00016bb0       ?_Xlen@?$vector@_NV?$allocator@_N@std@@@std@@QEBAXXZ 0000000140017bb0 f   yourgame:file.cpp.obj
 0001:00016be0       ??_G_Root_node@std@@UEAAPEAXI@Z 0000000140017be0 f   yourgame:file.cpp.obj
 0001:00016c20       ??_G_Node_base@std@@UEAAPEAXI@Z 0000000140017c20 f   yourgame:file.cpp.obj
 0001:00016c60       ?_Disjunction@?$_Parser@PEBDDV?$regex_traits@D@std@@@std@@AEAAXXZ 0000000140017c60 f   yourgame:file.cpp.obj
 0001:00017000       ?_Calculate_loop_simplicity@std@@YAXPEAV_Node_base@1@0PEAV_Node_rep@1@@Z 0000000140018000 f   yourgame:file.cpp.obj
 0001:00017120       ??_G_Node_capture@std@@UEAAPEAXI@Z 0000000140018120 f   yourgame:file.cpp.obj
 0001:00017160       ?_Alternative@?$_Parser@PEBDDV?$regex_traits@D@std@@@std@@AEAA_NXZ 0000000140018160 f   yourgame:file.cpp.obj
 0001:00017710       ?_AtomEscape@?$_Parser@PEBDDV?$regex_traits@D@std@@@std@@AEAAXXZ 0000000140018710 f   yourgame:file.cpp.obj
 0001:000178e0       ?_CharacterClass@?$_Parser@PEBDDV?$regex_traits@D@std@@@std@@AEAAXXZ 00000001400188e0 f   yourgame:file.cpp.obj
 0001:00017ac0       ?_Wrapped_disjunction@?$_Parser@PEBDDV?$regex_traits@D@std@@@std@@AEAA_NXZ 0000000140018ac0 f   yourgame:file.cpp.obj
 0001:00017f70       ?_Add_char@?$_Builder@PEBDDV?$regex_traits@D@std@@@std@@QEAAXD@Z 0000000140018f70 f   yourgame:file.cpp.obj
 0001:00018140       ?_Quantifier@?$_Parser@PEBDDV?$regex_traits@D@std@@@std@@AEAAXXZ 0000000140019140 f   yourgame:file.cpp.obj
 0001:000184b0       ?_Add_backreference@?$_Builder@PEBDDV?$regex_traits@D@std@@@std@@QEAAXI@Z 00000001400194b0 f   yourgame:file.cpp.obj
 0001:00018530       ?_CharacterEscape@?$_Parser@PEBDDV?$regex_traits@D@std@@@std@@AEAA_NXZ 0000000140019530 f   yourgame:file.cpp.obj
 0001:00018930       ?_CharacterClassEscape@?$_Parser@PEBDDV?$regex_traits@D@std@@@std@@AEAA_N_N@Z 0000000140019930 f   yourgame:file.cpp.obj
 0001:00018bd0       ?_Do_digits@?$_Parser@PEBDDV?$regex_traits@D@std@@@std@@AEAAHHH@Z 0000000140019bd0 f   yourgame:file.cpp.obj
 0001:00018d00       ??_G_Node_back@std@@UEAAPEAXI@Z 0000000140019d00 f   yourgame:file.cpp.obj
 0001:00018d40       ?_OctalDigits@?$_Parser@PEBDDV?$regex_traits@D@std@@@std@@AEAA_NXZ 0000000140019d40 f   yourgame:file.cpp.obj
 0001:00018ec0       ?_IsIdentityEscape@?$_Parser@PEBDDV?$regex_traits@D@std@@@std@@AEBA_NXZ 0000000140019ec0 f   yourgame:file.cpp.obj
 0001:00018f60       ??_G?$_Node_class@DV?$regex_traits@D@std@@@std@@UEAAPEAXI@Z 0000000140019f60 f   yourgame:file.cpp.obj
 0001:00018fa0       ??1?$_Node_class@DV?$regex_traits@D@std@@@std@@UEAA@XZ 0000000140019fa0 f   yourgame:file.cpp.obj
 0001:00019090       ?_ClassRanges@?$_Parser@PEBDDV?$regex_traits@D@std@@@std@@AEAAXXZ 000000014001a090 f   yourgame:file.cpp.obj
 0001:00019450       ?_Add_char_to_array@?$_Builder@PEBDDV?$regex_traits@D@std@@@std@@AEAAXD@Z 000000014001a450 f   yourgame:file.cpp.obj
 0001:00019500       ?_ClassAtom@?$_Parser@PEBDDV?$regex_traits@D@std@@@std@@AEAA?AW4_Prs_ret@2@XZ 000000014001a500 f   yourgame:file.cpp.obj
 0001:00019820       ?_Add_range@?$_Builder@PEBDDV?$regex_traits@D@std@@@std@@QEAAXDD@Z 000000014001a820 f   yourgame:file.cpp.obj
 0001:000199d0       ?_ClassEscape@?$_Parser@PEBDDV?$regex_traits@D@std@@@std@@AEAA?AW4_Prs_ret@2@_N@Z 000000014001a9d0 f   yourgame:file.cpp.obj
 0001:00019b60       ?_Do_ex_class@?$_Parser@PEBDDV?$regex_traits@D@std@@@std@@AEAAXW4_Meta_type@2@@Z 000000014001ab60 f   yourgame:file.cpp.obj
 0001:00019f40       ?_Add_equiv@?$_Builder@PEBDDV?$regex_traits@D@std@@@std@@QEAAXPEBD0_J@Z 000000014001af40 f   yourgame:file.cpp.obj
 0001:0001a160       ??$transform_primary@PEBD@?$_Regex_traits@D@std@@QEBA?AV?$basic_string@DU?$char_traits@D@std@@V?$allocator@D@2@@1@PEBD0@Z 000000014001b160 f   yourgame:file.cpp.obj
 0001:0001a380       ??$transform_primary@PEAD@?$_Regex_traits@D@std@@QEBA?AV?$basic_string@DU?$char_traits@D@std@@V?$allocator@D@2@@1@PEAD0@Z 000000014001b380 f   yourgame:file.cpp.obj
 0001:0001a5a0       ?_Xlength@?$vector@DV?$allocator@D@std@@@std@@CAXXZ 000000014001b5a0 f   yourgame:file.cpp.obj
 0001:0001a5d0       ?_Char_to_elts@?$_Builder@PEBDDV?$regex_traits@D@std@@@std@@AEAAXPEBD0_JPEAPEAU?$_Sequence@D@2@@Z 000000014001b5d0 f   yourgame:file.cpp.obj
 0001:0001a6f0       ??_G_Node_assert@std@@UEAAPEAXI@Z 000000014001b6f0 f   yourgame:file.cpp.obj
 0001:0001a770       ?resize@?$vector@_NV?$allocator@_N@std@@@std@@QEAAX_K_N@Z 000000014001b770 f   yourgame:file.cpp.obj
 0001:0001a970       ?erase@?$vector@_NV?$allocator@_N@std@@@std@@QEAA?AV?$_Vb_iterator@U?$_Wrap_alloc@V?$allocator@I@std@@@std@@@2@V?$_Vb_const_iterator@U?$_Wrap_alloc@V?$allocator@I@std@@@std@@@2@0@Z 000000014001b970 f   yourgame:file.cpp.obj
 0001:0001ab50       ?_Insert_x@?$vector@_NV?$allocator@_N@std@@@std@@QEAA_KV?$_Vb_const_iterator@U?$_Wrap_alloc@V?$allocator@I@std@@@std@@@2@_K@Z 000000014001bb50 f   yourgame:file.cpp.obj
 0001:0001ad60       ??$_Resize_reallocate@I@?$vector@IV?$allocator@I@std@@@std@@AEAAX_KAEBI@Z 000000014001bd60 f   yourgame:file.cpp.obj
 0001:0001b000       ??_G?$_Node_str@D@std@@UEAAPEAXI@Z 000000014001c000 f   yourgame:file.cpp.obj
 0001:0001b060       ?_Add_rep@?$_Builder@PEBDDV?$regex_traits@D@std@@@std@@QEAAXHH_N@Z 000000014001c060 f   yourgame:file.cpp.obj
 0001:0001b350       ??_G_Node_endif@std@@UEAAPEAXI@Z 000000014001c350 f   yourgame:file.cpp.obj
 0001:0001b390       ??_G_Node_if@std@@UEAAPEAXI@Z 000000014001c390 f   yourgame:file.cpp.obj
 0001:0001b440       ??_G_Node_end_group@std@@UEAAPEAXI@Z 000000014001c440 f   yourgame:file.cpp.obj
 0001:0001b480       ??_G_Node_end_rep@std@@UEAAPEAXI@Z 000000014001c480 f   yourgame:file.cpp.obj
 0001:0001b4c0       ??_G_Node_rep@std@@UEAAPEAXI@Z 000000014001c4c0 f   yourgame:file.cpp.obj
 0001:0001b500       ??$_Match@V?$allocator@V?$sub_match@V?$_String_const_iterator@V?$_String_val@U?$_Simple_types@D@std@@@std@@@std@@@std@@@std@@@?$_Matcher@V?$_String_const_iterator@V?$_String_val@U?$_Simple_types@D@std@@@std@@@std@@DV?$regex_traits@D@2@V12@@std@@QEAA_NPEAV?$match_results@V?$_String_const_iterator@V?$_String_val@U?$_Simple_types@D@std@@@std@@@std@@V?$allocator@V?$sub_match@V?$_String_const_iterator@V?$_String_val@U?$_Simple_types@D@std@@@std@@@std@@@std@@@2@@1@_N@Z 000000014001c500 f   yourgame:file.cpp.obj
 0001:0001b8c0       ??1?$_Matcher@V?$_String_const_iterator@V?$_String_val@U?$_Simple_types@D@std@@@std@@@std@@DV?$regex_traits@D@2@V12@@std@@QEAA@XZ 000000014001c8c0 f   yourgame:file.cpp.obj
 0001:0001ba70       ??$_Resize_reallocate@U_Value_init_tag@std@@@?$vector@U_Loop_vals_t@std@@V?$allocator@U_Loop_vals_t@std@@@2@@std@@AEAAX_KAEBU_Value_init_tag@1@@Z 000000014001ca70 f   yourgame:file.cpp.obj
 0001:0001bc60       ?_Xlength@?$vector@U_Loop_vals_t@std@@V?$allocator@U_Loop_vals_t@std@@@2@@std@@CAXXZ 000000014001cc60 f   yourgame:file.cpp.obj
 0001:0001bc90       ?_Match_pat@?$_Matcher@V?$_String_const_iterator@V?$_String_val@U?$_Simple_types@D@std@@@std@@@std@@DV?$regex_traits@D@2@V12@@std@@AEAA_NPEAV_Node_base@2@@Z 000000014001cc90 f   yourgame:file.cpp.obj
 0001:0001c720       ??$_Resize_reallocate@U_Value_init_tag@std@@@?$vector@V?$sub_match@V?$_String_const_iterator@V?$_String_val@U?$_Simple_types@D@std@@@std@@@std@@@std@@V?$allocator@V?$sub_match@V?$_String_const_iterator@V?$_String_val@U?$_Simple_types@D@std@@@std@@@std@@@std@@@2@@std@@AEAAX_KAEBU_Value_init_tag@1@@Z 000000014001d720 f   yourgame:file.cpp.obj
 0001:0001c960       ?_Xlength@?$vector@V?$sub_match@V?$_String_const_iterator@V?$_String_val@U?$_Simple_types@D@std@@@std@@@std@@@std@@V?$allocator@V?$sub_match@V?$_String_const_iterator@V?$_String_val@U?$_Simple_types@D@std@@@std@@@std@@@std@@@2@@std@@CAXXZ 000000014001d960 f   yourgame:file.cpp.obj
 0001:0001c990       ??$_Resize_reallocate@U_Value_init_tag@std@@@?$vector@U_Grp_t@?$_Tgt_state_t@V?$_String_const_iterator@V?$_String_val@U?$_Simple_types@D@std@@@std@@@std@@@std@@V?$allocator@U_Grp_t@?$_Tgt_state_t@V?$_String_const_iterator@V?$_String_val@U?$_Simple_types@D@std@@@std@@@std@@@std@@@3@@std@@AEAAX_KAEBU_Value_init_tag@1@@Z 000000014001d990 f   yourgame:file.cpp.obj
 0001:0001cb80       ?_Xlength@?$vector@U_Grp_t@?$_Tgt_state_t@V?$_String_const_iterator@V?$_String_val@U?$_Simple_types@D@std@@@std@@@std@@@std@@V?$allocator@U_Grp_t@?$_Tgt_state_t@V?$_String_const_iterator@V?$_String_val@U?$_Simple_types@D@std@@@std@@@std@@@std@@@3@@std@@CAXXZ 000000014001db80 f   yourgame:file.cpp.obj
 0001:0001cbb0       ??$_Compare@V?$_String_const_iterator@V?$_String_val@U?$_Simple_types@D@std@@@std@@@std@@PEBDV?$regex_traits@D@2@@std@@YA?AV?$_String_const_iterator@V?$_String_val@U?$_Simple_types@D@std@@@std@@@0@V10@0PEBD1AEBV?$regex_traits@D@0@W4syntax_option_type@regex_constants@0@@Z 000000014001dbb0 f   yourgame:file.cpp.obj
 0001:0001cd60       ?_Do_class@?$_Matcher@V?$_String_const_iterator@V?$_String_val@U?$_Simple_types@D@std@@@std@@@std@@DV?$regex_traits@D@2@V12@@std@@AEAA_NPEAV_Node_base@2@@Z 000000014001dd60 f   yourgame:file.cpp.obj
 0001:0001cfc0       ??$_Compare@V?$_String_const_iterator@V?$_String_val@U?$_Simple_types@D@std@@@std@@@std@@V12@V?$regex_traits@D@2@@std@@YA?AV?$_String_const_iterator@V?$_String_val@U?$_Simple_types@D@std@@@std@@@0@V10@000AEBV?$regex_traits@D@0@W4syntax_option_type@regex_constants@0@@Z 000000014001dfc0 f   yourgame:file.cpp.obj
 0001:0001d170       ?_Do_if@?$_Matcher@V?$_String_const_iterator@V?$_String_val@U?$_Simple_types@D@std@@@std@@@std@@DV?$regex_traits@D@2@V12@@std@@AEAA_NPEAV_Node_if@2@@Z 000000014001e170 f   yourgame:file.cpp.obj
 0001:0001d950       ?_Do_rep@?$_Matcher@V?$_String_const_iterator@V?$_String_val@U?$_Simple_types@D@std@@@std@@@std@@DV?$regex_traits@D@2@V12@@std@@AEAA_NPEAV_Node_rep@2@_NH@Z 000000014001e950 f   yourgame:file.cpp.obj
 0001:0001e140       ??4?$_Tgt_state_t@V?$_String_const_iterator@V?$_String_val@U?$_Simple_types@D@std@@@std@@@std@@@std@@QEAAAEAV01@AEBV01@@Z 000000014001f140 f   yourgame:file.cpp.obj
 0001:0001e300       ??R?$_Cmp_collate@V?$regex_traits@D@std@@@std@@QEAA_NDD@Z 000000014001f300 f   yourgame:file.cpp.obj
 0001:0001e460       ?_Clear_and_reserve_geometric@?$vector@IV?$allocator@I@std@@@std@@AEAAX_K@Z 000000014001f460 f   yourgame:file.cpp.obj
 0001:0001e5a0       ??0?$_Tgt_state_t@V?$_String_const_iterator@V?$_String_val@U?$_Simple_types@D@std@@@std@@@std@@@std@@QEAA@AEBV01@@Z 000000014001f5a0 f   yourgame:file.cpp.obj
 0001:0001e740       ?_Do_rep0@?$_Matcher@V?$_String_const_iterator@V?$_String_val@U?$_Simple_types@D@std@@@std@@@std@@DV?$regex_traits@D@2@V12@@std@@AEAA_NPEAV_Node_rep@2@_N@Z 000000014001f740 f   yourgame:file.cpp.obj
 0001:0001ed20       ?_Clear_and_reserve_geometric@?$vector@U_Grp_t@?$_Tgt_state_t@V?$_String_const_iterator@V?$_String_val@U?$_Simple_types@D@std@@@std@@@std@@@std@@V?$allocator@U_Grp_t@?$_Tgt_state_t@V?$_String_const_iterator@V?$_String_val@U?$_Simple_types@D@std@@@std@@@std@@@std@@@3@@std@@AEAAX_K@Z 000000014001fd20 f   yourgame:file.cpp.obj
 0001:0001eee0       ?loadTexture@gl@yourgame@@YAPEAVTexture@12@AEBV?$basic_string@DU?$char_traits@D@std@@V?$allocator@D@2@@std@@AEBUTextureConfig@12@@Z 000000014001fee0 f   yourgame:loading.obj
 0001:0001f2e0       ?loadTextureAtlasCrunch@gl@yourgame@@YAPEAVTextureAtlas@12@AEBV?$basic_string@DU?$char_traits@D@std@@V?$allocator@D@2@@std@@AEBUTextureConfig@12@@Z 00000001400202e0 f   yourgame:loading.obj
 0001:00020360       ??$parse@AEAV?$vector@EV?$allocator@E@std@@@std@@@?$basic_json@Vmap@std@@Vvector@2@V?$basic_string@DU?$char_traits@D@std@@V?$allocator@D@2@@2@_N_J_KNVallocator@2@Uadl_serializer@nlohmann@@V?$vector@EV?$allocator@E@std@@@2@@nlohmann@@SA?AV01@AEAV?$vector@EV?$allocator@E@std@@@std@@V?$function@$$A6A_NHW4parse_event_t@detail@nlohmann@@AEAV?$basic_json@Vmap@std@@Vvector@2@V?$basic_string@DU?$char_traits@D@std@@V?$allocator@D@2@@2@_N_J_KNVallocator@2@Uadl_serializer@nlohmann@@V?$vector@EV?$allocator@E@std@@@2@@3@@Z@3@_N@Z 0000000140021360 f   yourgame:loading.obj
 0001:00020550       ??$?A$$CBD@?$basic_json@Vmap@std@@Vvector@2@V?$basic_string@DU?$char_traits@D@std@@V?$allocator@D@2@@2@_N_J_KNVallocator@2@Uadl_serializer@nlohmann@@V?$vector@EV?$allocator@E@std@@@2@@nlohmann@@QEAAAEAV01@PEBD@Z 0000000140021550 f   yourgame:loading.obj
 0001:00020770       ??$?HDU?$char_traits@D@std@@V?$allocator@D@1@@std@@YA?AV?$basic_string@DU?$char_traits@D@std@@V?$allocator@D@2@@0@$$QEAV10@QEBD@Z 0000000140021770 f   yourgame:loading.obj
 0001:00020830       ??1?$basic_string@DU?$char_traits@D@std@@V?$allocator@D@2@@std@@QEAA@XZ 0000000140021830 f   yourgame:loading.obj
 0001:000208b0       ?loadTextureAtlasGrid@gl@yourgame@@YAPEAVTextureAtlas@12@AEBV?$basic_string@DU?$char_traits@D@std@@V?$allocator@D@2@@std@@HHAEBUTextureConfig@12@@Z 00000001400218b0 f   yourgame:loading.obj
 0001:00020ae0       ?loadCubemap@gl@yourgame@@YAPEAVTexture@12@AEBV?$vector@V?$basic_string@DU?$char_traits@D@std@@V?$allocator@D@2@@std@@V?$allocator@V?$basic_string@DU?$char_traits@D@std@@V?$allocator@D@2@@std@@@2@@std@@AEBUTextureConfig@12@@Z 0000000140021ae0 f   yourgame:loading.obj
 0001:00021120       ?loadShader@gl@yourgame@@YAPEAVShader@12@AEBV?$vector@U?$pair@IV?$basic_string@DU?$char_traits@D@std@@V?$allocator@D@2@@std@@@std@@V?$allocator@U?$pair@IV?$basic_string@DU?$char_traits@D@std@@V?$allocator@D@2@@std@@@std@@@2@@std@@00@Z 0000000140022120 f   yourgame:loading.obj
 0001:00021740       ?loadShaderFromStrings@gl@yourgame@@YAPEAVShader@12@AEBV?$vector@U?$pair@IV?$basic_string@DU?$char_traits@D@std@@V?$allocator@D@2@@std@@@std@@V?$allocator@U?$pair@IV?$basic_string@DU?$char_traits@D@std@@V?$allocator@D@2@@std@@@std@@@2@@std@@00@Z 0000000140022740 f   yourgame:loading.obj
 0001:00021d50       ??0?$basic_string@DU?$char_traits@D@std@@V?$allocator@D@2@@std@@QEAA@QEBD@Z 0000000140022d50 f   yourgame:loading.obj
 0001:00021e80       ?loadGeometry@gl@yourgame@@YAPEAVGeometry@12@AEBV?$basic_string@DU?$char_traits@D@std@@V?$allocator@D@2@@std@@0@Z 0000000140022e80 f   yourgame:loading.obj
 0001:00024ac0       ??$error@$$BY0CL@D@log@yourgame@@YAXAEAY0CL@$$CBD@Z 0000000140025ac0 f   yourgame:loading.obj
 0001:00024d00       ??0attrib_t@tinyobj@@QEAA@AEBU01@@Z 0000000140025d00 f   yourgame:loading.obj
 0001:000250f0       ??1attrib_t@tinyobj@@QEAA@XZ 00000001400260f0 f   yourgame:loading.obj
 0001:000252d0       ??1ObjReader@tinyobj@@QEAA@XZ 00000001400262d0 f   yourgame:loading.obj
 0001:00025500       ??$_Erase_tree@V?$allocator@U?$_Tree_node@U?$pair@$$CBV?$array@H$03@std@@H@std@@PEAX@std@@@std@@@?$_Tree_val@U?$_Tree_simple_types@U?$pair@$$CBV?$array@H$03@std@@H@std@@@std@@@std@@QEAAXAEAV?$allocator@U?$_Tree_node@U?$pair@$$CBV?$array@H$03@std@@H@std@@PEAX@std@@@1@PEAU?$_Tree_node@U?$pair@$$CBV?$array@H$03@std@@H@std@@PEAX@1@@Z 0000000140026500 f   yourgame:loading.obj
 0001:00025580       ??1shape_t@tinyobj@@QEAA@XZ 0000000140026580 f   yourgame:loading.obj
 0001:00025700       ??1mesh_t@tinyobj@@QEAA@XZ 0000000140026700 f   yourgame:loading.obj
 0001:000258e0       ??1tag_t@tinyobj@@QEAA@XZ  00000001400268e0 f   yourgame:loading.obj
 0001:00025ab0       ??1material_t@tinyobj@@QEAA@XZ 0000000140026ab0 f   yourgame:loading.obj
 0001:00026500       ??$_Erase_tree@V?$allocator@U?$_Tree_node@U?$pair@$$CBV?$basic_string@DU?$char_traits@D@std@@V?$allocator@D@2@@std@@V12@@std@@PEAX@std@@@std@@@?$_Tree_val@U?$_Tree_simple_types@U?$pair@$$CBV?$basic_string@DU?$char_traits@D@std@@V?$allocator@D@2@@std@@V12@@std@@@std@@@std@@QEAAXAEAV?$allocator@U?$_Tree_node@U?$pair@$$CBV?$basic_string@DU?$char_traits@D@std@@V?$allocator@D@2@@std@@V12@@std@@PEAX@std@@@1@PEAU?$_Tree_node@U?$pair@$$CBV?$basic_string@DU?$char_traits@D@std@@V?$allocator@D@2@@std@@V12@@std@@PEAX@1@@Z 0000000140027500 f   yourgame:loading.obj
 0001:00026580       ??$_Freenode@V?$allocator@U?$_Tree_node@U?$pair@$$CBV?$basic_string@DU?$char_traits@D@std@@V?$allocator@D@2@@std@@V12@@std@@PEAX@std@@@std@@@?$_Tree_node@U?$pair@$$CBV?$basic_string@DU?$char_traits@D@std@@V?$allocator@D@2@@std@@V12@@std@@PEAX@std@@SAXAEAV?$allocator@U?$_Tree_node@U?$pair@$$CBV?$basic_string@DU?$char_traits@D@std@@V?$allocator@D@2@@std@@V12@@std@@PEAX@std@@@1@PEAU01@@Z 0000000140027580 f   yourgame:loading.obj
 0001:00026640       ??0?$basic_string@DU?$char_traits@D@std@@V?$allocator@D@2@@std@@QEAA@U_String_constructor_concat_tag@1@AEAV01@1@Z 0000000140027640 f   yourgame:loading.obj
 0001:00026860       ?destroy@json_value@?$basic_json@Vmap@std@@Vvector@2@V?$basic_string@DU?$char_traits@D@std@@V?$allocator@D@2@@2@_N_J_KNVallocator@2@Uadl_serializer@nlohmann@@V?$vector@EV?$allocator@E@std@@@2@@nlohmann@@QEAAXW4value_t@detail@3@@Z 0000000140027860 f   yourgame:loading.obj
 0001:00026f10       ?_Xlength@?$vector@V?$basic_json@Vmap@std@@Vvector@2@V?$basic_string@DU?$char_traits@D@std@@V?$allocator@D@2@@2@_N_J_KNVallocator@2@Uadl_serializer@nlohmann@@V?$vector@EV?$allocator@E@std@@@2@@nlohmann@@V?$allocator@V?$basic_json@Vmap@std@@Vvector@2@V?$basic_string@DU?$char_traits@D@std@@V?$allocator@D@2@@2@_N_J_KNVallocator@2@Uadl_serializer@nlohmann@@V?$vector@EV?$allocator@E@std@@@2@@nlohmann@@@std@@@std@@CAXXZ 0000000140027f10 f   yourgame:loading.obj
 0001:00026f40       ?_Reallocate_exactly@?$vector@V?$basic_json@Vmap@std@@Vvector@2@V?$basic_string@DU?$char_traits@D@std@@V?$allocator@D@2@@2@_N_J_KNVallocator@2@Uadl_serializer@nlohmann@@V?$vector@EV?$allocator@E@std@@@2@@nlohmann@@V?$allocator@V?$basic_json@Vmap@std@@Vvector@2@V?$basic_string@DU?$char_traits@D@std@@V?$allocator@D@2@@2@_N_J_KNVallocator@2@Uadl_serializer@nlohmann@@V?$vector@EV?$allocator@E@std@@@2@@nlohmann@@@std@@@std@@AEAAX_K@Z 0000000140027f40 f   yourgame:loading.obj
 0001:000270e0       ??$_Emplace_reallocate@V?$basic_json@Vmap@std@@Vvector@2@V?$basic_string@DU?$char_traits@D@std@@V?$allocator@D@2@@2@_N_J_KNVallocator@2@Uadl_serializer@nlohmann@@V?$vector@EV?$allocator@E@std@@@2@@nlohmann@@@?$vector@V?$basic_json@Vmap@std@@Vvector@2@V?$basic_string@DU?$char_traits@D@std@@V?$allocator@D@2@@2@_N_J_KNVallocator@2@Uadl_serializer@nlohmann@@V?$vector@EV?$allocator@E@std@@@2@@nlohmann@@V?$allocator@V?$basic_json@Vmap@std@@Vvector@2@V?$basic_string@DU?$char_traits@D@std@@V?$allocator@D@2@@2@_N_J_KNVallocator@2@Uadl_serializer@nlohmann@@V?$vector@EV?$allocator@E@std@@@2@@nlohmann@@@std@@@std@@AEAAPEAV?$basic_json@Vmap@std@@Vvector@2@V?$basic_string@DU?$char_traits@D@std@@V?$allocator@D@2@@2@_N_J_KNVallocator@2@Uadl_serializer@nlohmann@@V?$vector@EV?$allocator@E@std@@@2@@nlohmann@@QEAV23@$$QEAV23@@Z 00000001400280e0 f   yourgame:loading.obj
 0001:00027380       ??$_Erase_tree@V?$allocator@U?$_Tree_node@U?$pair@$$CBV?$basic_string@DU?$char_traits@D@std@@V?$allocator@D@2@@std@@V?$basic_json@Vmap@std@@Vvector@2@V?$basic_string@DU?$char_traits@D@std@@V?$allocator@D@2@@2@_N_J_KNVallocator@2@Uadl_serializer@nlohmann@@V?$vector@EV?$allocator@E@std@@@2@@nlohmann@@@std@@PEAX@std@@@std@@@?$_Tree_val@U?$_Tree_simple_types@U?$pair@$$CBV?$basic_string@DU?$char_traits@D@std@@V?$allocator@D@2@@std@@V?$basic_json@Vmap@std@@Vvector@2@V?$basic_string@DU?$char_traits@D@std@@V?$allocator@D@2@@2@_N_J_KNVallocator@2@Uadl_serializer@nlohmann@@V?$vector@EV?$allocator@E@std@@@2@@nlohmann@@@std@@@std@@@std@@QEAAXAEAV?$allocator@U?$_Tree_node@U?$pair@$$CBV?$basic_string@DU?$char_traits@D@std@@V?$allocator@D@2@@std@@V?$basic_json@Vmap@std@@Vvector@2@V?$basic_string@DU?$char_traits@D@std@@V?$allocator@D@2@@2@_N_J_KNVallocator@2@Uadl_serializer@nlohmann@@V?$vector@EV?$allocator@E@std@@@2@@nlohmann@@@std@@PEAX@std@@@1@PEAU?$_Tree_node@U?$pair@$$CBV?$basic_string@DU?$char_traits@D@std@@V?$allocator@D@2@@std@@V?$basic_json@Vmap@std@@Vvector@2@V?$basic_string@DU?$char_traits@D@std@@V?$allocator@D@2@@2@_N_J_KNVallocator@2@Uadl_serializer@nlohmann@@V?$vector@EV?$allocator@E@std@@@2@@nlohmann@@@std@@PEAX@1@@Z 0000000140028380 f   yourgame:loading.obj
 0001:00027460       ?_Xlength@?$vector@U?$pair@IH@std@@V?$allocator@U?$pair@IH@std@@@2@@std@@CAXXZ 0000000140028460 f   yourgame:loading.obj
 0001:00027490       ??$_Insert_range@PEBU?$pair@IH@std@@@?$vector@U?$pair@IH@std@@V?$allocator@U?$pair@IH@std@@@2@@std@@AEAAXV?$_Vector_const_iterator@V?$_Vector_val@U?$_Simple_types@U?$pair@IH@std@@@std@@@std@@@1@PEBU?$pair@IH@1@1Uforward_iterator_tag@1@@Z 0000000140028490 f   yourgame:loading.obj
 0001:000277a0       ??$log_@V?$basic_string@DU?$char_traits@D@std@@V?$allocator@D@2@@std@@$$V@Logger@el@@AEAAXW4Level@1@HPEBDAEBV?$basic_string@DU?$char_traits@D@std@@V?$allocator@D@2@@std@@@Z 00000001400287a0 f   yourgame:loading.obj
 0001:00027940       ??$log_@PEBD@Logger@el@@AEAAXW4Level@1@HAEBQEBD@Z 0000000140028940 f   yourgame:loading.obj
 0001:00027cf0       ??$?6U?$char_traits@D@std@@@std@@YAAEAV?$basic_ostream@DU?$char_traits@D@std@@@0@AEAV10@PEBD@Z 0000000140028cf0 f   yourgame:loading.obj
 0001:00027f10       ??1Writer@base@el@@UEAA@XZ 0000000140028f10 f   yourgame:loading.obj
 0001:00028020       ??_GWriter@base@el@@UEAAPEAXI@Z 0000000140029020 f   yourgame:loading.obj
 0001:00028060       ?_Tidy@?$basic_stringbuf@DU?$char_traits@D@std@@V?$allocator@D@2@@std@@IEAAXXZ 0000000140029060 f   yourgame:loading.obj
 0001:00028140       ?_Init@?$basic_stringbuf@DU?$char_traits@D@std@@V?$allocator@D@2@@std@@IEAAXPEBD_KH@Z 0000000140029140 f   yourgame:loading.obj
 0001:00028290       ??$?6U?$char_traits@D@std@@@std@@YAAEAV?$basic_ostream@DU?$char_traits@D@std@@@0@AEAV10@D@Z 0000000140029290 f   yourgame:loading.obj
 0001:00028470       ??0json_value@?$basic_json@Vmap@std@@Vvector@2@V?$basic_string@DU?$char_traits@D@std@@V?$allocator@D@2@@2@_N_J_KNVallocator@2@Uadl_serializer@nlohmann@@V?$vector@EV?$allocator@E@std@@@2@@nlohmann@@QEAA@W4value_t@detail@2@@Z 0000000140029470 f   yourgame:loading.obj
 0001:00028590       ??$create@V?$basic_string@DU?$char_traits@D@std@@V?$allocator@D@2@@std@@AEAY00$$CBD@?$basic_json@Vmap@std@@Vvector@2@V?$basic_string@DU?$char_traits@D@std@@V?$allocator@D@2@@2@_N_J_KNVallocator@2@Uadl_serializer@nlohmann@@V?$vector@EV?$allocator@E@std@@@2@@nlohmann@@CAPEAV?$basic_string@DU?$char_traits@D@std@@V?$allocator@D@2@@std@@AEAY00$$CBD@Z 0000000140029590 f   yourgame:loading.obj
 0001:000286b0       ??$parser@V?$iterator_input_adapter@V?$_Vector_const_iterator@V?$_Vector_val@U?$_Simple_types@E@std@@@std@@@std@@@detail@nlohmann@@@?$basic_json@Vmap@std@@Vvector@2@V?$basic_string@DU?$char_traits@D@std@@V?$allocator@D@2@@2@_N_J_KNVallocator@2@Uadl_serializer@nlohmann@@V?$vector@EV?$allocator@E@std@@@2@@nlohmann@@CA?AV?$parser@V?$basic_json@Vmap@std@@Vvector@2@V?$basic_string@DU?$char_traits@D@std@@V?$allocator@D@2@@2@_N_J_KNVallocator@2@Uadl_serializer@nlohmann@@V?$vector@EV?$allocator@E@std@@@2@@nlohmann@@V?$iterator_input_adapter@V?$_Vector_const_iterator@V?$_Vector_val@U?$_Simple_types@E@std@@@std@@@std@@@detail@2@@detail@1@V?$iterator_input_adapter@V?$_Vector_const_iterator@V?$_Vector_val@U?$_Simple_types@E@std@@@std@@@std@@@31@V?$function@$$A6A_NHW4parse_event_t@detail@nlohmann@@AEAV?$basic_json@Vmap@std@@Vvector@2@V?$basic_string@DU?$char_traits@D@std@@V?$allocator@D@2@@2@_N_J_KNVallocator@2@Uadl_serializer@nlohmann@@V?$vector@EV?$allocator@E@std@@@2@@3@@Z@std@@_N@Z 00000001400296b0 f   yourgame:loading.obj
 0001:00028880       ?parse@?$parser@V?$basic_json@Vmap@std@@Vvector@2@V?$basic_string@DU?$char_traits@D@std@@V?$allocator@D@2@@2@_N_J_KNVallocator@2@Uadl_serializer@nlohmann@@V?$vector@EV?$allocator@E@std@@@2@@nlohmann@@V?$iterator_input_adapter@V?$_Vector_const_iterator@V?$_Vector_val@U?$_Simple_types@E@std@@@std@@@std@@@detail@2@@detail@nlohmann@@QEAAX_NAEAV?$basic_json@Vmap@std@@Vvector@2@V?$basic_string@DU?$char_traits@D@std@@V?$allocator@D@2@@2@_N_J_KNVallocator@2@Uadl_serializer@nlohmann@@V?$vector@EV?$allocator@E@std@@@2@@3@@Z 0000000140029880 f   yourgame:loading.obj
 0001:00029090       ?scan@?$lexer@V?$basic_json@Vmap@std@@Vvector@2@V?$basic_string@DU?$char_traits@D@std@@V?$allocator@D@2@@2@_N_J_KNVallocator@2@Uadl_serializer@nlohmann@@V?$vector@EV?$allocator@E@std@@@2@@nlohmann@@V?$iterator_input_adapter@V?$_Vector_const_iterator@V?$_Vector_val@U?$_Simple_types@E@std@@@std@@@std@@@detail@2@@detail@nlohmann@@QEAA?AW4token_type@?$lexer_base@V?$basic_json@Vmap@std@@Vvector@2@V?$basic_string@DU?$char_traits@D@std@@V?$allocator@D@2@@2@_N_J_KNVallocator@2@Uadl_serializer@nlohmann@@V?$vector@EV?$allocator@E@std@@@2@@nlohmann@@@23@XZ 000000014002a090 f   yourgame:loading.obj
 0001:000296a0       ?skip_bom@?$lexer@V?$basic_json@Vmap@std@@Vvector@2@V?$basic_string@DU?$char_traits@D@std@@V?$allocator@D@2@@2@_N_J_KNVallocator@2@Uadl_serializer@nlohmann@@V?$vector@EV?$allocator@E@std@@@2@@nlohmann@@V?$iterator_input_adapter@V?$_Vector_const_iterator@V?$_Vector_val@U?$_Simple_types@E@std@@@std@@@std@@@detail@2@@detail@nlohmann@@QEAA_NXZ 000000014002a6a0 f   yourgame:loading.obj
 0001:00029900       ?scan_string@?$lexer@V?$basic_json@Vmap@std@@Vvector@2@V?$basic_string@DU?$char_traits@D@std@@V?$allocator@D@2@@2@_N_J_KNVallocator@2@Uadl_serializer@nlohmann@@V?$vector@EV?$allocator@E@std@@@2@@nlohmann@@V?$iterator_input_adapter@V?$_Vector_const_iterator@V?$_Vector_val@U?$_Simple_types@E@std@@@std@@@std@@@detail@2@@detail@nlohmann@@AEAA?AW4token_type@?$lexer_base@V?$basic_json@Vmap@std@@Vvector@2@V?$basic_string@DU?$char_traits@D@std@@V?$allocator@D@2@@2@_N_J_KNVallocator@2@Uadl_serializer@nlohmann@@V?$vector@EV?$allocator@E@std@@@2@@nlohmann@@@23@XZ 000000014002a900 f   yourgame:loading.obj
 0001:0002a810       ?scan_number@?$lexer@V?$basic_json@Vmap@std@@Vvector@2@V?$basic_string@DU?$char_traits@D@std@@V?$allocator@D@2@@2@_N_J_KNVallocator@2@Uadl_serializer@nlohmann@@V?$vector@EV?$allocator@E@std@@@2@@nlohmann@@V?$iterator_input_adapter@V?$_Vector_const_iterator@V?$_Vector_val@U?$_Simple_types@E@std@@@std@@@std@@@detail@2@@detail@nlohmann@@AEAA?AW4token_type@?$lexer_base@V?$basic_json@Vmap@std@@Vvector@2@V?$basic_string@DU?$char_traits@D@std@@V?$allocator@D@2@@2@_N_J_KNVallocator@2@Uadl_serializer@nlohmann@@V?$vector@EV?$allocator@E@std@@@2@@nlohmann@@@23@XZ 000000014002b810 f   yourgame:loading.obj
 0001:0002b230       ??$_Emplace_reallocate@E@?$vector@EV?$allocator@E@std@@@std@@AEAAPEAEQEAE$$QEAE@Z 000000014002c230 f   yourgame:loading.obj
 0001:0002b3d0       ?add@?$lexer@V?$basic_json@Vmap@std@@Vvector@2@V?$basic_string@DU?$char_traits@D@std@@V?$allocator@D@2@@2@_N_J_KNVallocator@2@Uadl_serializer@nlohmann@@V?$vector@EV?$allocator@E@std@@@2@@nlohmann@@V?$iterator_input_adapter@V?$_Vector_const_iterator@V?$_Vector_val@U?$_Simple_types@E@std@@@std@@@std@@@detail@2@@detail@nlohmann@@AEAAXJ@Z 000000014002c3d0 f   yourgame:loading.obj
 0001:0002b430       ?get_codepoint@?$lexer@V?$basic_json@Vmap@std@@Vvector@2@V?$basic_string@DU?$char_traits@D@std@@V?$allocator@D@2@@2@_N_J_KNVallocator@2@Uadl_serializer@nlohmann@@V?$vector@EV?$allocator@E@std@@@2@@nlohmann@@V?$iterator_input_adapter@V?$_Vector_const_iterator@V?$_Vector_val@U?$_Simple_types@E@std@@@std@@@std@@@detail@2@@detail@nlohmann@@AEAAHXZ 000000014002c430 f   yourgame:loading.obj
 0001:0002b5c0       ?next_byte_in_range@?$lexer@V?$basic_json@Vmap@std@@Vvector@2@V?$basic_string@DU?$char_traits@D@std@@V?$allocator@D@2@@2@_N_J_KNVallocator@2@Uadl_serializer@nlohmann@@V?$vector@EV?$allocator@E@std@@@2@@nlohmann@@V?$iterator_input_adapter@V?$_Vector_const_iterator@V?$_Vector_val@U?$_Simple_types@E@std@@@std@@@std@@@detail@2@@detail@nlohmann@@AEAA_NV?$initializer_list@J@std@@@Z 000000014002c5c0 f   yourgame:loading.obj
 0001:0002b7b0       ??$_Reallocate_grow_by@V<lambda_1>@?0??push_back@?$basic_string@DU?$char_traits@D@std@@V?$allocator@D@2@@std@@QEAAXD@Z@D@?$basic_string@DU?$char_traits@D@std@@V?$allocator@D@2@@std@@AEAAAEAV01@_KV<lambda_1>@?0??push_back@01@QEAAXD@Z@D@Z 000000014002c7b0 f   yourgame:loading.obj
 0001:0002b960       ??0?$json_sax_dom_callback_parser@V?$basic_json@Vmap@std@@Vvector@2@V?$basic_string@DU?$char_traits@D@std@@V?$allocator@D@2@@2@_N_J_KNVallocator@2@Uadl_serializer@nlohmann@@V?$vector@EV?$allocator@E@std@@@2@@nlohmann@@@detail@nlohmann@@QEAA@AEAV?$basic_json@Vmap@std@@Vvector@2@V?$basic_string@DU?$char_traits@D@std@@V?$allocator@D@2@@2@_N_J_KNVallocator@2@Uadl_serializer@nlohmann@@V?$vector@EV?$allocator@E@std@@@2@@2@V?$function@$$A6A_NHW4parse_event_t@detail@nlohmann@@AEAV?$basic_json@Vmap@std@@Vvector@2@V?$basic_string@DU?$char_traits@D@std@@V?$allocator@D@2@@2@_N_J_KNVallocator@2@Uadl_serializer@nlohmann@@V?$vector@EV?$allocator@E@std@@@2@@3@@Z@std@@_N@Z 000000014002c960 f   yourgame:loading.obj
 0001:0002bb20       ??$sax_parse_internal@V?$json_sax_dom_callback_parser@V?$basic_json@Vmap@std@@Vvector@2@V?$basic_string@DU?$char_traits@D@std@@V?$allocator@D@2@@2@_N_J_KNVallocator@2@Uadl_serializer@nlohmann@@V?$vector@EV?$allocator@E@std@@@2@@nlohmann@@@detail@nlohmann@@@?$parser@V?$basic_json@Vmap@std@@Vvector@2@V?$basic_string@DU?$char_traits@D@std@@V?$allocator@D@2@@2@_N_J_KNVallocator@2@Uadl_serializer@nlohmann@@V?$vector@EV?$allocator@E@std@@@2@@nlohmann@@V?$iterator_input_adapter@V?$_Vector_const_iterator@V?$_Vector_val@U?$_Simple_types@E@std@@@std@@@std@@@detail@2@@detail@nlohmann@@AEAA_NPEAV?$json_sax_dom_callback_parser@V?$basic_json@Vmap@std@@Vvector@2@V?$basic_string@DU?$char_traits@D@std@@V?$allocator@D@2@@2@_N_J_KNVallocator@2@Uadl_serializer@nlohmann@@V?$vector@EV?$allocator@E@std@@@2@@nlohmann@@@12@@Z 000000014002cb20 f   yourgame:loading.obj
 0001:0002ccc0       ?parse_error@?$json_sax_dom_callback_parser@V?$basic_json@Vmap@std@@Vvector@2@V?$basic_string@DU?$char_traits@D@std@@V?$allocator@D@2@@2@_N_J_KNVallocator@2@Uadl_serializer@nlohmann@@V?$vector@EV?$allocator@E@std@@@2@@nlohmann@@@detail@nlohmann@@QEAA_N_KAEBV?$basic_string@DU?$char_traits@D@std@@V?$allocator@D@2@@std@@AEBVexception@23@@Z 000000014002dcc0 f   yourgame:loading.obj
 0001:0002cd50       ?create@parse_error@detail@nlohmann@@SA?AV123@HAEBUposition_t@23@AEBV?$basic_string@DU?$char_traits@D@std@@V?$allocator@D@2@@std@@@Z 000000014002dd50 f   yourgame:loading.obj
 0001:0002d390       ?exception_message@?$parser@V?$basic_json@Vmap@std@@Vvector@2@V?$basic_string@DU?$char_traits@D@std@@V?$allocator@D@2@@2@_N_J_KNVallocator@2@Uadl_serializer@nlohmann@@V?$vector@EV?$allocator@E@std@@@2@@nlohmann@@V?$iterator_input_adapter@V?$_Vector_const_iterator@V?$_Vector_val@U?$_Simple_types@E@std@@@std@@@std@@@detail@2@@detail@nlohmann@@AEAA?AV?$basic_string@DU?$char_traits@D@std@@V?$allocator@D@2@@std@@W4token_type@?$lexer_base@V?$basic_json@Vmap@std@@Vvector@2@V?$basic_string@DU?$char_traits@D@std@@V?$allocator@D@2@@2@_N_J_KNVallocator@2@Uadl_serializer@nlohmann@@V?$vector@EV?$allocator@E@std@@@2@@nlohmann@@@23@AEBV45@@Z 000000014002e390 f   yourgame:loading.obj
 0001:0002e660       ?get_token_string@?$lexer@V?$basic_json@Vmap@std@@Vvector@2@V?$basic_string@DU?$char_traits@D@std@@V?$allocator@D@2@@2@_N_J_KNVallocator@2@Uadl_serializer@nlohmann@@V?$vector@EV?$allocator@E@std@@@2@@nlohmann@@V?$iterator_input_adapter@V?$_Vector_const_iterator@V?$_Vector_val@U?$_Simple_types@E@std@@@std@@@std@@@detail@2@@detail@nlohmann@@QEBA?AV?$basic_string@DU?$char_traits@D@std@@V?$allocator@D@2@@std@@XZ 000000014002f660 f   yourgame:loading.obj
 0001:0002e830       ??1exception@detail@nlohmann@@UEAA@XZ 000000014002f830 f   yourgame:loading.obj
 0001:0002e890       ??1?$json_sax_dom_callback_parser@V?$basic_json@Vmap@std@@Vvector@2@V?$basic_string@DU?$char_traits@D@std@@V?$allocator@D@2@@2@_N_J_KNVallocator@2@Uadl_serializer@nlohmann@@V?$vector@EV?$allocator@E@std@@@2@@nlohmann@@@detail@nlohmann@@QEAA@XZ 000000014002f890 f   yourgame:loading.obj
 0001:0002e9e0       ??$sax_parse_internal@V?$json_sax_dom_parser@V?$basic_json@Vmap@std@@Vvector@2@V?$basic_string@DU?$char_traits@D@std@@V?$allocator@D@2@@2@_N_J_KNVallocator@2@Uadl_serializer@nlohmann@@V?$vector@EV?$allocator@E@std@@@2@@nlohmann@@@detail@nlohmann@@@?$parser@V?$basic_json@Vmap@std@@Vvector@2@V?$basic_string@DU?$char_traits@D@std@@V?$allocator@D@2@@2@_N_J_KNVallocator@2@Uadl_serializer@nlohmann@@V?$vector@EV?$allocator@E@std@@@2@@nlohmann@@V?$iterator_input_adapter@V?$_Vector_const_iterator@V?$_Vector_val@U?$_Simple_types@E@std@@@std@@@std@@@detail@2@@detail@nlohmann@@AEAA_NPEAV?$json_sax_dom_parser@V?$basic_json@Vmap@std@@Vvector@2@V?$basic_string@DU?$char_traits@D@std@@V?$allocator@D@2@@2@_N_J_KNVallocator@2@Uadl_serializer@nlohmann@@V?$vector@EV?$allocator@E@std@@@2@@nlohmann@@@12@@Z 000000014002f9e0 f   yourgame:loading.obj
 0001:0002fc10       ?parse_error@?$json_sax_dom_parser@V?$basic_json@Vmap@std@@Vvector@2@V?$basic_string@DU?$char_traits@D@std@@V?$allocator@D@2@@2@_N_J_KNVallocator@2@Uadl_serializer@nlohmann@@V?$vector@EV?$allocator@E@std@@@2@@nlohmann@@@detail@nlohmann@@QEAA_N_KAEBV?$basic_string@DU?$char_traits@D@std@@V?$allocator@D@2@@std@@AEBVexception@23@@Z 0000000140030c10 f   yourgame:loading.obj
 0001:0002fc90       ?start_object@?$json_sax_dom_callback_parser@V?$basic_json@Vmap@std@@Vvector@2@V?$basic_string@DU?$char_traits@D@std@@V?$allocator@D@2@@2@_N_J_KNVallocator@2@Uadl_serializer@nlohmann@@V?$vector@EV?$allocator@E@std@@@2@@nlohmann@@@detail@nlohmann@@QEAA_N_K@Z 0000000140030c90 f   yourgame:loading.obj
 0001:0002fec0       ?end_object@?$json_sax_dom_callback_parser@V?$basic_json@Vmap@std@@Vvector@2@V?$basic_string@DU?$char_traits@D@std@@V?$allocator@D@2@@2@_N_J_KNVallocator@2@Uadl_serializer@nlohmann@@V?$vector@EV?$allocator@E@std@@@2@@nlohmann@@@detail@nlohmann@@QEAA_NXZ 0000000140030ec0 f   yourgame:loading.obj
 0001:000301e0       ?key@?$json_sax_dom_callback_parser@V?$basic_json@Vmap@std@@Vvector@2@V?$basic_string@DU?$char_traits@D@std@@V?$allocator@D@2@@2@_N_J_KNVallocator@2@Uadl_serializer@nlohmann@@V?$vector@EV?$allocator@E@std@@@2@@nlohmann@@@detail@nlohmann@@QEAA_NAEAV?$basic_string@DU?$char_traits@D@std@@V?$allocator@D@2@@std@@@Z 00000001400311e0 f   yourgame:loading.obj
 0001:00030410       ?start_array@?$json_sax_dom_callback_parser@V?$basic_json@Vmap@std@@Vvector@2@V?$basic_string@DU?$char_traits@D@std@@V?$allocator@D@2@@2@_N_J_KNVallocator@2@Uadl_serializer@nlohmann@@V?$vector@EV?$allocator@E@std@@@2@@nlohmann@@@detail@nlohmann@@QEAA_N_K@Z 0000000140031410 f   yourgame:loading.obj
 0001:00030640       ?end_array@?$json_sax_dom_callback_parser@V?$basic_json@Vmap@std@@Vvector@2@V?$basic_string@DU?$char_traits@D@std@@V?$allocator@D@2@@2@_N_J_KNVallocator@2@Uadl_serializer@nlohmann@@V?$vector@EV?$allocator@E@std@@@2@@nlohmann@@@detail@nlohmann@@QEAA_NXZ 0000000140031640 f   yourgame:loading.obj
 0001:00030850       ?create@out_of_range@detail@nlohmann@@SA?AV123@HAEBV?$basic_string@DU?$char_traits@D@std@@V?$allocator@D@2@@std@@@Z 0000000140031850 f   yourgame:loading.obj
 0001:00030b40       ??$?HDU?$char_traits@D@std@@V?$allocator@D@1@@std@@YA?AV?$basic_string@DU?$char_traits@D@std@@V?$allocator@D@2@@0@QEBD$$QEAV10@@Z 0000000140031b40 f   yourgame:loading.obj
 0001:00030c60       ??$handle_value@W4value_t@detail@nlohmann@@@?$json_sax_dom_callback_parser@V?$basic_json@Vmap@std@@Vvector@2@V?$basic_string@DU?$char_traits@D@std@@V?$allocator@D@2@@2@_N_J_KNVallocator@2@Uadl_serializer@nlohmann@@V?$vector@EV?$allocator@E@std@@@2@@nlohmann@@@detail@nlohmann@@AEAA?AU?$pair@_NPEAV?$basic_json@Vmap@std@@Vvector@2@V?$basic_string@DU?$char_traits@D@std@@V?$allocator@D@2@@2@_N_J_KNVallocator@2@Uadl_serializer@nlohmann@@V?$vector@EV?$allocator@E@std@@@2@@nlohmann@@@std@@$$QEAW4value_t@12@_N@Z 0000000140031c60 f   yourgame:loading.obj
 0001:00030f50       ??$_Emplace_reallocate@AEBQEAV?$basic_json@Vmap@std@@Vvector@2@V?$basic_string@DU?$char_traits@D@std@@V?$allocator@D@2@@2@_N_J_KNVallocator@2@Uadl_serializer@nlohmann@@V?$vector@EV?$allocator@E@std@@@2@@nlohmann@@@?$vector@PEAV?$basic_json@Vmap@std@@Vvector@2@V?$basic_string@DU?$char_traits@D@std@@V?$allocator@D@2@@2@_N_J_KNVallocator@2@Uadl_serializer@nlohmann@@V?$vector@EV?$allocator@E@std@@@2@@nlohmann@@V?$allocator@PEAV?$basic_json@Vmap@std@@Vvector@2@V?$basic_string@DU?$char_traits@D@std@@V?$allocator@D@2@@2@_N_J_KNVallocator@2@Uadl_serializer@nlohmann@@V?$vector@EV?$allocator@E@std@@@2@@nlohmann@@@std@@@std@@AEAAPEAPEAV?$basic_json@Vmap@std@@Vvector@2@V?$basic_string@DU?$char_traits@D@std@@V?$allocator@D@2@@2@_N_J_KNVallocator@2@Uadl_serializer@nlohmann@@V?$vector@EV?$allocator@E@std@@@2@@nlohmann@@QEAPEAV23@AEBQEAV23@@Z 0000000140031f50 f   yourgame:loading.obj
 0001:00031100       ??0?$basic_json@Vmap@std@@Vvector@2@V?$basic_string@DU?$char_traits@D@std@@V?$allocator@D@2@@2@_N_J_KNVallocator@2@Uadl_serializer@nlohmann@@V?$vector@EV?$allocator@E@std@@@2@@nlohmann@@QEAA@AEBV01@@Z 0000000140032100 f   yourgame:loading.obj
 0001:00031370       ??$erase@V?$iter_impl@V?$basic_json@Vmap@std@@Vvector@2@V?$basic_string@DU?$char_traits@D@std@@V?$allocator@D@2@@2@_N_J_KNVallocator@2@Uadl_serializer@nlohmann@@V?$vector@EV?$allocator@E@std@@@2@@nlohmann@@@detail@nlohmann@@$0A@@?$basic_json@Vmap@std@@Vvector@2@V?$basic_string@DU?$char_traits@D@std@@V?$allocator@D@2@@2@_N_J_KNVallocator@2@Uadl_serializer@nlohmann@@V?$vector@EV?$allocator@E@std@@@2@@nlohmann@@QEAA?AV?$iter_impl@V?$basic_json@Vmap@std@@Vvector@2@V?$basic_string@DU?$char_traits@D@std@@V?$allocator@D@2@@2@_N_J_KNVallocator@2@Uadl_serializer@nlohmann@@V?$vector@EV?$allocator@E@std@@@2@@nlohmann@@@detail@1@V231@@Z 0000000140032370 f   yourgame:loading.obj
 0001:000315e0       ??$_Copy_nodes@$0A@@?$_Tree@V?$_Tmap_traits@V?$basic_string@DU?$char_traits@D@std@@V?$allocator@D@2@@std@@V?$basic_json@Vmap@std@@Vvector@2@V?$basic_string@DU?$char_traits@D@std@@V?$allocator@D@2@@2@_N_J_KNVallocator@2@Uadl_serializer@nlohmann@@V?$vector@EV?$allocator@E@std@@@2@@nlohmann@@U?$less@X@2@V?$allocator@U?$pair@$$CBV?$basic_string@DU?$char_traits@D@std@@V?$allocator@D@2@@std@@V?$basic_json@Vmap@std@@Vvector@2@V?$basic_string@DU?$char_traits@D@std@@V?$allocator@D@2@@2@_N_J_KNVallocator@2@Uadl_serializer@nlohmann@@V?$vector@EV?$allocator@E@std@@@2@@nlohmann@@@std@@@2@$0A@@std@@@std@@IEAAPEAU?$_Tree_node@U?$pair@$$CBV?$basic_string@DU?$char_traits@D@std@@V?$allocator@D@2@@std@@V?$basic_json@Vmap@std@@Vvector@2@V?$basic_string@DU?$char_traits@D@std@@V?$allocator@D@2@@2@_N_J_KNVallocator@2@Uadl_serializer@nlohmann@@V?$vector@EV?$allocator@E@std@@@2@@nlohmann@@@std@@PEAX@1@PEAU21@0@Z 00000001400325e0 f   yourgame:loading.obj
 0001:00031770       ??$create@V?$basic_string@DU?$char_traits@D@std@@V?$allocator@D@2@@std@@AEBV12@@?$basic_json@Vmap@std@@Vvector@2@V?$basic_string@DU?$char_traits@D@std@@V?$allocator@D@2@@2@_N_J_KNVallocator@2@Uadl_serializer@nlohmann@@V?$vector@EV?$allocator@E@std@@@2@@nlohmann@@CAPEAV?$basic_string@DU?$char_traits@D@std@@V?$allocator@D@2@@std@@AEBV23@@Z 0000000140032770 f   yourgame:loading.obj
 0001:00031870       ??$create@V?$byte_container_with_subtype@V?$vector@EV?$allocator@E@std@@@std@@@nlohmann@@AEBV12@@?$basic_json@Vmap@std@@Vvector@2@V?$basic_string@DU?$char_traits@D@std@@V?$allocator@D@2@@2@_N_J_KNVallocator@2@Uadl_serializer@nlohmann@@V?$vector@EV?$allocator@E@std@@@2@@nlohmann@@CAPEAV?$byte_container_with_subtype@V?$vector@EV?$allocator@E@std@@@std@@@1@AEBV21@@Z 0000000140032870 f   yourgame:loading.obj
 0001:00031940       ?_Erase_unchecked@?$_Tree@V?$_Tmap_traits@V?$basic_string@DU?$char_traits@D@std@@V?$allocator@D@2@@std@@V?$basic_json@Vmap@std@@Vvector@2@V?$basic_string@DU?$char_traits@D@std@@V?$allocator@D@2@@2@_N_J_KNVallocator@2@Uadl_serializer@nlohmann@@V?$vector@EV?$allocator@E@std@@@2@@nlohmann@@U?$less@X@2@V?$allocator@U?$pair@$$CBV?$basic_string@DU?$char_traits@D@std@@V?$allocator@D@2@@std@@V?$basic_json@Vmap@std@@Vvector@2@V?$basic_string@DU?$char_traits@D@std@@V?$allocator@D@2@@2@_N_J_KNVallocator@2@Uadl_serializer@nlohmann@@V?$vector@EV?$allocator@E@std@@@2@@nlohmann@@@std@@@2@$0A@@std@@@std@@AEAAPEAU?$_Tree_node@U?$pair@$$CBV?$basic_string@DU?$char_traits@D@std@@V?$allocator@D@2@@std@@V?$basic_json@Vmap@std@@Vvector@2@V?$basic_string@DU?$char_traits@D@std@@V?$allocator@D@2@@2@_N_J_KNVallocator@2@Uadl_serializer@nlohmann@@V?$vector@EV?$allocator@E@std@@@2@@nlohmann@@@std@@PEAX@2@V?$_Tree_unchecked_const_iterator@V?$_Tree_val@U?$_Tree_simple_types@U?$pair@$$CBV?$basic_string@DU?$char_traits@D@std@@V?$allocator@D@2@@std@@V?$basic_json@Vmap@std@@Vvector@2@V?$basic_string@DU?$char_traits@D@std@@V?$allocator@D@2@@2@_N_J_KNVallocator@2@Uadl_serializer@nlohmann@@V?$vector@EV?$allocator@E@std@@@2@@nlohmann@@@std@@@std@@@std@@U_Iterator_base0@2@@2@@Z 0000000140032940 f   yourgame:loading.obj
 0001:00031a30       ?_Extract@?$_Tree_val@U?$_Tree_simple_types@U?$pair@$$CBV?$basic_string@DU?$char_traits@D@std@@V?$allocator@D@2@@std@@V?$basic_json@Vmap@std@@Vvector@2@V?$basic_string@DU?$char_traits@D@std@@V?$allocator@D@2@@2@_N_J_KNVallocator@2@Uadl_serializer@nlohmann@@V?$vector@EV?$allocator@E@std@@@2@@nlohmann@@@std@@@std@@@std@@QEAAPEAU?$_Tree_node@U?$pair@$$CBV?$basic_string@DU?$char_traits@D@std@@V?$allocator@D@2@@std@@V?$basic_json@Vmap@std@@Vvector@2@V?$basic_string@DU?$char_traits@D@std@@V?$allocator@D@2@@2@_N_J_KNVallocator@2@Uadl_serializer@nlohmann@@V?$vector@EV?$allocator@E@std@@@2@@nlohmann@@@std@@PEAX@2@V?$_Tree_unchecked_const_iterator@V?$_Tree_val@U?$_Tree_simple_types@U?$pair@$$CBV?$basic_string@DU?$char_traits@D@std@@V?$allocator@D@2@@std@@V?$basic_json@Vmap@std@@Vvector@2@V?$basic_string@DU?$char_traits@D@std@@V?$allocator@D@2@@2@_N_J_KNVallocator@2@Uadl_serializer@nlohmann@@V?$vector@EV?$allocator@E@std@@@2@@nlohmann@@@std@@@std@@@std@@U_Iterator_base0@2@@2@@Z 0000000140032a30 f   yourgame:loading.obj
 0001:00031f20       ??$_Try_emplace@AEBV?$basic_string@DU?$char_traits@D@std@@V?$allocator@D@2@@std@@$$V@?$map@V?$basic_string@DU?$char_traits@D@std@@V?$allocator@D@2@@std@@V?$basic_json@Vmap@std@@Vvector@2@V?$basic_string@DU?$char_traits@D@std@@V?$allocator@D@2@@2@_N_J_KNVallocator@2@Uadl_serializer@nlohmann@@V?$vector@EV?$allocator@E@std@@@2@@nlohmann@@U?$less@X@2@V?$allocator@U?$pair@$$CBV?$basic_string@DU?$char_traits@D@std@@V?$allocator@D@2@@std@@V?$basic_json@Vmap@std@@Vvector@2@V?$basic_string@DU?$char_traits@D@std@@V?$allocator@D@2@@2@_N_J_KNVallocator@2@Uadl_serializer@nlohmann@@V?$vector@EV?$allocator@E@std@@@2@@nlohmann@@@std@@@2@@std@@AEAA?AU?$pair@PEAU?$_Tree_node@U?$pair@$$CBV?$basic_string@DU?$char_traits@D@std@@V?$allocator@D@2@@std@@V?$basic_json@Vmap@std@@Vvector@2@V?$basic_string@DU?$char_traits@D@std@@V?$allocator@D@2@@2@_N_J_KNVallocator@2@Uadl_serializer@nlohmann@@V?$vector@EV?$allocator@E@std@@@2@@nlohmann@@@std@@PEAX@std@@_N@1@AEBV?$basic_string@DU?$char_traits@D@std@@V?$allocator@D@2@@1@@Z 0000000140032f20 f   yourgame:loading.obj
 0001:00032150       ?_Insert_node@?$_Tree_val@U?$_Tree_simple_types@U?$pair@$$CBV?$basic_string@DU?$char_traits@D@std@@V?$allocator@D@2@@std@@V?$basic_json@Vmap@std@@Vvector@2@V?$basic_string@DU?$char_traits@D@std@@V?$allocator@D@2@@2@_N_J_KNVallocator@2@Uadl_serializer@nlohmann@@V?$vector@EV?$allocator@E@std@@@2@@nlohmann@@@std@@@std@@@std@@QEAAPEAU?$_Tree_node@U?$pair@$$CBV?$basic_string@DU?$char_traits@D@std@@V?$allocator@D@2@@std@@V?$basic_json@Vmap@std@@Vvector@2@V?$basic_string@DU?$char_traits@D@std@@V?$allocator@D@2@@2@_N_J_KNVallocator@2@Uadl_serializer@nlohmann@@V?$vector@EV?$allocator@E@std@@@2@@nlohmann@@@std@@PEAX@2@U?$_Tree_id@PEAU?$_Tree_node@U?$pair@$$CBV?$basic_string@DU?$char_traits@D@std@@V?$allocator@D@2@@std@@V?$basic_json@Vmap@std@@Vvector@2@V?$basic_string@DU?$char_traits@D@std@@V?$allocator@D@2@@2@_N_J_KNVallocator@2@Uadl_serializer@nlohmann@@V?$vector@EV?$allocator@E@std@@@2@@nlohmann@@@std@@PEAX@std@@@2@QEAU32@@Z 0000000140033150 f   yourgame:loading.obj
 0001:000323b0       ??$?0V?$tuple@AEBV?$basic_string@DU?$char_traits@D@std@@V?$allocator@D@2@@std@@@std@@V?$tuple@$$V@1@$0A@$$Z$S@?$pair@$$CBV?$basic_string@DU?$char_traits@D@std@@V?$allocator@D@2@@std@@V?$basic_json@Vmap@std@@Vvector@2@V?$basic_string@DU?$char_traits@D@std@@V?$allocator@D@2@@2@_N_J_KNVallocator@2@Uadl_serializer@nlohmann@@V?$vector@EV?$allocator@E@std@@@2@@nlohmann@@@std@@QEAA@AEAV?$tuple@AEBV?$basic_string@DU?$char_traits@D@std@@V?$allocator@D@2@@std@@@1@AEAV?$tuple@$$V@1@U?$integer_sequence@_K$0A@@1@U?$integer_sequence@_K$S@1@@Z 00000001400333b0 f   yourgame:loading.obj
 0001:000324c0       ?name@exception@detail@nlohmann@@KA?AV?$basic_string@DU?$char_traits@D@std@@V?$allocator@D@2@@std@@AEBV45@H@Z 00000001400334c0 f   yourgame:loading.obj
 0001:000328f0       ??_Gout_of_range@detail@nlohmann@@UEAAPEAXI@Z 00000001400338f0 f   yourgame:loading.obj
 0001:00032960       ?what@exception@detail@nlohmann@@UEBAPEBDXZ 0000000140033960 f   yourgame:loading.obj
 0001:00032990       ??_Gexception@detail@nlohmann@@UEAAPEAXI@Z 0000000140033990 f   yourgame:loading.obj
 0001:00032a00       ??_Gruntime_error@std@@UEAAPEAXI@Z 0000000140033a00 f   yourgame:loading.obj
 0001:00032a50       ??$handle_value@AEAN@?$json_sax_dom_callback_parser@V?$basic_json@Vmap@std@@Vvector@2@V?$basic_string@DU?$char_traits@D@std@@V?$allocator@D@2@@2@_N_J_KNVallocator@2@Uadl_serializer@nlohmann@@V?$vector@EV?$allocator@E@std@@@2@@nlohmann@@@detail@nlohmann@@AEAA?AU?$pair@_NPEAV?$basic_json@Vmap@std@@Vvector@2@V?$basic_string@DU?$char_traits@D@std@@V?$allocator@D@2@@2@_N_J_KNVallocator@2@Uadl_serializer@nlohmann@@V?$vector@EV?$allocator@E@std@@@2@@nlohmann@@@std@@AEAN_N@Z 0000000140033a50 f   yourgame:loading.obj
 0001:00032d20       ??$handle_value@AEA_N@?$json_sax_dom_callback_parser@V?$basic_json@Vmap@std@@Vvector@2@V?$basic_string@DU?$char_traits@D@std@@V?$allocator@D@2@@2@_N_J_KNVallocator@2@Uadl_serializer@nlohmann@@V?$vector@EV?$allocator@E@std@@@2@@nlohmann@@@detail@nlohmann@@AEAA?AU?$pair@_NPEAV?$basic_json@Vmap@std@@Vvector@2@V?$basic_string@DU?$char_traits@D@std@@V?$allocator@D@2@@2@_N_J_KNVallocator@2@Uadl_serializer@nlohmann@@V?$vector@EV?$allocator@E@std@@@2@@nlohmann@@@std@@AEA_N_N@Z 0000000140033d20 f   yourgame:loading.obj
 0001:00032ff0       ??$handle_value@$$T@?$json_sax_dom_callback_parser@V?$basic_json@Vmap@std@@Vvector@2@V?$basic_string@DU?$char_traits@D@std@@V?$allocator@D@2@@2@_N_J_KNVallocator@2@Uadl_serializer@nlohmann@@V?$vector@EV?$allocator@E@std@@@2@@nlohmann@@@detail@nlohmann@@AEAA?AU?$pair@_NPEAV?$basic_json@Vmap@std@@Vvector@2@V?$basic_string@DU?$char_traits@D@std@@V?$allocator@D@2@@2@_N_J_KNVallocator@2@Uadl_serializer@nlohmann@@V?$vector@EV?$allocator@E@std@@@2@@nlohmann@@@std@@$$QEA$$T_N@Z 0000000140033ff0 f   yourgame:loading.obj
 0001:000332c0       ??$handle_value@AEA_J@?$json_sax_dom_callback_parser@V?$basic_json@Vmap@std@@Vvector@2@V?$basic_string@DU?$char_traits@D@std@@V?$allocator@D@2@@2@_N_J_KNVallocator@2@Uadl_serializer@nlohmann@@V?$vector@EV?$allocator@E@std@@@2@@nlohmann@@@detail@nlohmann@@AEAA?AU?$pair@_NPEAV?$basic_json@Vmap@std@@Vvector@2@V?$basic_string@DU?$char_traits@D@std@@V?$allocator@D@2@@2@_N_J_KNVallocator@2@Uadl_serializer@nlohmann@@V?$vector@EV?$allocator@E@std@@@2@@nlohmann@@@std@@AEA_J_N@Z 00000001400342c0 f   yourgame:loading.obj
 0001:00033590       ??$handle_value@AEAV?$basic_string@DU?$char_traits@D@std@@V?$allocator@D@2@@std@@@?$json_sax_dom_callback_parser@V?$basic_json@Vmap@std@@Vvector@2@V?$basic_string@DU?$char_traits@D@std@@V?$allocator@D@2@@2@_N_J_KNVallocator@2@Uadl_serializer@nlohmann@@V?$vector@EV?$allocator@E@std@@@2@@nlohmann@@@detail@nlohmann@@AEAA?AU?$pair@_NPEAV?$basic_json@Vmap@std@@Vvector@2@V?$basic_string@DU?$char_traits@D@std@@V?$allocator@D@2@@2@_N_J_KNVallocator@2@Uadl_serializer@nlohmann@@V?$vector@EV?$allocator@E@std@@@2@@nlohmann@@@std@@AEAV?$basic_string@DU?$char_traits@D@std@@V?$allocator@D@2@@4@_N@Z 0000000140034590 f   yourgame:loading.obj
 0001:00033870       ??$handle_value@AEA_K@?$json_sax_dom_callback_parser@V?$basic_json@Vmap@std@@Vvector@2@V?$basic_string@DU?$char_traits@D@std@@V?$allocator@D@2@@2@_N_J_KNVallocator@2@Uadl_serializer@nlohmann@@V?$vector@EV?$allocator@E@std@@@2@@nlohmann@@@detail@nlohmann@@AEAA?AU?$pair@_NPEAV?$basic_json@Vmap@std@@Vvector@2@V?$basic_string@DU?$char_traits@D@std@@V?$allocator@D@2@@2@_N_J_KNVallocator@2@Uadl_serializer@nlohmann@@V?$vector@EV?$allocator@E@std@@@2@@nlohmann@@@std@@AEA_K_N@Z 0000000140034870 f   yourgame:loading.obj
 0001:00033b40       ?erase@?$vector@_NV?$allocator@_N@std@@@std@@QEAA?AV?$_Vb_iterator@U?$_Wrap_alloc@V?$allocator@I@std@@@std@@@2@V?$_Vb_const_iterator@U?$_Wrap_alloc@V?$allocator@I@std@@@std@@@2@@Z 0000000140034b40 f   yourgame:loading.obj
 0001:00033d10       ?position_string@parse_error@detail@nlohmann@@CA?AV?$basic_string@DU?$char_traits@D@std@@V?$allocator@D@2@@std@@AEBUposition_t@23@@Z 0000000140034d10 f   yourgame:loading.obj
 0001:000340e0       ??$_UIntegral_to_string@D_K@std@@YA?AV?$basic_string@DU?$char_traits@D@std@@V?$allocator@D@2@@0@_K@Z 00000001400350e0 f   yourgame:loading.obj
 0001:00034270       ??_Gparse_error@detail@nlohmann@@UEAAPEAXI@Z 0000000140035270 f   yourgame:loading.obj
 0001:000342e0       snprintf                   00000001400352e0 f   yourgame:loading.obj
 0001:00034380       __local_stdio_printf_options 0000000140035380 f   yourgame:loading.obj
 0001:000343a0       ??$handle_value@W4value_t@detail@nlohmann@@@?$json_sax_dom_parser@V?$basic_json@Vmap@std@@Vvector@2@V?$basic_string@DU?$char_traits@D@std@@V?$allocator@D@2@@2@_N_J_KNVallocator@2@Uadl_serializer@nlohmann@@V?$vector@EV?$allocator@E@std@@@2@@nlohmann@@@detail@nlohmann@@AEAAPEAV?$basic_json@Vmap@std@@Vvector@2@V?$basic_string@DU?$char_traits@D@std@@V?$allocator@D@2@@2@_N_J_KNVallocator@2@Uadl_serializer@nlohmann@@V?$vector@EV?$allocator@E@std@@@2@@2@$$QEAW4value_t@12@@Z 00000001400353a0 f   yourgame:loading.obj
 0001:00034510       ??$_Emplace_reallocate@PEAV?$basic_json@Vmap@std@@Vvector@2@V?$basic_string@DU?$char_traits@D@std@@V?$allocator@D@2@@2@_N_J_KNVallocator@2@Uadl_serializer@nlohmann@@V?$vector@EV?$allocator@E@std@@@2@@nlohmann@@@?$vector@PEAV?$basic_json@Vmap@std@@Vvector@2@V?$basic_string@DU?$char_traits@D@std@@V?$allocator@D@2@@2@_N_J_KNVallocator@2@Uadl_serializer@nlohmann@@V?$vector@EV?$allocator@E@std@@@2@@nlohmann@@V?$allocator@PEAV?$basic_json@Vmap@std@@Vvector@2@V?$basic_string@DU?$char_traits@D@std@@V?$allocator@D@2@@2@_N_J_KNVallocator@2@Uadl_serializer@nlohmann@@V?$vector@EV?$allocator@E@std@@@2@@nlohmann@@@std@@@std@@AEAAPEAPEAV?$basic_json@Vmap@std@@Vvector@2@V?$basic_string@DU?$char_traits@D@std@@V?$allocator@D@2@@2@_N_J_KNVallocator@2@Uadl_serializer@nlohmann@@V?$vector@EV?$allocator@E@std@@@2@@nlohmann@@QEAPEAV23@$$QEAPEAV23@@Z 0000000140035510 f   yourgame:loading.obj
 0001:000346c0       ??$_Emplace_reallocate@W4value_t@detail@nlohmann@@@?$vector@V?$basic_json@Vmap@std@@Vvector@2@V?$basic_string@DU?$char_traits@D@std@@V?$allocator@D@2@@2@_N_J_KNVallocator@2@Uadl_serializer@nlohmann@@V?$vector@EV?$allocator@E@std@@@2@@nlohmann@@V?$allocator@V?$basic_json@Vmap@std@@Vvector@2@V?$basic_string@DU?$char_traits@D@std@@V?$allocator@D@2@@2@_N_J_KNVallocator@2@Uadl_serializer@nlohmann@@V?$vector@EV?$allocator@E@std@@@2@@nlohmann@@@std@@@std@@AEAAPEAV?$basic_json@Vmap@std@@Vvector@2@V?$basic_string@DU?$char_traits@D@std@@V?$allocator@D@2@@2@_N_J_KNVallocator@2@Uadl_serializer@nlohmann@@V?$vector@EV?$allocator@E@std@@@2@@nlohmann@@QEAV23@$$QEAW4value_t@detail@3@@Z 00000001400356c0 f   yourgame:loading.obj
 0001:00034960       ??$handle_value@AEAN@?$json_sax_dom_parser@V?$basic_json@Vmap@std@@Vvector@2@V?$basic_string@DU?$char_traits@D@std@@V?$allocator@D@2@@2@_N_J_KNVallocator@2@Uadl_serializer@nlohmann@@V?$vector@EV?$allocator@E@std@@@2@@nlohmann@@@detail@nlohmann@@AEAAPEAV?$basic_json@Vmap@std@@Vvector@2@V?$basic_string@DU?$char_traits@D@std@@V?$allocator@D@2@@2@_N_J_KNVallocator@2@Uadl_serializer@nlohmann@@V?$vector@EV?$allocator@E@std@@@2@@2@AEAN@Z 0000000140035960 f   yourgame:loading.obj
 0001:00034aa0       ??$_Emplace_reallocate@AEAN@?$vector@V?$basic_json@Vmap@std@@Vvector@2@V?$basic_string@DU?$char_traits@D@std@@V?$allocator@D@2@@2@_N_J_KNVallocator@2@Uadl_serializer@nlohmann@@V?$vector@EV?$allocator@E@std@@@2@@nlohmann@@V?$allocator@V?$basic_json@Vmap@std@@Vvector@2@V?$basic_string@DU?$char_traits@D@std@@V?$allocator@D@2@@2@_N_J_KNVallocator@2@Uadl_serializer@nlohmann@@V?$vector@EV?$allocator@E@std@@@2@@nlohmann@@@std@@@std@@AEAAPEAV?$basic_json@Vmap@std@@Vvector@2@V?$basic_string@DU?$char_traits@D@std@@V?$allocator@D@2@@2@_N_J_KNVallocator@2@Uadl_serializer@nlohmann@@V?$vector@EV?$allocator@E@std@@@2@@nlohmann@@QEAV23@AEAN@Z 0000000140035aa0 f   yourgame:loading.obj
 0001:00034d50       ??$handle_value@AEA_N@?$json_sax_dom_parser@V?$basic_json@Vmap@std@@Vvector@2@V?$basic_string@DU?$char_traits@D@std@@V?$allocator@D@2@@2@_N_J_KNVallocator@2@Uadl_serializer@nlohmann@@V?$vector@EV?$allocator@E@std@@@2@@nlohmann@@@detail@nlohmann@@AEAAPEAV?$basic_json@Vmap@std@@Vvector@2@V?$basic_string@DU?$char_traits@D@std@@V?$allocator@D@2@@2@_N_J_KNVallocator@2@Uadl_serializer@nlohmann@@V?$vector@EV?$allocator@E@std@@@2@@2@AEA_N@Z 0000000140035d50 f   yourgame:loading.obj
 0001:00034e80       ??$_Emplace_reallocate@AEA_N@?$vector@V?$basic_json@Vmap@std@@Vvector@2@V?$basic_string@DU?$char_traits@D@std@@V?$allocator@D@2@@2@_N_J_KNVallocator@2@Uadl_serializer@nlohmann@@V?$vector@EV?$allocator@E@std@@@2@@nlohmann@@V?$allocator@V?$basic_json@Vmap@std@@Vvector@2@V?$basic_string@DU?$char_traits@D@std@@V?$allocator@D@2@@2@_N_J_KNVallocator@2@Uadl_serializer@nlohmann@@V?$vector@EV?$allocator@E@std@@@2@@nlohmann@@@std@@@std@@AEAAPEAV?$basic_json@Vmap@std@@Vvector@2@V?$basic_string@DU?$char_traits@D@std@@V?$allocator@D@2@@2@_N_J_KNVallocator@2@Uadl_serializer@nlohmann@@V?$vector@EV?$allocator@E@std@@@2@@nlohmann@@QEAV23@AEA_N@Z 0000000140035e80 f   yourgame:loading.obj
 0001:00035120       ??$handle_value@$$T@?$json_sax_dom_parser@V?$basic_json@Vmap@std@@Vvector@2@V?$basic_string@DU?$char_traits@D@std@@V?$allocator@D@2@@2@_N_J_KNVallocator@2@Uadl_serializer@nlohmann@@V?$vector@EV?$allocator@E@std@@@2@@nlohmann@@@detail@nlohmann@@AEAAPEAV?$basic_json@Vmap@std@@Vvector@2@V?$basic_string@DU?$char_traits@D@std@@V?$allocator@D@2@@2@_N_J_KNVallocator@2@Uadl_serializer@nlohmann@@V?$vector@EV?$allocator@E@std@@@2@@2@$$QEA$$T@Z 0000000140036120 f   yourgame:loading.obj
 0001:00035240       ??$_Emplace_reallocate@$$T@?$vector@V?$basic_json@Vmap@std@@Vvector@2@V?$basic_string@DU?$char_traits@D@std@@V?$allocator@D@2@@2@_N_J_KNVallocator@2@Uadl_serializer@nlohmann@@V?$vector@EV?$allocator@E@std@@@2@@nlohmann@@V?$allocator@V?$basic_json@Vmap@std@@Vvector@2@V?$basic_string@DU?$char_traits@D@std@@V?$allocator@D@2@@2@_N_J_KNVallocator@2@Uadl_serializer@nlohmann@@V?$vector@EV?$allocator@E@std@@@2@@nlohmann@@@std@@@std@@AEAAPEAV?$basic_json@Vmap@std@@Vvector@2@V?$basic_string@DU?$char_traits@D@std@@V?$allocator@D@2@@2@_N_J_KNVallocator@2@Uadl_serializer@nlohmann@@V?$vector@EV?$allocator@E@std@@@2@@nlohmann@@QEAV23@$$QEA$$T@Z 0000000140036240 f   yourgame:loading.obj
 0001:000354d0       ??$handle_value@AEA_J@?$json_sax_dom_parser@V?$basic_json@Vmap@std@@Vvector@2@V?$basic_string@DU?$char_traits@D@std@@V?$allocator@D@2@@2@_N_J_KNVallocator@2@Uadl_serializer@nlohmann@@V?$vector@EV?$allocator@E@std@@@2@@nlohmann@@@detail@nlohmann@@AEAAPEAV?$basic_json@Vmap@std@@Vvector@2@V?$basic_string@DU?$char_traits@D@std@@V?$allocator@D@2@@2@_N_J_KNVallocator@2@Uadl_serializer@nlohmann@@V?$vector@EV?$allocator@E@std@@@2@@2@AEA_J@Z 00000001400364d0 f   yourgame:loading.obj
 0001:00035600       ??$_Emplace_reallocate@AEA_J@?$vector@V?$basic_json@Vmap@std@@Vvector@2@V?$basic_string@DU?$char_traits@D@std@@V?$allocator@D@2@@2@_N_J_KNVallocator@2@Uadl_serializer@nlohmann@@V?$vector@EV?$allocator@E@std@@@2@@nlohmann@@V?$allocator@V?$basic_json@Vmap@std@@Vvector@2@V?$basic_string@DU?$char_traits@D@std@@V?$allocator@D@2@@2@_N_J_KNVallocator@2@Uadl_serializer@nlohmann@@V?$vector@EV?$allocator@E@std@@@2@@nlohmann@@@std@@@std@@AEAAPEAV?$basic_json@Vmap@std@@Vvector@2@V?$basic_string@DU?$char_traits@D@std@@V?$allocator@D@2@@2@_N_J_KNVallocator@2@Uadl_serializer@nlohmann@@V?$vector@EV?$allocator@E@std@@@2@@nlohmann@@QEAV23@AEA_J@Z 0000000140036600 f   yourgame:loading.obj
 0001:000358a0       ??$handle_value@AEAV?$basic_string@DU?$char_traits@D@std@@V?$allocator@D@2@@std@@@?$json_sax_dom_parser@V?$basic_json@Vmap@std@@Vvector@2@V?$basic_string@DU?$char_traits@D@std@@V?$allocator@D@2@@2@_N_J_KNVallocator@2@Uadl_serializer@nlohmann@@V?$vector@EV?$allocator@E@std@@@2@@nlohmann@@@detail@nlohmann@@AEAAPEAV?$basic_json@Vmap@std@@Vvector@2@V?$basic_string@DU?$char_traits@D@std@@V?$allocator@D@2@@2@_N_J_KNVallocator@2@Uadl_serializer@nlohmann@@V?$vector@EV?$allocator@E@std@@@2@@2@AEAV?$basic_string@DU?$char_traits@D@std@@V?$allocator@D@2@@std@@@Z 00000001400368a0 f   yourgame:loading.obj
 0001:00035a00       ??$_Emplace_reallocate@AEAV?$basic_string@DU?$char_traits@D@std@@V?$allocator@D@2@@std@@@?$vector@V?$basic_json@Vmap@std@@Vvector@2@V?$basic_string@DU?$char_traits@D@std@@V?$allocator@D@2@@2@_N_J_KNVallocator@2@Uadl_serializer@nlohmann@@V?$vector@EV?$allocator@E@std@@@2@@nlohmann@@V?$allocator@V?$basic_json@Vmap@std@@Vvector@2@V?$basic_string@DU?$char_traits@D@std@@V?$allocator@D@2@@2@_N_J_KNVallocator@2@Uadl_serializer@nlohmann@@V?$vector@EV?$allocator@E@std@@@2@@nlohmann@@@std@@@std@@AEAAPEAV?$basic_json@Vmap@std@@Vvector@2@V?$basic_string@DU?$char_traits@D@std@@V?$allocator@D@2@@2@_N_J_KNVallocator@2@Uadl_serializer@nlohmann@@V?$vector@EV?$allocator@E@std@@@2@@nlohmann@@QEAV23@AEAV?$basic_string@DU?$char_traits@D@std@@V?$allocator@D@2@@1@@Z 0000000140036a00 f   yourgame:loading.obj
 0001:00035cb0       ??$handle_value@AEA_K@?$json_sax_dom_parser@V?$basic_json@Vmap@std@@Vvector@2@V?$basic_string@DU?$char_traits@D@std@@V?$allocator@D@2@@2@_N_J_KNVallocator@2@Uadl_serializer@nlohmann@@V?$vector@EV?$allocator@E@std@@@2@@nlohmann@@@detail@nlohmann@@AEAAPEAV?$basic_json@Vmap@std@@Vvector@2@V?$basic_string@DU?$char_traits@D@std@@V?$allocator@D@2@@2@_N_J_KNVallocator@2@Uadl_serializer@nlohmann@@V?$vector@EV?$allocator@E@std@@@2@@2@AEA_K@Z 0000000140036cb0 f   yourgame:loading.obj
 0001:00035de0       ??$_Emplace_reallocate@AEA_K@?$vector@V?$basic_json@Vmap@std@@Vvector@2@V?$basic_string@DU?$char_traits@D@std@@V?$allocator@D@2@@2@_N_J_KNVallocator@2@Uadl_serializer@nlohmann@@V?$vector@EV?$allocator@E@std@@@2@@nlohmann@@V?$allocator@V?$basic_json@Vmap@std@@Vvector@2@V?$basic_string@DU?$char_traits@D@std@@V?$allocator@D@2@@2@_N_J_KNVallocator@2@Uadl_serializer@nlohmann@@V?$vector@EV?$allocator@E@std@@@2@@nlohmann@@@std@@@std@@AEAAPEAV?$basic_json@Vmap@std@@Vvector@2@V?$basic_string@DU?$char_traits@D@std@@V?$allocator@D@2@@2@_N_J_KNVallocator@2@Uadl_serializer@nlohmann@@V?$vector@EV?$allocator@E@std@@@2@@nlohmann@@QEAV23@AEA_K@Z 0000000140036de0 f   yourgame:loading.obj
 0001:00036080       ??$_Try_emplace@V?$basic_string@DU?$char_traits@D@std@@V?$allocator@D@2@@std@@$$V@?$map@V?$basic_string@DU?$char_traits@D@std@@V?$allocator@D@2@@std@@V?$basic_json@Vmap@std@@Vvector@2@V?$basic_string@DU?$char_traits@D@std@@V?$allocator@D@2@@2@_N_J_KNVallocator@2@Uadl_serializer@nlohmann@@V?$vector@EV?$allocator@E@std@@@2@@nlohmann@@U?$less@X@2@V?$allocator@U?$pair@$$CBV?$basic_string@DU?$char_traits@D@std@@V?$allocator@D@2@@std@@V?$basic_json@Vmap@std@@Vvector@2@V?$basic_string@DU?$char_traits@D@std@@V?$allocator@D@2@@2@_N_J_KNVallocator@2@Uadl_serializer@nlohmann@@V?$vector@EV?$allocator@E@std@@@2@@nlohmann@@@std@@@2@@std@@AEAA?AU?$pair@PEAU?$_Tree_node@U?$pair@$$CBV?$basic_string@DU?$char_traits@D@std@@V?$allocator@D@2@@std@@V?$basic_json@Vmap@std@@Vvector@2@V?$basic_string@DU?$char_traits@D@std@@V?$allocator@D@2@@2@_N_J_KNVallocator@2@Uadl_serializer@nlohmann@@V?$vector@EV?$allocator@E@std@@@2@@nlohmann@@@std@@PEAX@std@@_N@1@$$QEAV?$basic_string@DU?$char_traits@D@std@@V?$allocator@D@2@@1@@Z 0000000140037080 f   yourgame:loading.obj
 0001:000362c0       ??$log_@V?$basic_string@DU?$char_traits@D@std@@V?$allocator@D@2@@std@@V12@@Logger@el@@AEAAXW4Level@1@HPEBDAEBV?$basic_string@DU?$char_traits@D@std@@V?$allocator@D@2@@std@@2@Z 00000001400372c0 f   yourgame:loading.obj
 0001:00036450       ??$_Emplace_reallocate@U?$pair@IV?$basic_string@DU?$char_traits@D@std@@V?$allocator@D@2@@std@@@std@@@?$vector@U?$pair@IV?$basic_string@DU?$char_traits@D@std@@V?$allocator@D@2@@std@@@std@@V?$allocator@U?$pair@IV?$basic_string@DU?$char_traits@D@std@@V?$allocator@D@2@@std@@@std@@@2@@std@@AEAAPEAU?$pair@IV?$basic_string@DU?$char_traits@D@std@@V?$allocator@D@2@@std@@@1@QEAU21@$$QEAU21@@Z 0000000140037450 f   yourgame:loading.obj
 0001:000367f0       ?_Xlength@?$vector@U?$pair@IV?$basic_string@DU?$char_traits@D@std@@V?$allocator@D@2@@std@@@std@@V?$allocator@U?$pair@IV?$basic_string@DU?$char_traits@D@std@@V?$allocator@D@2@@std@@@std@@@2@@std@@CAXXZ 00000001400377f0 f   yourgame:loading.obj
 0001:00036820       ?_Xlength@?$vector@Ushape_t@tinyobj@@V?$allocator@Ushape_t@tinyobj@@@std@@@std@@CAXXZ 0000000140037820 f   yourgame:loading.obj
 0001:00036850       ??0shape_t@tinyobj@@QEAA@AEBU01@@Z 0000000140037850 f   yourgame:loading.obj
 0001:00036a80       ??0mesh_t@tinyobj@@QEAA@AEBU01@@Z 0000000140037a80 f   yourgame:loading.obj
 0001:00036e50       ??0lines_t@tinyobj@@QEAA@AEBU01@@Z 0000000140037e50 f   yourgame:loading.obj
 0001:00037000       ?_Xlength@?$vector@Uindex_t@tinyobj@@V?$allocator@Uindex_t@tinyobj@@@std@@@std@@CAXXZ 0000000140038000 f   yourgame:loading.obj
 0001:00037030       ?_Xlength@?$vector@HV?$allocator@H@std@@@std@@CAXXZ 0000000140038030 f   yourgame:loading.obj
 0001:00037060       ?_Xlength@?$vector@Utag_t@tinyobj@@V?$allocator@Utag_t@tinyobj@@@std@@@std@@CAXXZ 0000000140038060 f   yourgame:loading.obj
 0001:00037090       ??0tag_t@tinyobj@@QEAA@AEBU01@@Z 0000000140038090 f   yourgame:loading.obj
 0001:00037330       ?_Xlength@?$vector@Umaterial_t@tinyobj@@V?$allocator@Umaterial_t@tinyobj@@@std@@@std@@CAXXZ 0000000140038330 f   yourgame:loading.obj
 0001:00037360       ??0material_t@tinyobj@@QEAA@AEBU01@@Z 0000000140038360 f   yourgame:loading.obj
 0001:00039000       ??$_Copy_nodes@$0A@@?$_Tree@V?$_Tmap_traits@V?$basic_string@DU?$char_traits@D@std@@V?$allocator@D@2@@std@@V12@U?$less@V?$basic_string@DU?$char_traits@D@std@@V?$allocator@D@2@@std@@@2@V?$allocator@U?$pair@$$CBV?$basic_string@DU?$char_traits@D@std@@V?$allocator@D@2@@std@@V12@@std@@@2@$0A@@std@@@std@@IEAAPEAU?$_Tree_node@U?$pair@$$CBV?$basic_string@DU?$char_traits@D@std@@V?$allocator@D@2@@std@@V12@@std@@PEAX@1@PEAU21@0@Z 000000014003a000 f   yourgame:loading.obj
 0001:000390b0       ??0?$pair@$$CBV?$basic_string@DU?$char_traits@D@std@@V?$allocator@D@2@@std@@V12@@std@@QEAA@AEBU01@@Z 000000014003a0b0 f   yourgame:loading.obj
 0001:00039290       ?_Xrange@?$vector@HV?$allocator@H@std@@@std@@CAXXZ 000000014003a290 f   yourgame:loading.obj
 0001:000392c0       ??$_Emplace@V?$array@H$03@std@@AEAI@?$_Tree@V?$_Tmap_traits@V?$array@H$03@std@@HU?$less@V?$array@H$03@std@@@2@V?$allocator@U?$pair@$$CBV?$array@H$03@std@@H@std@@@2@$0A@@std@@@std@@IEAA?AU?$pair@PEAU?$_Tree_node@U?$pair@$$CBV?$array@H$03@std@@H@std@@PEAX@std@@_N@1@$$QEAV?$array@H$03@1@AEAI@Z 000000014003a2c0 f   yourgame:loading.obj
 0001:00039490       ?_Insert_node@?$_Tree_val@U?$_Tree_simple_types@U?$pair@$$CBV?$array@H$03@std@@H@std@@@std@@@std@@QEAAPEAU?$_Tree_node@U?$pair@$$CBV?$array@H$03@std@@H@std@@PEAX@2@U?$_Tree_id@PEAU?$_Tree_node@U?$pair@$$CBV?$array@H$03@std@@H@std@@PEAX@std@@@2@QEAU32@@Z 000000014003a490 f   yourgame:loading.obj
 0001:000396f0       ??$_Emplace_reallocate@AEBI@?$vector@IV?$allocator@I@std@@@std@@AEAAPEAIQEAIAEBI@Z 000000014003a6f0 f   yourgame:loading.obj
 0001:000398a0       ?_Xrange@?$vector@MV?$allocator@M@std@@@std@@CAXXZ 000000014003a8a0 f   yourgame:loading.obj
 0001:000398d0       ??$_Emplace_reallocate@M@?$vector@MV?$allocator@M@std@@@std@@AEAAPEAMQEAM$$QEAM@Z 000000014003a8d0 f   yourgame:loading.obj
 0001:00039a80       ??$_Emplace_reallocate@I@?$vector@IV?$allocator@I@std@@@std@@AEAAPEAIQEAI$$QEAI@Z 000000014003aa80 f   yourgame:loading.obj
 0001:00039c30       ?_Xlength@?$vector@UArrBufferDescr@Shape@gl@yourgame@@V?$allocator@UArrBufferDescr@Shape@gl@yourgame@@@std@@@std@@CAXXZ 000000014003ac30 f   yourgame:loading.obj
 0001:00039c60       ??$_Construct_n@PEBV?$basic_string@DU?$char_traits@D@std@@V?$allocator@D@2@@std@@PEBV12@@?$vector@V?$basic_string@DU?$char_traits@D@std@@V?$allocator@D@2@@std@@V?$allocator@V?$basic_string@DU?$char_traits@D@std@@V?$allocator@D@2@@std@@@2@@std@@AEAAX_K$$QEAPEBV?$basic_string@DU?$char_traits@D@std@@V?$allocator@D@2@@1@1@Z 000000014003ac60 f   yourgame:loading.obj
 0001:00039e50       ?_Xlength@?$vector@V?$basic_string@DU?$char_traits@D@std@@V?$allocator@D@2@@std@@V?$allocator@V?$basic_string@DU?$char_traits@D@std@@V?$allocator@D@2@@std@@@2@@std@@CAXXZ 000000014003ae50 f   yourgame:loading.obj
 0001:00039e80       ??$_Emplace_reallocate@UArrBufferDescr@Shape@gl@yourgame@@@?$vector@UArrBufferDescr@Shape@gl@yourgame@@V?$allocator@UArrBufferDescr@Shape@gl@yourgame@@@std@@@std@@AEAAPEAUArrBufferDescr@Shape@gl@yourgame@@QEAU2345@$$QEAU2345@@Z 000000014003ae80 f   yourgame:loading.obj
 0001:0003a070       ??$_Emplace_reallocate@V?$basic_string@DU?$char_traits@D@std@@V?$allocator@D@2@@std@@@?$vector@V?$basic_string@DU?$char_traits@D@std@@V?$allocator@D@2@@std@@V?$allocator@V?$basic_string@DU?$char_traits@D@std@@V?$allocator@D@2@@std@@@2@@std@@AEAAPEAV?$basic_string@DU?$char_traits@D@std@@V?$allocator@D@2@@1@QEAV21@$$QEAV21@@Z 000000014003b070 f   yourgame:loading.obj
 0001:0003a3c0       ??$_Construct_n@AEBQEAV?$basic_string@DU?$char_traits@D@std@@V?$allocator@D@2@@std@@AEBQEAV12@@?$vector@V?$basic_string@DU?$char_traits@D@std@@V?$allocator@D@2@@std@@V?$allocator@V?$basic_string@DU?$char_traits@D@std@@V?$allocator@D@2@@std@@@2@@std@@AEAAX_KAEBQEAV?$basic_string@DU?$char_traits@D@std@@V?$allocator@D@2@@1@1@Z 000000014003b3c0 f   yourgame:loading.obj
 0001:0003a5b0       ?make@Geometry@gl@yourgame@@SAPEAV123@XZ 000000014003b5b0 f   yourgame:geometry.obj
 0001:0003a630       ??1Geometry@gl@yourgame@@QEAA@XZ 000000014003b630 f   yourgame:geometry.obj
 0001:0003a7c0       ?addBuffer@Geometry@gl@yourgame@@QEAA_NV?$basic_string@DU?$char_traits@D@std@@V?$allocator@D@2@@std@@I_JPEBXI@Z 000000014003b7c0 f   yourgame:geometry.obj
 0001:0003aa10       ?count@?$_Tree@V?$_Tmap_traits@V?$basic_string@DU?$char_traits@D@std@@V?$allocator@D@2@@std@@PEAVBuffer@gl@yourgame@@U?$less@V?$basic_string@DU?$char_traits@D@std@@V?$allocator@D@2@@std@@@2@V?$allocator@U?$pair@$$CBV?$basic_string@DU?$char_traits@D@std@@V?$allocator@D@2@@std@@PEAVBuffer@gl@yourgame@@@std@@@2@$0A@@std@@@std@@QEBA_KAEBV?$basic_string@DU?$char_traits@D@std@@V?$allocator@D@2@@2@@Z 000000014003ba10 f   yourgame:geometry.obj
 0001:0003ab30       ?bufferData@Geometry@gl@yourgame@@QEAA_NV?$basic_string@DU?$char_traits@D@std@@V?$allocator@D@2@@std@@_JPEBX@Z 000000014003bb30 f   yourgame:geometry.obj
 0001:0003abf0       ?addShape@Geometry@gl@yourgame@@QEAA_NV?$basic_string@DU?$char_traits@D@std@@V?$allocator@D@2@@std@@V?$vector@UArrBufferDescr@Shape@gl@yourgame@@V?$allocator@UArrBufferDescr@Shape@gl@yourgame@@@std@@@5@V?$vector@V?$basic_string@DU?$char_traits@D@std@@V?$allocator@D@2@@std@@V?$allocator@V?$basic_string@DU?$char_traits@D@std@@V?$allocator@D@2@@std@@@2@@5@UElemArrBufferDescr@Shape@23@0@Z 000000014003bbf0 f   yourgame:geometry.obj
 0001:0003b330       ?count@?$_Tree@V?$_Tmap_traits@V?$basic_string@DU?$char_traits@D@std@@V?$allocator@D@2@@std@@PEAVShape@gl@yourgame@@U?$less@V?$basic_string@DU?$char_traits@D@std@@V?$allocator@D@2@@std@@@2@V?$allocator@U?$pair@$$CBV?$basic_string@DU?$char_traits@D@std@@V?$allocator@D@2@@std@@PEAVShape@gl@yourgame@@@std@@@2@$0A@@std@@@std@@QEBA_KAEBV?$basic_string@DU?$char_traits@D@std@@V?$allocator@D@2@@2@@Z 000000014003c330 f   yourgame:geometry.obj
 0001:0003b450       ?addBufferToShape@Geometry@gl@yourgame@@QEAA_NV?$basic_string@DU?$char_traits@D@std@@V?$allocator@D@2@@std@@V?$vector@UArrBufferDescr@Shape@gl@yourgame@@V?$allocator@UArrBufferDescr@Shape@gl@yourgame@@@std@@@5@0@Z 000000014003c450 f   yourgame:geometry.obj
 0001:0003b6c0       ?setShapeElArDescr@Geometry@gl@yourgame@@QEAA_NV?$basic_string@DU?$char_traits@D@std@@V?$allocator@D@2@@std@@UElemArrBufferDescr@Shape@23@@Z 000000014003c6c0 f   yourgame:geometry.obj
 0001:0003b7b0       ?drawAll@Geometry@gl@yourgame@@QEBAXXZ 000000014003c7b0 f   yourgame:geometry.obj
 0001:0003b840       ?drawAllInstanced@Geometry@gl@yourgame@@QEBAXH@Z 000000014003c840 f   yourgame:geometry.obj
 0001:0003b8d0       ??$_Erase_tree@V?$allocator@U?$_Tree_node@U?$pair@$$CBV?$basic_string@DU?$char_traits@D@std@@V?$allocator@D@2@@std@@PEAVShape@gl@yourgame@@@std@@PEAX@std@@@std@@@?$_Tree_val@U?$_Tree_simple_types@U?$pair@$$CBV?$basic_string@DU?$char_traits@D@std@@V?$allocator@D@2@@std@@PEAVShape@gl@yourgame@@@std@@@std@@@std@@QEAAXAEAV?$allocator@U?$_Tree_node@U?$pair@$$CBV?$basic_string@DU?$char_traits@D@std@@V?$allocator@D@2@@std@@PEAVShape@gl@yourgame@@@std@@PEAX@std@@@1@PEAU?$_Tree_node@U?$pair@$$CBV?$basic_string@DU?$char_traits@D@std@@V?$allocator@D@2@@std@@PEAVShape@gl@yourgame@@@std@@PEAX@1@@Z 000000014003c8d0 f   yourgame:geometry.obj
 0001:0003b990       ??$_Erase_tree@V?$allocator@U?$_Tree_node@U?$pair@$$CBV?$basic_string@DU?$char_traits@D@std@@V?$allocator@D@2@@std@@PEAVBuffer@gl@yourgame@@@std@@PEAX@std@@@std@@@?$_Tree_val@U?$_Tree_simple_types@U?$pair@$$CBV?$basic_string@DU?$char_traits@D@std@@V?$allocator@D@2@@std@@PEAVBuffer@gl@yourgame@@@std@@@std@@@std@@QEAAXAEAV?$allocator@U?$_Tree_node@U?$pair@$$CBV?$basic_string@DU?$char_traits@D@std@@V?$allocator@D@2@@std@@PEAVBuffer@gl@yourgame@@@std@@PEAX@std@@@1@PEAU?$_Tree_node@U?$pair@$$CBV?$basic_string@DU?$char_traits@D@std@@V?$allocator@D@2@@std@@PEAVBuffer@gl@yourgame@@@std@@PEAX@1@@Z 000000014003c990 f   yourgame:geometry.obj
 0001:0003ba50       ??$_Emplace@U?$pair@V?$basic_string@DU?$char_traits@D@std@@V?$allocator@D@2@@std@@PEAVBuffer@gl@yourgame@@@std@@@?$_Tree@V?$_Tmap_traits@V?$basic_string@DU?$char_traits@D@std@@V?$allocator@D@2@@std@@PEAVBuffer@gl@yourgame@@U?$less@V?$basic_string@DU?$char_traits@D@std@@V?$allocator@D@2@@std@@@2@V?$allocator@U?$pair@$$CBV?$basic_string@DU?$char_traits@D@std@@V?$allocator@D@2@@std@@PEAVBuffer@gl@yourgame@@@std@@@2@$0A@@std@@@std@@IEAA?AU?$pair@PEAU?$_Tree_node@U?$pair@$$CBV?$basic_string@DU?$char_traits@D@std@@V?$allocator@D@2@@std@@PEAVBuffer@gl@yourgame@@@std@@PEAX@std@@_N@1@$$QEAU?$pair@V?$basic_string@DU?$char_traits@D@std@@V?$allocator@D@2@@std@@PEAVBuffer@gl@yourgame@@@1@@Z 000000014003ca50 f   yourgame:geometry.obj
 0001:0003bc80       ?_Insert_node@?$_Tree_val@U?$_Tree_simple_types@U?$pair@$$CBV?$basic_string@DU?$char_traits@D@std@@V?$allocator@D@2@@std@@PEAVBuffer@gl@yourgame@@@std@@@std@@@std@@QEAAPEAU?$_Tree_node@U?$pair@$$CBV?$basic_string@DU?$char_traits@D@std@@V?$allocator@D@2@@std@@PEAVBuffer@gl@yourgame@@@std@@PEAX@2@U?$_Tree_id@PEAU?$_Tree_node@U?$pair@$$CBV?$basic_string@DU?$char_traits@D@std@@V?$allocator@D@2@@std@@PEAVBuffer@gl@yourgame@@@std@@PEAX@std@@@2@QEAU32@@Z 000000014003cc80 f   yourgame:geometry.obj
 0001:0003bee0       ??$_Find@V?$basic_string@DU?$char_traits@D@std@@V?$allocator@D@2@@std@@@?$_Tree@V?$_Tmap_traits@V?$basic_string@DU?$char_traits@D@std@@V?$allocator@D@2@@std@@PEAVBuffer@gl@yourgame@@U?$less@V?$basic_string@DU?$char_traits@D@std@@V?$allocator@D@2@@std@@@2@V?$allocator@U?$pair@$$CBV?$basic_string@DU?$char_traits@D@std@@V?$allocator@D@2@@std@@PEAVBuffer@gl@yourgame@@@std@@@2@$0A@@std@@@std@@AEBAPEAU?$_Tree_node@U?$pair@$$CBV?$basic_string@DU?$char_traits@D@std@@V?$allocator@D@2@@std@@PEAVBuffer@gl@yourgame@@@std@@PEAX@1@AEBV?$basic_string@DU?$char_traits@D@std@@V?$allocator@D@2@@1@@Z 000000014003cee0 f   yourgame:geometry.obj
 0001:0003c020       ??$_Try_emplace@AEBV?$basic_string@DU?$char_traits@D@std@@V?$allocator@D@2@@std@@$$V@?$map@V?$basic_string@DU?$char_traits@D@std@@V?$allocator@D@2@@std@@PEAVBuffer@gl@yourgame@@U?$less@V?$basic_string@DU?$char_traits@D@std@@V?$allocator@D@2@@std@@@2@V?$allocator@U?$pair@$$CBV?$basic_string@DU?$char_traits@D@std@@V?$allocator@D@2@@std@@PEAVBuffer@gl@yourgame@@@std@@@2@@std@@AEAA?AU?$pair@PEAU?$_Tree_node@U?$pair@$$CBV?$basic_string@DU?$char_traits@D@std@@V?$allocator@D@2@@std@@PEAVBuffer@gl@yourgame@@@std@@PEAX@std@@_N@1@AEBV?$basic_string@DU?$char_traits@D@std@@V?$allocator@D@2@@1@@Z 000000014003d020 f   yourgame:geometry.obj
 0001:0003c250       ??$?0V?$tuple@AEBV?$basic_string@DU?$char_traits@D@std@@V?$allocator@D@2@@std@@@std@@V?$tuple@$$V@1@$0A@$$Z$S@?$pair@$$CBV?$basic_string@DU?$char_traits@D@std@@V?$allocator@D@2@@std@@PEAVBuffer@gl@yourgame@@@std@@QEAA@AEAV?$tuple@AEBV?$basic_string@DU?$char_traits@D@std@@V?$allocator@D@2@@std@@@1@AEAV?$tuple@$$V@1@U?$integer_sequence@_K$0A@@1@U?$integer_sequence@_K$S@1@@Z 000000014003d250 f   yourgame:geometry.obj
 0001:0003c360       ??$_Emplace_reallocate@AEBQEAVBuffer@gl@yourgame@@@?$vector@PEAVBuffer@gl@yourgame@@V?$allocator@PEAVBuffer@gl@yourgame@@@std@@@std@@AEAAPEAPEAVBuffer@gl@yourgame@@QEAPEAV234@AEBQEAV234@@Z 000000014003d360 f   yourgame:geometry.obj
 0001:0003c510       ?_Xlength@?$vector@PEAVBuffer@gl@yourgame@@V?$allocator@PEAVBuffer@gl@yourgame@@@std@@@std@@CAXXZ 000000014003d510 f   yourgame:geometry.obj
 0001:0003c540       ??$_Emplace@U?$pair@V?$basic_string@DU?$char_traits@D@std@@V?$allocator@D@2@@std@@PEAVShape@gl@yourgame@@@std@@@?$_Tree@V?$_Tmap_traits@V?$basic_string@DU?$char_traits@D@std@@V?$allocator@D@2@@std@@PEAVShape@gl@yourgame@@U?$less@V?$basic_string@DU?$char_traits@D@std@@V?$allocator@D@2@@std@@@2@V?$allocator@U?$pair@$$CBV?$basic_string@DU?$char_traits@D@std@@V?$allocator@D@2@@std@@PEAVShape@gl@yourgame@@@std@@@2@$0A@@std@@@std@@IEAA?AU?$pair@PEAU?$_Tree_node@U?$pair@$$CBV?$basic_string@DU?$char_traits@D@std@@V?$allocator@D@2@@std@@PEAVShape@gl@yourgame@@@std@@PEAX@std@@_N@1@$$QEAU?$pair@V?$basic_string@DU?$char_traits@D@std@@V?$allocator@D@2@@std@@PEAVShape@gl@yourgame@@@1@@Z 000000014003d540 f   yourgame:geometry.obj
 0001:0003c770       ?_Insert_node@?$_Tree_val@U?$_Tree_simple_types@U?$pair@$$CBV?$basic_string@DU?$char_traits@D@std@@V?$allocator@D@2@@std@@PEAVShape@gl@yourgame@@@std@@@std@@@std@@QEAAPEAU?$_Tree_node@U?$pair@$$CBV?$basic_string@DU?$char_traits@D@std@@V?$allocator@D@2@@std@@PEAVShape@gl@yourgame@@@std@@PEAX@2@U?$_Tree_id@PEAU?$_Tree_node@U?$pair@$$CBV?$basic_string@DU?$char_traits@D@std@@V?$allocator@D@2@@std@@PEAVShape@gl@yourgame@@@std@@PEAX@std@@@2@QEAU32@@Z 000000014003d770 f   yourgame:geometry.obj
 0001:0003c9d0       ??$_Find@V?$basic_string@DU?$char_traits@D@std@@V?$allocator@D@2@@std@@@?$_Tree@V?$_Tmap_traits@V?$basic_string@DU?$char_traits@D@std@@V?$allocator@D@2@@std@@PEAVShape@gl@yourgame@@U?$less@V?$basic_string@DU?$char_traits@D@std@@V?$allocator@D@2@@std@@@2@V?$allocator@U?$pair@$$CBV?$basic_string@DU?$char_traits@D@std@@V?$allocator@D@2@@std@@PEAVShape@gl@yourgame@@@std@@@2@$0A@@std@@@std@@AEBAPEAU?$_Tree_node@U?$pair@$$CBV?$basic_string@DU?$char_traits@D@std@@V?$allocator@D@2@@std@@PEAVShape@gl@yourgame@@@std@@PEAX@1@AEBV?$basic_string@DU?$char_traits@D@std@@V?$allocator@D@2@@1@@Z 000000014003d9d0 f   yourgame:geometry.obj
 0001:0003cb10       gladLoadGL                 000000014003db10 f   yourgame:glad.obj
 0001:00047250       gladLoadGLLoader           0000000140048250 f   yourgame:glad.obj
 0001:00049cb0       sscanf_s                   000000014004acb0 f   yourgame:glad.obj
 0001:00049d50       __local_stdio_scanf_options 000000014004ad50 f   yourgame:glad.obj
 0001:00049d70       ?wantToExit@yourgame_internal_desktop@@YA_NXZ 000000014004ad70 f   yourgame:yourgame.obj
 0001:00049d90       ?init@yourgame_internal_desktop@@YAHHQEAPEAD@Z 000000014004ad90 f   yourgame:yourgame.obj
 0001:0004a6e0       ??$info@$$BY0O@D@log@yourgame@@YAXAEAY0O@$$CBD@Z 000000014004b6e0 f   yourgame:yourgame.obj
 0001:0004a920       ??$error@$$BY0BC@D@log@yourgame@@YAXAEAY0BC@$$CBD@Z 000000014004b920 f   yourgame:yourgame.obj
 0001:0004ab60       ??$error@$$BY0BK@D@log@yourgame@@YAXAEAY0BK@$$CBD@Z 000000014004bb60 f   yourgame:yourgame.obj
 0001:0004ae10       ??$info@$$BY0BA@D@log@yourgame@@YAXAEAY0BA@$$CBD@Z 000000014004be10 f   yourgame:yourgame.obj
 0001:0004b050       ??$error@$$BY0BE@D@log@yourgame@@YAXAEAY0BE@$$CBD@Z 000000014004c050 f   yourgame:yourgame.obj
 0001:0004b290       ?tick@yourgame_internal_desktop@@YAXXZ 000000014004c290 f   yourgame:yourgame.obj
 0001:0004b340       ?shutdown@yourgame_internal_desktop@@YAHXZ 000000014004c340 f   yourgame:yourgame.obj
 0001:0004b3c0       ?exit@control@yourgame@@YAXXZ 000000014004c3c0 f   yourgame:yourgame.obj
 0001:0004b3e0       ?sendCmdToEnv@control@yourgame@@YAHHHHH@Z 000000014004c3e0 f   yourgame:yourgame.obj
 0001:0004b400       ?enableFullscreen@control@yourgame@@YAX_N@Z 000000014004c400 f   yourgame:yourgame.obj
 0001:0004b580       ?enableVSync@control@yourgame@@YAX_N@Z 000000014004c580 f   yourgame:yourgame.obj
 0001:0004b5e0       ?catchMouse@control@yourgame@@YAX_N@Z 000000014004c5e0 f   yourgame:yourgame.obj
 0001:0004b650       ??$log_@PEBE$$V@Logger@el@@AEAAXW4Level@1@HPEBDAEBQEBE@Z 000000014004c650 f   yourgame:yourgame.obj
 0001:0004b7f0       ??$log_@NN@Logger@el@@AEAAXW4Level@1@HPEBDAEBN2@Z 000000014004c7f0 f   yourgame:yourgame.obj
 0001:0004b970       ??$log_@N$$V@Logger@el@@AEAAXW4Level@1@HPEBDAEBN@Z 000000014004c970 f   yourgame:yourgame.obj
 0001:0004bb10       ?mat@Trafo@math@yourgame@@QEAA?AU?$mat@$03$03M$0A@@glm@@XZ 000000014004cb10 f   yourgame:trafo.obj
 0001:0004bb60       ?updateMatrixIfInvalidated@Trafo@math@yourgame@@AEAAXXZ 000000014004cb60 f   yourgame:trafo.obj
 0001:0004bf00       ?rotateLocal@Trafo@math@yourgame@@QEAAXMW4Axis@23@@Z 000000014004cf00 f   yourgame:trafo.obj
 0001:0004c050       ?getAxisGlobal@Trafo@math@yourgame@@QEBA?AU?$vec@$02M$0A@@glm@@W4Axis@23@@Z 000000014004d050 f   yourgame:trafo.obj
 0001:0004c0a0       ?rotateGlobal@Trafo@math@yourgame@@QEAAXMW4Axis@23@@Z 000000014004d0a0 f   yourgame:trafo.obj
 0001:0004c1d0       ?translateLocal@Trafo@math@yourgame@@QEAAXMW4Axis@23@@Z 000000014004d1d0 f   yourgame:trafo.obj
 0001:0004c270       ?getAxisLocal@Trafo@math@yourgame@@QEAA?AU?$vec@$02M$0A@@glm@@W4Axis@23@@Z 000000014004d270 f   yourgame:trafo.obj
 0001:0004c2e0       ?translateLocal@Trafo@math@yourgame@@QEAAXAEBU?$vec@$02M$0A@@glm@@@Z 000000014004d2e0 f   yourgame:trafo.obj
 0001:0004c3b0       ?translateGlobal@Trafo@math@yourgame@@QEAAXMW4Axis@23@@Z 000000014004d3b0 f   yourgame:trafo.obj
 0001:0004c420       ?translateGlobal@Trafo@math@yourgame@@QEAAXAEBU?$vec@$02M$0A@@glm@@@Z 000000014004d420 f   yourgame:trafo.obj
 0001:0004c460       ?setScaleLocal@Trafo@math@yourgame@@QEAAXAEBU?$vec@$02M$0A@@glm@@@Z 000000014004d460 f   yourgame:trafo.obj
 0001:0004c480       ?setScaleLocal@Trafo@math@yourgame@@QEAAXM@Z 000000014004d480 f   yourgame:trafo.obj
 0001:0004c4a0       ?setRotation@Trafo@math@yourgame@@QEAAXAEBU?$qua@M$0A@@glm@@@Z 000000014004d4a0 f   yourgame:trafo.obj
 0001:0004c4c0       ?setTranslation@Trafo@math@yourgame@@QEAAXAEBU?$vec@$02M$0A@@glm@@@Z 000000014004d4c0 f   yourgame:trafo.obj
 0001:0004c4e0       ?pointTo@Trafo@math@yourgame@@QEAAXAEBU?$vec@$02M$0A@@glm@@00@Z 000000014004d4e0 f   yourgame:trafo.obj
 0001:0004c5e0       ??$quatLookAtLH@M$0A@@glm@@YA?AU?$qua@M$0A@@0@AEBU?$vec@$02M$0A@@0@0@Z 000000014004d5e0 f   yourgame:trafo.obj
 0001:0004c8b0       ?lookAt@Trafo@math@yourgame@@QEAAXAEBU?$vec@$02M$0A@@glm@@00@Z 000000014004d8b0 f   yourgame:trafo.obj
 0001:0004c9b0       ?lerp@Trafo@math@yourgame@@QEAAXMAEBV123@PEAV123@@Z 000000014004d9b0 f   yourgame:trafo.obj
 0001:0004ca90       ??$?DM$0A@@glm@@YA?AU?$mat@$03$03M$0A@@0@AEBU10@0@Z 000000014004da90 f   yourgame:trafo.obj
 0001:0004cc40       ?setIdentity@Trafo@math@yourgame@@QEAAXXZ 000000014004dc40 f   yourgame:trafo.obj
 0001:0004cc70       ?getEye@Trafo@math@yourgame@@QEBA?AU?$vec@$02M$0A@@glm@@XZ 000000014004dc70 f   yourgame:trafo.obj
 0001:0004cc90       ?getRotation@Trafo@math@yourgame@@QEBA?AU?$qua@M$0A@@glm@@XZ 000000014004dc90 f   yourgame:trafo.obj
 0001:0004ccb0       ?getScale@Trafo@math@yourgame@@QEBA?AU?$vec@$02M$0A@@glm@@XZ 000000014004dcb0 f   yourgame:trafo.obj
 0001:0004ccd0       ??$quatLookAtRH@M$0A@@glm@@YA?AU?$qua@M$0A@@0@AEBU?$vec@$02M$0A@@0@0@Z 000000014004dcd0 f   yourgame:trafo.obj
 0001:0004cfc0       ?init@time@yourgame_internal@@YAXXZ 000000014004dfc0 f   yourgame:time.obj
 0001:0004d070       ?tick@time@yourgame_internal@@YAXXZ 000000014004e070 f   yourgame:time.obj
 0001:0004d130       ?getClockPeriod@time@yourgame@@YANXZ 000000014004e130 f   yourgame:time.obj
 0001:0004d150       ?getDelta@time@yourgame@@YANXZ 000000014004e150 f   yourgame:time.obj
 0001:0004d170       ?getTime@time@yourgame@@YANXZ 000000014004e170 f   yourgame:time.obj
 0001:0004d210       ?TextEx@ImGui@@YAXPEBD0H@Z 000000014004e210 f   yourgame:imgui_widgets.obj
 0001:0004d710       ?TextUnformatted@ImGui@@YAXPEBD0@Z 000000014004e710 f   yourgame:imgui_widgets.obj
 0001:0004d740       ?Text@ImGui@@YAXPEBDZZ     000000014004e740 f   yourgame:imgui_widgets.obj
 0001:0004d810       ?TextV@ImGui@@YAXPEBDPEAD@Z 000000014004e810 f   yourgame:imgui_widgets.obj
 0001:0004d8a0       ?TextColored@ImGui@@YAXAEBUImVec4@@PEBDZZ 000000014004e8a0 f   yourgame:imgui_widgets.obj
 0001:0004d900       ?TextColoredV@ImGui@@YAXAEBUImVec4@@PEBDPEAD@Z 000000014004e900 f   yourgame:imgui_widgets.obj
 0001:0004d9e0       ?TextDisabled@ImGui@@YAXPEBDZZ 000000014004e9e0 f   yourgame:imgui_widgets.obj
 0001:0004da40       ?TextDisabledV@ImGui@@YAXPEBDPEAD@Z 000000014004ea40 f   yourgame:imgui_widgets.obj
 0001:0004db20       ?TextWrapped@ImGui@@YAXPEBDZZ 000000014004eb20 f   yourgame:imgui_widgets.obj
 0001:0004db80       ?TextWrappedV@ImGui@@YAXPEBDPEAD@Z 000000014004eb80 f   yourgame:imgui_widgets.obj
 0001:0004dc80       ?LabelText@ImGui@@YAXPEBD0ZZ 000000014004ec80 f   yourgame:imgui_widgets.obj
 0001:0004dce0       ?LabelTextV@ImGui@@YAXPEBD0PEAD@Z 000000014004ece0 f   yourgame:imgui_widgets.obj
 0001:0004df20       ?BulletText@ImGui@@YAXPEBDZZ 000000014004ef20 f   yourgame:imgui_widgets.obj
 0001:0004df80       ?BulletTextV@ImGui@@YAXPEBDPEAD@Z 000000014004ef80 f   yourgame:imgui_widgets.obj
 0001:0004e1e0       ?ButtonBehavior@ImGui@@YA_NAEBUImRect@@IPEA_N1H@Z 000000014004f1e0 f   yourgame:imgui_widgets.obj
 0001:0004e940       ?ButtonEx@ImGui@@YA_NPEBDAEBUImVec2@@H@Z 000000014004f940 f   yourgame:imgui_widgets.obj
 0001:0004ec20       ?Button@ImGui@@YA_NPEBDAEBUImVec2@@@Z 000000014004fc20 f   yourgame:imgui_widgets.obj
 0001:0004ec50       ?SmallButton@ImGui@@YA_NPEBD@Z 000000014004fc50 f   yourgame:imgui_widgets.obj
 0001:0004ecf0       ?InvisibleButton@ImGui@@YA_NPEBDAEBUImVec2@@H@Z 000000014004fcf0 f   yourgame:imgui_widgets.obj
 0001:0004ee30       ?ArrowButtonEx@ImGui@@YA_NPEBDHUImVec2@@H@Z 000000014004fe30 f   yourgame:imgui_widgets.obj
 0001:0004f0b0       ?ArrowButton@ImGui@@YA_NPEBDH@Z 00000001400500b0 f   yourgame:imgui_widgets.obj
 0001:0004f100       ?CloseButton@ImGui@@YA_NIAEBUImVec2@@@Z 0000000140050100 f   yourgame:imgui_widgets.obj
 0001:0004f400       ?CollapseButton@ImGui@@YA_NIAEBUImVec2@@@Z 0000000140050400 f   yourgame:imgui_widgets.obj
 0001:0004f640       ?GetWindowScrollbarID@ImGui@@YAIPEAUImGuiWindow@@W4ImGuiAxis@@@Z 0000000140050640 f   yourgame:imgui_widgets.obj
 0001:0004f680       ?GetWindowScrollbarRect@ImGui@@YA?AUImRect@@PEAUImGuiWindow@@W4ImGuiAxis@@@Z 0000000140050680 f   yourgame:imgui_widgets.obj
 0001:0004f760       ?Scrollbar@ImGui@@YAXW4ImGuiAxis@@@Z 0000000140050760 f   yourgame:imgui_widgets.obj
 0001:0004f950       ?ScrollbarEx@ImGui@@YA_NAEBUImRect@@IW4ImGuiAxis@@PEAMMMH@Z 0000000140050950 f   yourgame:imgui_widgets.obj
 0001:0004feb0       ?Image@ImGui@@YAXPEAXAEBUImVec2@@11AEBUImVec4@@2@Z 0000000140050eb0 f   yourgame:imgui_widgets.obj
 0001:000500c0       ?ImageButtonEx@ImGui@@YA_NIPEAXAEBUImVec2@@111AEBUImVec4@@2@Z 00000001400510c0 f   yourgame:imgui_widgets.obj
 0001:00050380       ?ImageButton@ImGui@@YA_NPEAXAEBUImVec2@@11HAEBUImVec4@@2@Z 0000000140051380 f   yourgame:imgui_widgets.obj
 0001:000504b0       ?Checkbox@ImGui@@YA_NPEBDPEA_N@Z 00000001400514b0 f   yourgame:imgui_widgets.obj
 0001:00050930       ?CheckboxFlags@ImGui@@YA_NPEBDPEAHH@Z 0000000140051930 f   yourgame:imgui_widgets.obj
 0001:00050a10       ?CheckboxFlags@ImGui@@YA_NPEBDPEAII@Z 0000000140051a10 f   yourgame:imgui_widgets.obj
 0001:00050af0       ?CheckboxFlags@ImGui@@YA_NPEBDPEA_J_J@Z 0000000140051af0 f   yourgame:imgui_widgets.obj
 0001:00050be0       ?CheckboxFlags@ImGui@@YA_NPEBDPEA_K_K@Z 0000000140051be0 f   yourgame:imgui_widgets.obj
 0001:00050cd0       ?RadioButton@ImGui@@YA_NPEBD_N@Z 0000000140051cd0 f   yourgame:imgui_widgets.obj
 0001:00051110       ?RadioButton@ImGui@@YA_NPEBDPEAHH@Z 0000000140052110 f   yourgame:imgui_widgets.obj
 0001:00051150       ?ProgressBar@ImGui@@YAXMAEBUImVec2@@PEBD@Z 0000000140052150 f   yourgame:imgui_widgets.obj
 0001:000514c0       ?Bullet@ImGui@@YAXXZ       00000001400524c0 f   yourgame:imgui_widgets.obj
 0001:00051660       ?Spacing@ImGui@@YAXXZ      0000000140052660 f   yourgame:imgui_widgets.obj
 0001:000516f0       ?Dummy@ImGui@@YAXAEBUImVec2@@@Z 00000001400526f0 f   yourgame:imgui_widgets.obj
 0001:000517b0       ?NewLine@ImGui@@YAXXZ      00000001400527b0 f   yourgame:imgui_widgets.obj
 0001:00051890       ?AlignTextToFramePadding@ImGui@@YAXXZ 0000000140052890 f   yourgame:imgui_widgets.obj
 0001:00051930       ?SeparatorEx@ImGui@@YAXH@Z 0000000140052930 f   yourgame:imgui_widgets.obj
 0001:00051c60       ?Separator@ImGui@@YAXXZ    0000000140052c60 f   yourgame:imgui_widgets.obj
 0001:00051cb0       ?SplitterBehavior@ImGui@@YA_NAEBUImRect@@IW4ImGuiAxis@@PEAM2MMMM@Z 0000000140052cb0 f   yourgame:imgui_widgets.obj
 0001:00052000       ?ShrinkWidths@ImGui@@YAXPEAUImGuiShrinkWidthItem@@HM@Z 0000000140053000 f   yourgame:imgui_widgets.obj
 0001:00052360       ?BeginCombo@ImGui@@YA_NPEBD0H@Z 0000000140053360 f   yourgame:imgui_widgets.obj
 0001:00052c10       ?EndCombo@ImGui@@YAXXZ     0000000140053c10 f   yourgame:imgui_widgets.obj
 0001:00052c30       ?Combo@ImGui@@YA_NPEBDPEAHP6A_NPEAXHPEAPEBD@Z2HH@Z 0000000140053c30 f   yourgame:imgui_widgets.obj
 0001:00052e90       ?Selectable@ImGui@@YA_NPEBD_NHAEBUImVec2@@@Z 0000000140053e90 f   yourgame:imgui_widgets.obj
 0001:000534a0       ?Combo@ImGui@@YA_NPEBDPEAHQEBQEBDHH@Z 00000001400544a0 f   yourgame:imgui_widgets.obj
 0001:000536e0       ?Combo@ImGui@@YA_NPEBDPEAH0H@Z 00000001400546e0 f   yourgame:imgui_widgets.obj
 0001:000537f0       ?DataTypeGetInfo@ImGui@@YAPEBUImGuiDataTypeInfo@@H@Z 00000001400547f0 f   yourgame:imgui_widgets.obj
 0001:00053820       ?DataTypeFormatString@ImGui@@YAHPEADHHPEBXPEBD@Z 0000000140054820 f   yourgame:imgui_widgets.obj
 0001:000538e0       ?DataTypeApplyOp@ImGui@@YAXHHPEAXPEBX1@Z 00000001400548e0 f   yourgame:imgui_widgets.obj
 0001:00053d20       ?DataTypeApplyOpFromText@ImGui@@YA_NPEBD0HPEAX0@Z 0000000140054d20 f   yourgame:imgui_widgets.obj
 0001:000542e0       sscanf                     00000001400552e0 f   yourgame:imgui_widgets.obj
 0001:00054380       ?DataTypeCompare@ImGui@@YAHHPEBX0@Z 0000000140055380 f   yourgame:imgui_widgets.obj
 0001:00054480       ?DataTypeClamp@ImGui@@YA_NHPEAXPEBX1@Z 0000000140055480 f   yourgame:imgui_widgets.obj
 0001:00054690       ?DragBehavior@ImGui@@YA_NIHPEAXMPEBX1PEBDH@Z 0000000140055690 f   yourgame:imgui_widgets.obj
 0001:00054bc0       ??$DragBehaviorT@HHM@ImGui@@YA_NHPEAHMHHPEBDH@Z 0000000140055bc0 f   yourgame:imgui_widgets.obj
 0001:000550f0       ??$DragBehaviorT@IHM@ImGui@@YA_NHPEAIMIIPEBDH@Z 00000001400560f0 f   yourgame:imgui_widgets.obj
 0001:000557d0       ??$DragBehaviorT@_J_JN@ImGui@@YA_NHPEA_JM_J1PEBDH@Z 00000001400567d0 f   yourgame:imgui_widgets.obj
 0001:00055d30       ??$DragBehaviorT@_K_JN@ImGui@@YA_NHPEA_KM_K1PEBDH@Z 0000000140056d30 f   yourgame:imgui_widgets.obj
 0001:00056570       ??$DragBehaviorT@MMM@ImGui@@YA_NHPEAMMMMPEBDH@Z 0000000140057570 f   yourgame:imgui_widgets.obj
 0001:00056b00       ??$DragBehaviorT@NNN@ImGui@@YA_NHPEANMNNPEBDH@Z 0000000140057b00 f   yourgame:imgui_widgets.obj
 0001:000570d0       ?DragScalar@ImGui@@YA_NPEBDHPEAXMPEBX20H@Z 00000001400580d0 f   yourgame:imgui_widgets.obj
 0001:00057840       ?TempInputScalar@ImGui@@YA_NAEBUImRect@@IPEBDHPEAX1PEBX3@Z 0000000140058840 f   yourgame:imgui_widgets.obj
 0001:00057b80       ?DragScalarN@ImGui@@YA_NPEBDHPEAXHMPEBX20H@Z 0000000140058b80 f   yourgame:imgui_widgets.obj
 0001:00057e10       ?DragFloat@ImGui@@YA_NPEBDPEAMMMM0H@Z 0000000140058e10 f   yourgame:imgui_widgets.obj
 0001:00057ea0       ?DragFloat2@ImGui@@YA_NPEBDQEAMMMM0H@Z 0000000140058ea0 f   yourgame:imgui_widgets.obj
 0001:00057f30       ?DragFloat3@ImGui@@YA_NPEBDQEAMMMM0H@Z 0000000140058f30 f   yourgame:imgui_widgets.obj
 0001:00057fc0       ?DragFloat4@ImGui@@YA_NPEBDQEAMMMM0H@Z 0000000140058fc0 f   yourgame:imgui_widgets.obj
 0001:00058050       ?DragFloatRange2@ImGui@@YA_NPEBDPEAM1MMM00H@Z 0000000140059050 f   yourgame:imgui_widgets.obj
 0001:00058310       ?DragInt@ImGui@@YA_NPEBDPEAHMHH0H@Z 0000000140059310 f   yourgame:imgui_widgets.obj
 0001:000583a0       ?DragInt2@ImGui@@YA_NPEBDQEAHMHH0H@Z 00000001400593a0 f   yourgame:imgui_widgets.obj
 0001:00058430       ?DragInt3@ImGui@@YA_NPEBDQEAHMHH0H@Z 0000000140059430 f   yourgame:imgui_widgets.obj
 0001:000584c0       ?DragInt4@ImGui@@YA_NPEBDQEAHMHH0H@Z 00000001400594c0 f   yourgame:imgui_widgets.obj
 0001:00058550       ?DragIntRange2@ImGui@@YA_NPEBDPEAH1MHH00H@Z 0000000140059550 f   yourgame:imgui_widgets.obj
 0001:000587c0       ?DragScalar@ImGui@@YA_NPEBDHPEAXMPEBX20M@Z 00000001400597c0 f   yourgame:imgui_widgets.obj
 0001:00058820       ?DragScalarN@ImGui@@YA_NPEBDHPEAXHMPEBX20M@Z 0000000140059820 f   yourgame:imgui_widgets.obj
 0001:00058890       ?SliderBehavior@ImGui@@YA_NAEBUImRect@@IHPEAXPEBX2PEBDHPEAU2@@Z 0000000140059890 f   yourgame:imgui_widgets.obj
 0001:00058c50       ??$SliderBehaviorT@HHM@ImGui@@YA_NAEBUImRect@@IHPEAHHHPEBDHPEAU1@@Z 0000000140059c50 f   yourgame:imgui_widgets.obj
 0001:00059490       ??$SliderBehaviorT@IHM@ImGui@@YA_NAEBUImRect@@IHPEAIIIPEBDHPEAU1@@Z 000000014005a490 f   yourgame:imgui_widgets.obj
 0001:0005a110       ??$SliderBehaviorT@_J_JN@ImGui@@YA_NAEBUImRect@@IHPEA_J_J2PEBDHPEAU1@@Z 000000014005b110 f   yourgame:imgui_widgets.obj
 0001:0005a950       ??$SliderBehaviorT@_K_JN@ImGui@@YA_NAEBUImRect@@IHPEA_K_K2PEBDHPEAU1@@Z 000000014005b950 f   yourgame:imgui_widgets.obj
 0001:0005b8e0       ??$SliderBehaviorT@MMM@ImGui@@YA_NAEBUImRect@@IHPEAMMMPEBDHPEAU1@@Z 000000014005c8e0 f   yourgame:imgui_widgets.obj
 0001:0005c110       ??$SliderBehaviorT@NNN@ImGui@@YA_NAEBUImRect@@IHPEANNNPEBDHPEAU1@@Z 000000014005d110 f   yourgame:imgui_widgets.obj
 0001:0005c970       ?SliderScalar@ImGui@@YA_NPEBDHPEAXPEBX20H@Z 000000014005d970 f   yourgame:imgui_widgets.obj
 0001:0005cf60       ?SliderScalarN@ImGui@@YA_NPEBDHPEAXHPEBX20H@Z 000000014005df60 f   yourgame:imgui_widgets.obj
 0001:0005d1b0       ?SliderFloat@ImGui@@YA_NPEBDPEAMMM0H@Z 000000014005e1b0 f   yourgame:imgui_widgets.obj
 0001:0005d240       ?SliderFloat2@ImGui@@YA_NPEBDQEAMMM0H@Z 000000014005e240 f   yourgame:imgui_widgets.obj
 0001:0005d2d0       ?SliderFloat3@ImGui@@YA_NPEBDQEAMMM0H@Z 000000014005e2d0 f   yourgame:imgui_widgets.obj
 0001:0005d360       ?SliderFloat4@ImGui@@YA_NPEBDQEAMMM0H@Z 000000014005e360 f   yourgame:imgui_widgets.obj
 0001:0005d3f0       ?SliderAngle@ImGui@@YA_NPEBDPEAMMM0H@Z 000000014005e3f0 f   yourgame:imgui_widgets.obj
 0001:0005d4e0       ?SliderInt@ImGui@@YA_NPEBDPEAHHH0H@Z 000000014005e4e0 f   yourgame:imgui_widgets.obj
 0001:0005d570       ?SliderInt2@ImGui@@YA_NPEBDQEAHHH0H@Z 000000014005e570 f   yourgame:imgui_widgets.obj
 0001:0005d610       ?SliderInt3@ImGui@@YA_NPEBDQEAHHH0H@Z 000000014005e610 f   yourgame:imgui_widgets.obj
 0001:0005d6b0       ?SliderInt4@ImGui@@YA_NPEBDQEAHHH0H@Z 000000014005e6b0 f   yourgame:imgui_widgets.obj
 0001:0005d750       ?VSliderScalar@ImGui@@YA_NPEBDAEBUImVec2@@HPEAXPEBX30H@Z 000000014005e750 f   yourgame:imgui_widgets.obj
 0001:0005dc30       ?VSliderFloat@ImGui@@YA_NPEBDAEBUImVec2@@PEAMMM0H@Z 000000014005ec30 f   yourgame:imgui_widgets.obj
 0001:0005dcc0       ?VSliderInt@ImGui@@YA_NPEBDAEBUImVec2@@PEAHHH0H@Z 000000014005ecc0 f   yourgame:imgui_widgets.obj
 0001:0005dd50       ?SliderScalar@ImGui@@YA_NPEBDHPEAXPEBX20M@Z 000000014005ed50 f   yourgame:imgui_widgets.obj
 0001:0005dda0       ?SliderScalarN@ImGui@@YA_NPEBDHPEAXHPEBX20M@Z 000000014005eda0 f   yourgame:imgui_widgets.obj
 0001:0005de00       ?ImParseFormatFindStart@@YAPEBDPEBD@Z 000000014005ee00 f   yourgame:imgui_widgets.obj
 0001:0005de60       ?ImParseFormatFindEnd@@YAPEBDPEBD@Z 000000014005ee60 f   yourgame:imgui_widgets.obj
 0001:0005dee0       ?ImParseFormatTrimDecorations@@YAPEBDPEBDPEAD_K@Z 000000014005eee0 f   yourgame:imgui_widgets.obj
 0001:0005dfd0       ?ImParseFormatPrecision@@YAHPEBDH@Z 000000014005efd0 f   yourgame:imgui_widgets.obj
 0001:0005e100       ?TempInputText@ImGui@@YA_NAEBUImRect@@IPEBDPEADHH@Z 000000014005f100 f   yourgame:imgui_widgets.obj
 0001:0005e200       ?InputTextEx@ImGui@@YA_NPEBD0PEADHAEBUImVec2@@HP6AHPEAUImGuiInputTextCallbackData@@@ZPEAX@Z 000000014005f200 f   yourgame:imgui_widgets.obj
 0001:000619b0       ?InputScalar@ImGui@@YA_NPEBDHPEAXPEBX20H@Z 00000001400629b0 f   yourgame:imgui_widgets.obj
 0001:00061de0       ?InputText@ImGui@@YA_NPEBDPEAD_KHP6AHPEAUImGuiInputTextCallbackData@@@ZPEAX@Z 0000000140062de0 f   yourgame:imgui_widgets.obj
 0001:00061e60       ?InputScalarN@ImGui@@YA_NPEBDHPEAXHPEBX20H@Z 0000000140062e60 f   yourgame:imgui_widgets.obj
 0001:000620b0       ?InputFloat@ImGui@@YA_NPEBDPEAMMM0H@Z 00000001400630b0 f   yourgame:imgui_widgets.obj
 0001:00062150       ?InputFloat2@ImGui@@YA_NPEBDQEAM0H@Z 0000000140063150 f   yourgame:imgui_widgets.obj
 0001:000621a0       ?InputFloat3@ImGui@@YA_NPEBDQEAM0H@Z 00000001400631a0 f   yourgame:imgui_widgets.obj
 0001:000621f0       ?InputFloat4@ImGui@@YA_NPEBDQEAM0H@Z 00000001400631f0 f   yourgame:imgui_widgets.obj
 0001:00062240       ?InputInt@ImGui@@YA_NPEBDPEAHHHH@Z 0000000140063240 f   yourgame:imgui_widgets.obj
 0001:000622f0       ?InputInt2@ImGui@@YA_NPEBDQEAHH@Z 00000001400632f0 f   yourgame:imgui_widgets.obj
 0001:00062340       ?InputInt3@ImGui@@YA_NPEBDQEAHH@Z 0000000140063340 f   yourgame:imgui_widgets.obj
 0001:00062390       ?InputInt4@ImGui@@YA_NPEBDQEAHH@Z 0000000140063390 f   yourgame:imgui_widgets.obj
 0001:000623e0       ?InputDouble@ImGui@@YA_NPEBDPEANNN0H@Z 00000001400633e0 f   yourgame:imgui_widgets.obj
 0001:00062480       ?InputTextMultiline@ImGui@@YA_NPEBDPEAD_KAEBUImVec2@@HP6AHPEAUImGuiInputTextCallbackData@@@ZPEAX@Z 0000000140063480 f   yourgame:imgui_widgets.obj
 0001:000624d0       ?InputTextWithHint@ImGui@@YA_NPEBD0PEAD_KHP6AHPEAUImGuiInputTextCallbackData@@@ZPEAX@Z 00000001400634d0 f   yourgame:imgui_widgets.obj
 0001:00062550       ?OnKeyPressed@ImGuiInputTextState@@QEAAXH@Z 0000000140063550 f   yourgame:imgui_widgets.obj
 0001:00063be0       ??0ImGuiInputTextCallbackData@@QEAA@XZ 0000000140064be0 f   yourgame:imgui_widgets.obj
 0001:00063c10       ?DeleteChars@ImGuiInputTextCallbackData@@QEAAXHH@Z 0000000140064c10 f   yourgame:imgui_widgets.obj
 0001:00063c80       ?InsertChars@ImGuiInputTextCallbackData@@QEAAXHPEBD0@Z 0000000140064c80 f   yourgame:imgui_widgets.obj
 0001:00063e30       ?resize@?$ImVector@G@@QEAAXH@Z 0000000140064e30 f   yourgame:imgui_widgets.obj
 0001:000641d0       ?ColorEdit3@ImGui@@YA_NPEBDQEAMH@Z 00000001400651d0 f   yourgame:imgui_widgets.obj
 0001:00064200       ?ColorEdit4@ImGui@@YA_NPEBDQEAMH@Z 0000000140065200 f   yourgame:imgui_widgets.obj
 0001:000652d0       ?ColorEditOptionsPopup@ImGui@@YAXPEBMH@Z 00000001400662d0 f   yourgame:imgui_widgets.obj
 0001:00065880       ?ColorButton@ImGui@@YA_NPEBDAEBUImVec4@@HUImVec2@@@Z 0000000140066880 f   yourgame:imgui_widgets.obj
 0001:00065f40       ?ColorPicker4@ImGui@@YA_NPEBDQEAMHPEBM@Z 0000000140066f40 f   yourgame:imgui_widgets.obj
 0001:00068440       ?ColorPicker3@ImGui@@YA_NPEBDQEAMH@Z 0000000140069440 f   yourgame:imgui_widgets.obj
 0001:000684e0       ?ColorPickerOptionsPopup@ImGui@@YAXPEBMH@Z 00000001400694e0 f   yourgame:imgui_widgets.obj
 0001:000688b0       ?ColorTooltip@ImGui@@YAXPEBDPEBMH@Z 00000001400698b0 f   yourgame:imgui_widgets.obj
 0001:00068c80       ?SetColorEditOptions@ImGui@@YAXH@Z 0000000140069c80 f   yourgame:imgui_widgets.obj
 0001:00068cf0       ?TreeNode@ImGui@@YA_NPEBD0ZZ 0000000140069cf0 f   yourgame:imgui_widgets.obj
 0001:00068de0       ?TreeNodeExV@ImGui@@YA_NPEBDH0PEAD@Z 0000000140069de0 f   yourgame:imgui_widgets.obj
 0001:00068e90       ?TreeNode@ImGui@@YA_NPEBXPEBDZZ 0000000140069e90 f   yourgame:imgui_widgets.obj
 0001:00068f80       ?TreeNodeExV@ImGui@@YA_NPEBXHPEBDPEAD@Z 0000000140069f80 f   yourgame:imgui_widgets.obj
 0001:00069030       ?TreeNode@ImGui@@YA_NPEBD@Z 000000014006a030 f   yourgame:imgui_widgets.obj
 0001:000690b0       ?TreeNodeBehavior@ImGui@@YA_NIHPEBD0@Z 000000014006a0b0 f   yourgame:imgui_widgets.obj
 0001:00069a40       ?TreeNodeV@ImGui@@YA_NPEBD0PEAD@Z 000000014006aa40 f   yourgame:imgui_widgets.obj
 0001:00069af0       ?TreeNodeV@ImGui@@YA_NPEBXPEBDPEAD@Z 000000014006aaf0 f   yourgame:imgui_widgets.obj
 0001:00069ba0       ?TreeNodeEx@ImGui@@YA_NPEBDH@Z 000000014006aba0 f   yourgame:imgui_widgets.obj
 0001:00069c20       ?TreeNodeEx@ImGui@@YA_NPEBDH0ZZ 000000014006ac20 f   yourgame:imgui_widgets.obj
 0001:00069d10       ?TreeNodeEx@ImGui@@YA_NPEBXHPEBDZZ 000000014006ad10 f   yourgame:imgui_widgets.obj
 0001:00069df0       ?TreeNodeBehaviorIsOpen@ImGui@@YA_NIH@Z 000000014006adf0 f   yourgame:imgui_widgets.obj
 0001:00069ef0       ?TreePushOverrideID@ImGui@@YAXI@Z 000000014006aef0 f   yourgame:imgui_widgets.obj
 0001:00069ff0       ?TreePush@ImGui@@YAXPEBD@Z 000000014006aff0 f   yourgame:imgui_widgets.obj
 0001:0006a060       ?TreePush@ImGui@@YAXPEBX@Z 000000014006b060 f   yourgame:imgui_widgets.obj
 0001:0006a0d0       ?TreePop@ImGui@@YAXXZ      000000014006b0d0 f   yourgame:imgui_widgets.obj
 0001:0006a1e0       ?GetTreeNodeToLabelSpacing@ImGui@@YAMXZ 000000014006b1e0 f   yourgame:imgui_widgets.obj
 0001:0006a210       ?SetNextItemOpen@ImGui@@YAX_NH@Z 000000014006b210 f   yourgame:imgui_widgets.obj
 0001:0006a260       ?CollapsingHeader@ImGui@@YA_NPEBDH@Z 000000014006b260 f   yourgame:imgui_widgets.obj
 0001:0006a2e0       ?CollapsingHeader@ImGui@@YA_NPEBDPEA_NH@Z 000000014006b2e0 f   yourgame:imgui_widgets.obj
 0001:0006a4d0       ?Selectable@ImGui@@YA_NPEBDPEA_NHAEBUImVec2@@@Z 000000014006b4d0 f   yourgame:imgui_widgets.obj
 0001:0006a500       ?BeginListBox@ImGui@@YA_NPEBDAEBUImVec2@@@Z 000000014006b500 f   yourgame:imgui_widgets.obj
 0001:0006a7d0       ?ListBoxHeader@ImGui@@YA_NPEBDHH@Z 000000014006b7d0 f   yourgame:imgui_widgets.obj
 0001:0006a8a0       ?EndListBox@ImGui@@YAXXZ   000000014006b8a0 f   yourgame:imgui_widgets.obj
 0001:0006a8d0       ?ListBox@ImGui@@YA_NPEBDPEAHQEBQEBDHH@Z 000000014006b8d0 f   yourgame:imgui_widgets.obj
 0001:0006a910       ?ListBox@ImGui@@YA_NPEBDPEAHP6A_NPEAXHPEAPEBD@Z2HH@Z 000000014006b910 f   yourgame:imgui_widgets.obj
 0001:0006ab80       ?PlotEx@ImGui@@YAHW4ImGuiPlotType@@PEBDP6AMPEAXH@Z2HH1MMUImVec2@@@Z 000000014006bb80 f   yourgame:imgui_widgets.obj
 0001:0006b4b0       ?PlotLines@ImGui@@YAXPEBDPEBMHH0MMUImVec2@@H@Z 000000014006c4b0 f   yourgame:imgui_widgets.obj
 0001:0006b580       ?PlotLines@ImGui@@YAXPEBDP6AMPEAXH@Z1HH0MMUImVec2@@@Z 000000014006c580 f   yourgame:imgui_widgets.obj
 0001:0006b5f0       ?PlotHistogram@ImGui@@YAXPEBDPEBMHH0MMUImVec2@@H@Z 000000014006c5f0 f   yourgame:imgui_widgets.obj
 0001:0006b6a0       ?PlotHistogram@ImGui@@YAXPEBDP6AMPEAXH@Z1HH0MMUImVec2@@@Z 000000014006c6a0 f   yourgame:imgui_widgets.obj
 0001:0006b710       ?Value@ImGui@@YAXPEBD_N@Z  000000014006c710 f   yourgame:imgui_widgets.obj
 0001:0006b760       ?Value@ImGui@@YAXPEBDH@Z   000000014006c760 f   yourgame:imgui_widgets.obj
 0001:0006b790       ?Value@ImGui@@YAXPEBDI@Z   000000014006c790 f   yourgame:imgui_widgets.obj
 0001:0006b7c0       ?Value@ImGui@@YAXPEBDM0@Z  000000014006c7c0 f   yourgame:imgui_widgets.obj
 0001:0006b880       ?Update@ImGuiMenuColumns@@QEAAXHM_N@Z 000000014006c880 f   yourgame:imgui_widgets.obj
 0001:0006b940       ?DeclColumns@ImGuiMenuColumns@@QEAAMMMM@Z 000000014006c940 f   yourgame:imgui_widgets.obj
 0001:0006b9e0       ?CalcExtraSpace@ImGuiMenuColumns@@QEBAMM@Z 000000014006c9e0 f   yourgame:imgui_widgets.obj
 0001:0006ba00       ?BeginMenuBar@ImGui@@YA_NXZ 000000014006ca00 f   yourgame:imgui_widgets.obj
 0001:0006bcb0       ?EndMenuBar@ImGui@@YAXXZ   000000014006ccb0 f   yourgame:imgui_widgets.obj
 0001:0006be30       ?BeginMainMenuBar@ImGui@@YA_NXZ 000000014006ce30 f   yourgame:imgui_widgets.obj
 0001:0006c020       ?EndMainMenuBar@ImGui@@YAXXZ 000000014006d020 f   yourgame:imgui_widgets.obj
 0001:0006c090       ?BeginMenu@ImGui@@YA_NPEBD_N@Z 000000014006d090 f   yourgame:imgui_widgets.obj
 0001:0006cb00       ?EndMenu@ImGui@@YAXXZ      000000014006db00 f   yourgame:imgui_widgets.obj
 0001:0006cb90       ?MenuItem@ImGui@@YA_NPEBD0_N1@Z 000000014006db90 f   yourgame:imgui_widgets.obj
 0001:0006d030       ?MenuItem@ImGui@@YA_NPEBD0PEA_N_N@Z 000000014006e030 f   yourgame:imgui_widgets.obj
 0001:0006d080       ??0ImGuiTabBar@@QEAA@XZ    000000014006e080 f   yourgame:imgui_widgets.obj
 0001:0006d0e0       ?BeginTabBar@ImGui@@YA_NPEBDH@Z 000000014006e0e0 f   yourgame:imgui_widgets.obj
 0001:0006d220       ?BeginTabBarEx@ImGui@@YA_NPEAUImGuiTabBar@@AEBUImRect@@H@Z 000000014006e220 f   yourgame:imgui_widgets.obj
 0001:0006d5b0       ?EndTabBar@ImGui@@YAXXZ    000000014006e5b0 f   yourgame:imgui_widgets.obj
 0001:0006e9c0       ?TabBarFindTabByID@ImGui@@YAPEAUImGuiTabItem@@PEAUImGuiTabBar@@I@Z 000000014006f9c0 f   yourgame:imgui_widgets.obj
 0001:0006ea00       ?TabBarRemoveTab@ImGui@@YAXPEAUImGuiTabBar@@I@Z 000000014006fa00 f   yourgame:imgui_widgets.obj
 0001:0006eac0       ?TabBarCloseTab@ImGui@@YAXPEAUImGuiTabBar@@PEAUImGuiTabItem@@@Z 000000014006fac0 f   yourgame:imgui_widgets.obj
 0001:0006eb00       ?TabBarQueueReorder@ImGui@@YAXPEAUImGuiTabBar@@PEBUImGuiTabItem@@H@Z 000000014006fb00 f   yourgame:imgui_widgets.obj
 0001:0006eb20       ?TabBarProcessReorder@ImGui@@YA_NPEAUImGuiTabBar@@@Z 000000014006fb20 f   yourgame:imgui_widgets.obj
 0001:0006ec50       ?BeginTabItem@ImGui@@YA_NPEBDPEA_NH@Z 000000014006fc50 f   yourgame:imgui_widgets.obj
 0001:0006ece0       ?TabItemEx@ImGui@@YA_NPEAUImGuiTabBar@@PEBDPEA_NH@Z 000000014006fce0 f   yourgame:imgui_widgets.obj
 0001:0006f7d0       ?EndTabItem@ImGui@@YAXXZ   00000001400707d0 f   yourgame:imgui_widgets.obj
 0001:0006f830       ?TabItemButton@ImGui@@YA_NPEBDH@Z 0000000140070830 f   yourgame:imgui_widgets.obj
 0001:0006f890       ?TabItemCalcSize@ImGui@@YA?AUImVec2@@PEBD_N@Z 0000000140070890 f   yourgame:imgui_widgets.obj
 0001:0006f990       ?TabItemBackground@ImGui@@YAXPEAUImDrawList@@AEBUImRect@@HI@Z 0000000140070990 f   yourgame:imgui_widgets.obj
 0001:0006feb0       ?TabItemLabelAndCloseButton@ImGui@@YAXPEAUImDrawList@@AEBUImRect@@HUImVec2@@PEBDII_NPEA_N5@Z 0000000140070eb0 f   yourgame:imgui_widgets.obj
 0001:00070300       ?SetTabItemClosed@ImGui@@YAXPEBD@Z 0000000140071300 f   yourgame:imgui_widgets.obj
 0001:00071200       ??$ScaleRatioFromValueT@HHM@ImGui@@YAMHHHH_NMM@Z 0000000140072200 f   yourgame:imgui_widgets.obj
 0001:000714b0       ??$ScaleValueFromRatioT@HHM@ImGui@@YAHHMHH_NMM@Z 00000001400724b0 f   yourgame:imgui_widgets.obj
 0001:00071730       ??$RoundScalarWithFormatT@HH@ImGui@@YAHPEBDHH@Z 0000000140072730 f   yourgame:imgui_widgets.obj
 0001:000719d0       ??$RoundScalarWithFormatT@IH@ImGui@@YAIPEBDHI@Z 00000001400729d0 f   yourgame:imgui_widgets.obj
 0001:00071c70       ??$ScaleRatioFromValueT@_J_JN@ImGui@@YAMH_J00_NMM@Z 0000000140072c70 f   yourgame:imgui_widgets.obj
 0001:00071f80       ??$ScaleValueFromRatioT@_J_JN@ImGui@@YA_JHM_J0_NMM@Z 0000000140072f80 f   yourgame:imgui_widgets.obj
 0001:00072260       ??$RoundScalarWithFormatT@_J_J@ImGui@@YA_JPEBDH_J@Z 0000000140073260 f   yourgame:imgui_widgets.obj
 0001:00072510       ??$RoundScalarWithFormatT@_K_J@ImGui@@YA_KPEBDH_K@Z 0000000140073510 f   yourgame:imgui_widgets.obj
 0001:000727e0       ??$ScaleRatioFromValueT@MMM@ImGui@@YAMHMMM_NMM@Z 00000001400737e0 f   yourgame:imgui_widgets.obj
 0001:00072ae0       ??$ScaleValueFromRatioT@MMM@ImGui@@YAMHMMM_NMM@Z 0000000140073ae0 f   yourgame:imgui_widgets.obj
 0001:00072da0       ??$RoundScalarWithFormatT@MM@ImGui@@YAMPEBDHM@Z 0000000140073da0 f   yourgame:imgui_widgets.obj
 0001:00073070       ??$ScaleRatioFromValueT@NNN@ImGui@@YAMHNNN_NMM@Z 0000000140074070 f   yourgame:imgui_widgets.obj
 0001:000733d0       ??$ScaleValueFromRatioT@NNN@ImGui@@YANHMNN_NMM@Z 00000001400743d0 f   yourgame:imgui_widgets.obj
 0001:00073710       ??$RoundScalarWithFormatT@NN@ImGui@@YANPEBDHN@Z 0000000140074710 f   yourgame:imgui_widgets.obj
 0001:000739e0       ?Add@?$ImPool@UImGuiTabBar@@@@QEAAPEAUImGuiTabBar@@XZ 00000001400749e0 f   yourgame:imgui_widgets.obj
 0001:00073b20       ??0ImGuiStyle@@QEAA@XZ     0000000140074b20 f   yourgame:imgui.obj
 0001:00073c80       ?ScaleAllSizes@ImGuiStyle@@QEAAXM@Z 0000000140074c80 f   yourgame:imgui.obj
 0001:00073de0       ??0ImGuiIO@@QEAA@XZ        0000000140074de0 f   yourgame:imgui.obj
 0001:00074410       ?AddInputCharacter@ImGuiIO@@QEAAXI@Z 0000000140075410 f   yourgame:imgui.obj
 0001:00074540       ?AddInputCharacterUTF16@ImGuiIO@@QEAAXG@Z 0000000140075540 f   yourgame:imgui.obj
 0001:000748c0       ?AddInputCharactersUTF8@ImGuiIO@@QEAAXPEBD@Z 00000001400758c0 f   yourgame:imgui.obj
 0001:00074a70       ?ImTextCharFromUtf8@@YAHPEAIPEBD1@Z 0000000140075a70 f   yourgame:imgui.obj
 0001:00074c00       ?ClearInputCharacters@ImGuiIO@@QEAAXXZ 0000000140075c00 f   yourgame:imgui.obj
 0001:00074cd0       ?ImBezierCubicClosestPoint@@YA?AUImVec2@@AEBU1@0000H@Z 0000000140075cd0 f   yourgame:imgui.obj
 0001:00074ed0       ?ImLineClosestPoint@@YA?AUImVec2@@AEBU1@00@Z 0000000140075ed0 f   yourgame:imgui.obj
 0001:00074f60       ?ImBezierCubicClosestPointCasteljau@@YA?AUImVec2@@AEBU1@0000M@Z 0000000140075f60 f   yourgame:imgui.obj
 0001:000753f0       ?ImTriangleContainsPoint@@YA_NAEBUImVec2@@000@Z 00000001400763f0 f   yourgame:imgui.obj
 0001:000754f0       ?ImTriangleBarycentricCoords@@YAXAEBUImVec2@@000AEAM11@Z 00000001400764f0 f   yourgame:imgui.obj
 0001:000755c0       ?ImTriangleClosestPoint@@YA?AUImVec2@@AEBU1@000@Z 00000001400765c0 f   yourgame:imgui.obj
 0001:000757c0       ?ImStricmp@@YAHPEBD0@Z     00000001400767c0 f   yourgame:imgui.obj
 0001:00075850       ?ImStrnicmp@@YAHPEBD0_K@Z  0000000140076850 f   yourgame:imgui.obj
 0001:000758e0       ?ImStrncpy@@YAXPEADPEBD_K@Z 00000001400768e0 f   yourgame:imgui.obj
 0001:00075930       ?ImStrdup@@YAPEADPEBD@Z    0000000140076930 f   yourgame:imgui.obj
 0001:000759b0       ?MemAlloc@ImGui@@YAPEAX_K@Z 00000001400769b0 f   yourgame:imgui.obj
 0001:00075a00       ?ImStrdupcpy@@YAPEADPEADPEA_KPEBD@Z 0000000140076a00 f   yourgame:imgui.obj
 0001:00075ae0       ?MemFree@ImGui@@YAXPEAX@Z  0000000140076ae0 f   yourgame:imgui.obj
 0001:00075b30       ?ImStrchrRange@@YAPEBDPEBD0D@Z 0000000140076b30 f   yourgame:imgui.obj
 0001:00075b60       ?ImStrlenW@@YAHPEBG@Z      0000000140076b60 f   yourgame:imgui.obj
 0001:00075b90       ?ImStreolRange@@YAPEBDPEBD0@Z 0000000140076b90 f   yourgame:imgui.obj
 0001:00075bd0       ?ImStrbolW@@YAPEBGPEBG0@Z  0000000140076bd0 f   yourgame:imgui.obj
 0001:00075c00       ?ImStristr@@YAPEBDPEBD000@Z 0000000140076c00 f   yourgame:imgui.obj
 0001:00075d00       ?ImStrTrimBlanks@@YAXPEAD@Z 0000000140076d00 f   yourgame:imgui.obj
 0001:00075da0       ?ImStrSkipBlank@@YAPEBDPEBD@Z 0000000140076da0 f   yourgame:imgui.obj
 0001:00075dd0       ?ImFormatString@@YAHPEAD_KPEBDZZ 0000000140076dd0 f   yourgame:imgui.obj
 0001:00075e90       ?ImFormatStringV@@YAHPEAD_KPEBD0@Z 0000000140076e90 f   yourgame:imgui.obj
 0001:00075f20       ?ImHashData@@YAIPEBX_KI@Z  0000000140076f20 f   yourgame:imgui.obj
 0001:00075fb0       ?ImHashStr@@YAIPEBD_KI@Z   0000000140076fb0 f   yourgame:imgui.obj
 0001:00076090       ?ImFileOpen@@YAPEAU_iobuf@@PEBD0@Z 0000000140077090 f   yourgame:imgui.obj
 0001:00076200       ?ImFileClose@@YA_NPEAU_iobuf@@@Z 0000000140077200 f   yourgame:imgui.obj
 0001:00076230       ?ImFileGetSize@@YA_KPEAU_iobuf@@@Z 0000000140077230 f   yourgame:imgui.obj
 0001:000762c0       ?ImFileRead@@YA_KPEAX_K1PEAU_iobuf@@@Z 00000001400772c0 f   yourgame:imgui.obj
 0001:000762e0       ?ImFileWrite@@YA_KPEBX_K1PEAU_iobuf@@@Z 00000001400772e0 f   yourgame:imgui.obj
 0001:00076300       ?ImFileLoadToMemory@@YAPEAXPEBD0PEA_KH@Z 0000000140077300 f   yourgame:imgui.obj
 0001:000764b0       ?ImTextStrFromUtf8@@YAHPEAGHPEBD1PEAPEBD@Z 00000001400774b0 f   yourgame:imgui.obj
 0001:00076590       ?ImTextCountCharsFromUtf8@@YAHPEBD0@Z 0000000140077590 f   yourgame:imgui.obj
 0001:00076630       ?ImTextCountUtf8BytesFromChar@@YAHPEBD0@Z 0000000140077630 f   yourgame:imgui.obj
 0001:00076690       ?ImTextStrToUtf8@@YAHPEADHPEBG1@Z 0000000140077690 f   yourgame:imgui.obj
 0001:00076780       ?ImTextCountUtf8BytesFromStr@@YAHPEBG0@Z 0000000140077780 f   yourgame:imgui.obj
 0001:00076800       ?ImAlphaBlendColors@@YAIII@Z 0000000140077800 f   yourgame:imgui.obj
 0001:000768a0       ?ColorConvertU32ToFloat4@ImGui@@YA?AUImVec4@@I@Z 00000001400778a0 f   yourgame:imgui.obj
 0001:00076910       ?ColorConvertFloat4ToU32@ImGui@@YAIAEBUImVec4@@@Z 0000000140077910 f   yourgame:imgui.obj
 0001:000769f0       ?ColorConvertRGBtoHSV@ImGui@@YAXMMMAEAM00@Z 00000001400779f0 f   yourgame:imgui.obj
 0001:00076ad0       ?ColorConvertHSVtoRGB@ImGui@@YAXMMMAEAM00@Z 0000000140077ad0 f   yourgame:imgui.obj
 0001:00076c20       ?BuildSortByKey@ImGuiStorage@@QEAAXXZ 0000000140077c20 f   yourgame:imgui.obj
 0001:00076c90       ?GetInt@ImGuiStorage@@QEBAHIH@Z 0000000140077c90 f   yourgame:imgui.obj
 0001:00076d10       ?GetBool@ImGuiStorage@@QEBA_NI_N@Z 0000000140077d10 f   yourgame:imgui.obj
 0001:00076d90       ?GetFloat@ImGuiStorage@@QEBAMIM@Z 0000000140077d90 f   yourgame:imgui.obj
 0001:00076e10       ?GetVoidPtr@ImGuiStorage@@QEBAPEAXI@Z 0000000140077e10 f   yourgame:imgui.obj
 0001:00076e80       ?GetIntRef@ImGuiStorage@@QEAAPEAHIH@Z 0000000140077e80 f   yourgame:imgui.obj
 0001:00077040       ?GetBoolRef@ImGuiStorage@@QEAAPEA_NI_N@Z 0000000140078040 f   yourgame:imgui.obj
 0001:00077070       ?GetFloatRef@ImGuiStorage@@QEAAPEAMIM@Z 0000000140078070 f   yourgame:imgui.obj
 0001:00077220       ?GetVoidPtrRef@ImGuiStorage@@QEAAPEAPEAXIPEAX@Z 0000000140078220 f   yourgame:imgui.obj
 0001:000773e0       ?SetInt@ImGuiStorage@@QEAAXIH@Z 00000001400783e0 f   yourgame:imgui.obj
 0001:00077590       ?SetBool@ImGuiStorage@@QEAAXI_N@Z 0000000140078590 f   yourgame:imgui.obj
 0001:000775c0       ?SetFloat@ImGuiStorage@@QEAAXIM@Z 00000001400785c0 f   yourgame:imgui.obj
 0001:00077770       ?SetVoidPtr@ImGuiStorage@@QEAAXIPEAX@Z 0000000140078770 f   yourgame:imgui.obj
 0001:00077920       ?SetAllInt@ImGuiStorage@@QEAAXH@Z 0000000140078920 f   yourgame:imgui.obj
 0001:00077960       ??0ImGuiTextFilter@@QEAA@PEBD@Z 0000000140078960 f   yourgame:imgui.obj
 0001:000779d0       ?Build@ImGuiTextFilter@@QEAAXXZ 00000001400789d0 f   yourgame:imgui.obj
 0001:00077bf0       ?Draw@ImGuiTextFilter@@QEAA_NPEBDM@Z 0000000140078bf0 f   yourgame:imgui.obj
 0001:00077c70       ?SetNextItemWidth@ImGui@@YAXM@Z 0000000140078c70 f   yourgame:imgui.obj
 0001:00077ca0       ?split@ImGuiTextRange@ImGuiTextFilter@@QEBAXDPEAU?$ImVector@UImGuiTextRange@ImGuiTextFilter@@@@@Z 0000000140078ca0 f   yourgame:imgui.obj
 0001:00077f80       ?PassFilter@ImGuiTextFilter@@QEBA_NPEBD0@Z 0000000140078f80 f   yourgame:imgui.obj
 0001:00078040       ?append@ImGuiTextBuffer@@QEAAXPEBD0@Z 0000000140079040 f   yourgame:imgui.obj
 0001:000781c0       ?appendf@ImGuiTextBuffer@@QEAAXPEBDZZ 00000001400791c0 f   yourgame:imgui.obj
 0001:00078220       ?appendfv@ImGuiTextBuffer@@QEAAXPEBDPEAD@Z 0000000140079220 f   yourgame:imgui.obj
 0001:00078440       ?CalcListClipping@ImGui@@YAXHMPEAH0@Z 0000000140079440 f   yourgame:imgui.obj
 0001:000785a0       ??0ImGuiListClipper@@QEAA@XZ 00000001400795a0 f   yourgame:imgui.obj
 0001:000785d0       ??1ImGuiListClipper@@QEAA@XZ 00000001400795d0 f   yourgame:imgui.obj
 0001:000785e0       ?Begin@ImGuiListClipper@@QEAAXHM@Z 00000001400795e0 f   yourgame:imgui.obj
 0001:00078670       ?End@ImGuiListClipper@@QEAAXXZ 0000000140079670 f   yourgame:imgui.obj
 0001:000787b0       ?Step@ImGuiListClipper@@QEAA_NXZ 00000001400797b0 f   yourgame:imgui.obj
 0001:00078b40       ?GetStyle@ImGui@@YAAEAUImGuiStyle@@XZ 0000000140079b40 f   yourgame:imgui.obj
 0001:00078b60       ?GetColorU32@ImGui@@YAIHM@Z 0000000140079b60 f   yourgame:imgui.obj
 0001:00078c80       ?GetColorU32@ImGui@@YAIAEBUImVec4@@@Z 0000000140079c80 f   yourgame:imgui.obj
 0001:00078d90       ?GetStyleColorVec4@ImGui@@YAAEBUImVec4@@H@Z 0000000140079d90 f   yourgame:imgui.obj
 0001:00078dc0       ?GetColorU32@ImGui@@YAII@Z 0000000140079dc0 f   yourgame:imgui.obj
 0001:00078e20       ?PushStyleColor@ImGui@@YAXHI@Z 0000000140079e20 f   yourgame:imgui.obj
 0001:00079010       ?PushStyleColor@ImGui@@YAXHAEBUImVec4@@@Z 000000014007a010 f   yourgame:imgui.obj
 0001:000791b0       ?PopStyleColor@ImGui@@YAXH@Z 000000014007a1b0 f   yourgame:imgui.obj
 0001:00079230       ?PushStyleVar@ImGui@@YAXHM@Z 000000014007a230 f   yourgame:imgui.obj
 0001:000793c0       ?PushStyleVar@ImGui@@YAXHAEBUImVec2@@@Z 000000014007a3c0 f   yourgame:imgui.obj
 0001:00079560       ?PopStyleVar@ImGui@@YAXH@Z 000000014007a560 f   yourgame:imgui.obj
 0001:00079620       ?GetStyleColorName@ImGui@@YAPEBDH@Z 000000014007a620 f   yourgame:imgui.obj
 0001:00079bc0       ?FindRenderedTextEnd@ImGui@@YAPEBDPEBD0@Z 000000014007abc0 f   yourgame:imgui.obj
 0001:00079c20       ?RenderText@ImGui@@YAXUImVec2@@PEBD1_N@Z 000000014007ac20 f   yourgame:imgui.obj
 0001:00079e60       ?LogRenderedText@ImGui@@YAXPEBUImVec2@@PEBD1@Z 000000014007ae60 f   yourgame:imgui.obj
 0001:0007a0b0       ?RenderTextWrapped@ImGui@@YAXUImVec2@@PEBD1M@Z 000000014007b0b0 f   yourgame:imgui.obj
 0001:0007a2b0       ?RenderTextClippedEx@ImGui@@YAXPEAUImDrawList@@AEBUImVec2@@1PEBD2PEBU3@1PEBUImRect@@@Z 000000014007b2b0 f   yourgame:imgui.obj
 0001:0007a730       ?CalcTextSize@ImGui@@YA?AUImVec2@@PEBD0_NM@Z 000000014007b730 f   yourgame:imgui.obj
 0001:0007a820       ?RenderTextClipped@ImGui@@YAXAEBUImVec2@@0PEBD1PEBU2@0PEBUImRect@@@Z 000000014007b820 f   yourgame:imgui.obj
 0001:0007a900       ?RenderTextEllipsis@ImGui@@YAXPEAUImDrawList@@AEBUImVec2@@1MMPEBD2PEBU3@@Z 000000014007b900 f   yourgame:imgui.obj
 0001:0007afd0       ?RenderFrame@ImGui@@YAXUImVec2@@0I_NM@Z 000000014007bfd0 f   yourgame:imgui.obj
 0001:0007b330       ?RenderFrameBorder@ImGui@@YAXUImVec2@@0M@Z 000000014007c330 f   yourgame:imgui.obj
 0001:0007b640       ?RenderNavHighlight@ImGui@@YAXAEBUImRect@@IH@Z 000000014007c640 f   yourgame:imgui.obj
 0001:0007baa0       ??0ImGuiWindow@@QEAA@PEAUImGuiContext@@PEBD@Z 000000014007caa0 f   yourgame:imgui.obj
 0001:0007bdd0       ?GetID@ImGuiWindow@@QEAAIPEBD0@Z 000000014007cdd0 f   yourgame:imgui.obj
 0001:0007bef0       ??1ImGuiWindow@@QEAA@XZ    000000014007cef0 f   yourgame:imgui.obj
 0001:0007c110       ??1ImDrawList@@QEAA@XZ     000000014007d110 f   yourgame:imgui.obj
 0001:0007c240       ?KeepAliveID@ImGui@@YAXI@Z 000000014007d240 f   yourgame:imgui.obj
 0001:0007c280       ?GetID@ImGuiWindow@@QEAAIPEBX@Z 000000014007d280 f   yourgame:imgui.obj
 0001:0007c380       ?GetID@ImGuiWindow@@QEAAIH@Z 000000014007d380 f   yourgame:imgui.obj
 0001:0007c430       ?GetIDNoKeepAlive@ImGuiWindow@@QEAAIPEBD0@Z 000000014007d430 f   yourgame:imgui.obj
 0001:0007c530       ?GetIDNoKeepAlive@ImGuiWindow@@QEAAIPEBX@Z 000000014007d530 f   yourgame:imgui.obj
 0001:0007c600       ?GetIDNoKeepAlive@ImGuiWindow@@QEAAIH@Z 000000014007d600 f   yourgame:imgui.obj
 0001:0007c690       ?GetIDFromRectangle@ImGuiWindow@@QEAAIAEBUImRect@@@Z 000000014007d690 f   yourgame:imgui.obj
 0001:0007c880       ?GcCompactTransientMiscBuffers@ImGui@@YAXXZ 000000014007d880 f   yourgame:imgui.obj
 0001:0007c940       ?GcCompactTransientWindowBuffers@ImGui@@YAXPEAUImGuiWindow@@@Z 000000014007d940 f   yourgame:imgui.obj
 0001:0007ca90       ?GcAwakeTransientWindowBuffers@ImGui@@YAXPEAUImGuiWindow@@@Z 000000014007da90 f   yourgame:imgui.obj
 0001:0007cc20       ?SetActiveID@ImGui@@YAXIPEAUImGuiWindow@@@Z 000000014007dc20 f   yourgame:imgui.obj
 0001:0007cd40       ?ClearActiveID@ImGui@@YAXXZ 000000014007dd40 f   yourgame:imgui.obj
 0001:0007cdd0       ?SetHoveredID@ImGui@@YAXI@Z 000000014007ddd0 f   yourgame:imgui.obj
 0001:0007ce10       ?GetHoveredID@ImGui@@YAIXZ 000000014007de10 f   yourgame:imgui.obj
 0001:0007ce40       ?MarkItemEdited@ImGui@@YAXI@Z 000000014007de40 f   yourgame:imgui.obj
 0001:0007ce80       ?IsItemHovered@ImGui@@YA_NH@Z 000000014007de80 f   yourgame:imgui.obj
 0001:0007cfa0       ?IsItemFocused@ImGui@@YA_NXZ 000000014007dfa0 f   yourgame:imgui.obj
 0001:0007cfe0       ?ItemHoverable@ImGui@@YA_NAEBUImRect@@I@Z 000000014007dfe0 f   yourgame:imgui.obj
 0001:0007d210       ?IsMouseHoveringRect@ImGui@@YA_NAEBUImVec2@@0_N@Z 000000014007e210 f   yourgame:imgui.obj
 0001:0007d2d0       ?GetForegroundDrawList@ImGui@@YAPEAUImDrawList@@XZ 000000014007e2d0 f   yourgame:imgui.obj
 0001:0007d320       ?IsClippedEx@ImGui@@YA_NAEBUImRect@@I_N@Z 000000014007e320 f   yourgame:imgui.obj
 0001:0007d3b0       ?SetLastItemData@ImGui@@YAXPEAUImGuiWindow@@IHAEBUImRect@@@Z 000000014007e3b0 f   yourgame:imgui.obj
 0001:0007d3e0       ?FocusableItemRegister@ImGui@@YA_NPEAUImGuiWindow@@I@Z 000000014007e3e0 f   yourgame:imgui.obj
 0001:0007d530       ?FocusableItemUnregister@ImGui@@YAXPEAUImGuiWindow@@@Z 000000014007e530 f   yourgame:imgui.obj
 0001:0007d560       ?CalcWrapWidthForPos@ImGui@@YAMAEBUImVec2@@M@Z 000000014007e560 f   yourgame:imgui.obj
 0001:0007d5c0       ?GetClipboardText@ImGui@@YAPEBDXZ 000000014007e5c0 f   yourgame:imgui.obj
 0001:0007d610       ?SetClipboardText@ImGui@@YAXPEBD@Z 000000014007e610 f   yourgame:imgui.obj
 0001:0007d650       ?GetVersion@ImGui@@YAPEBDXZ 000000014007e650 f   yourgame:imgui.obj
 0001:0007d670       ?GetCurrentContext@ImGui@@YAPEAUImGuiContext@@XZ 000000014007e670 f   yourgame:imgui.obj
 0001:0007d690       ?SetCurrentContext@ImGui@@YAXPEAUImGuiContext@@@Z 000000014007e690 f   yourgame:imgui.obj
 0001:0007d6b0       ?SetAllocatorFunctions@ImGui@@YAXP6APEAX_KPEAX@ZP6AX11@Z1@Z 000000014007e6b0 f   yourgame:imgui.obj
 0001:0007d6f0       ?GetAllocatorFunctions@ImGui@@YAXPEAP6APEAX_KPEAX@ZPEAP6AX11@ZPEAPEAX@Z 000000014007e6f0 f   yourgame:imgui.obj
 0001:0007d730       ?CreateContext@ImGui@@YAPEAUImGuiContext@@PEAUImFontAtlas@@@Z 000000014007e730 f   yourgame:imgui.obj
 0001:0007d7c0       ??0ImGuiContext@@QEAA@PEAUImFontAtlas@@@Z 000000014007e7c0 f   yourgame:imgui.obj
 0001:0007df70       ?Initialize@ImGui@@YAXPEAUImGuiContext@@@Z 000000014007ef70 f   yourgame:imgui.obj
 0001:0007e240       ?DestroyContext@ImGui@@YAXPEAUImGuiContext@@@Z 000000014007f240 f   yourgame:imgui.obj
 0001:0007e2d0       ?Shutdown@ImGui@@YAXPEAUImGuiContext@@@Z 000000014007f2d0 f   yourgame:imgui.obj
 0001:0007edb0       ?AddContextHook@ImGui@@YAIPEAUImGuiContext@@PEBUImGuiContextHook@@@Z 000000014007fdb0 f   yourgame:imgui.obj
 0001:0007ef10       ?RemoveContextHook@ImGui@@YAXPEAUImGuiContext@@I@Z 000000014007ff10 f   yourgame:imgui.obj
 0001:0007ef70       ?CallContextHooks@ImGui@@YAXPEAUImGuiContext@@W4ImGuiContextHookType@@@Z 000000014007ff70 f   yourgame:imgui.obj
 0001:0007efe0       ?GetIO@ImGui@@YAAEAUImGuiIO@@XZ 000000014007ffe0 f   yourgame:imgui.obj
 0001:0007f000       ?GetDrawData@ImGui@@YAPEAUImDrawData@@XZ 0000000140080000 f   yourgame:imgui.obj
 0001:0007f040       ?GetTime@ImGui@@YANXZ      0000000140080040 f   yourgame:imgui.obj
 0001:0007f070       ?GetFrameCount@ImGui@@YAHXZ 0000000140080070 f   yourgame:imgui.obj
 0001:0007f090       ?GetBackgroundDrawList@ImGui@@YAPEAUImDrawList@@PEAUImGuiViewport@@@Z 0000000140080090 f   yourgame:imgui.obj
 0001:0007f210       ?GetBackgroundDrawList@ImGui@@YAPEAUImDrawList@@XZ 0000000140080210 f   yourgame:imgui.obj
 0001:0007f260       ?GetForegroundDrawList@ImGui@@YAPEAUImDrawList@@PEAUImGuiViewport@@@Z 0000000140080260 f   yourgame:imgui.obj
 0001:0007f290       ?GetDrawListSharedData@ImGui@@YAPEAUImDrawListSharedData@@XZ 0000000140080290 f   yourgame:imgui.obj
 0001:0007f2b0       ?StartMouseMovingWindow@ImGui@@YAXPEAUImGuiWindow@@@Z 00000001400802b0 f   yourgame:imgui.obj
 0001:0007f430       ?FocusWindow@ImGui@@YAXPEAUImGuiWindow@@@Z 0000000140080430 f   yourgame:imgui.obj
 0001:0007f6a0       ?UpdateMouseMovingWindowNewFrame@ImGui@@YAXXZ 00000001400806a0 f   yourgame:imgui.obj
 0001:0007f920       ?IsMousePosValid@ImGui@@YA_NPEBUImVec2@@@Z 0000000140080920 f   yourgame:imgui.obj
 0001:0007f980       ?MarkIniSettingsDirty@ImGui@@YAXPEAUImGuiWindow@@@Z 0000000140080980 f   yourgame:imgui.obj
 0001:0007f9c0       ?SetWindowPos@ImGui@@YAXPEAUImGuiWindow@@AEBUImVec2@@H@Z 00000001400809c0 f   yourgame:imgui.obj
 0001:0007fa50       ?UpdateMouseMovingWindowEndFrame@ImGui@@YAXXZ 0000000140080a50 f   yourgame:imgui.obj
 0001:0007fd30       ?IsPopupOpen@ImGui@@YA_NIH@Z 0000000140080d30 f   yourgame:imgui.obj
 0001:0007fde0       ?TitleBarRect@ImGuiWindow@@QEBA?AUImRect@@XZ 0000000140080de0 f   yourgame:imgui.obj
 0001:0007fe60       ?GetTopMostPopupModal@ImGui@@YAPEAUImGuiWindow@@XZ 0000000140080e60 f   yourgame:imgui.obj
 0001:0007fec0       ?IsWindowAbove@ImGui@@YA_NPEAUImGuiWindow@@0@Z 0000000140080ec0 f   yourgame:imgui.obj
 0001:0007ff10       ?ClosePopupsOverWindow@ImGui@@YAXPEAUImGuiWindow@@_N@Z 0000000140080f10 f   yourgame:imgui.obj
 0001:0007ffd0       ?UpdateHoveredWindowAndCaptureFlags@ImGui@@YAXXZ 0000000140080fd0 f   yourgame:imgui.obj
 0001:00080580       ?IsWindowChildOf@ImGui@@YA_NPEAUImGuiWindow@@0@Z 0000000140081580 f   yourgame:imgui.obj
 0001:000805d0       ?GetMergedKeyModFlags@ImGui@@YAHXZ 00000001400815d0 f   yourgame:imgui.obj
 0001:00080630       ?NewFrame@ImGui@@YAXXZ     0000000140081630 f   yourgame:imgui.obj
 0001:000850c0       ?SetCurrentFont@ImGui@@YAXPEAUImFont@@@Z 00000001400860c0 f   yourgame:imgui.obj
 0001:00085170       ?FocusTopMostWindowUnderOne@ImGui@@YAXPEAUImGuiWindow@@0@Z 0000000140086170 f   yourgame:imgui.obj
 0001:00085250       ?SetNextWindowSize@ImGui@@YAXAEBUImVec2@@H@Z 0000000140086250 f   yourgame:imgui.obj
 0001:00085290       ?Begin@ImGui@@YA_NPEBDPEA_NH@Z 0000000140086290 f   yourgame:imgui.obj
 0001:0008b320       ?SaveIniSettingsToDisk@ImGui@@YAXPEBD@Z 000000014008c320 f   yourgame:imgui.obj
 0001:0008b3f0       ?Clear@?$ImPool@UImGuiTabBar@@@@QEAAXXZ 000000014008c3f0 f   yourgame:imgui.obj
 0001:0008b540       ?Clear@?$ImPool@UImGuiTable@@@@QEAAXXZ 000000014008c540 f   yourgame:imgui.obj
 0001:0008b630       ?FlattenIntoSingleLayer@ImDrawDataBuilder@@QEAAXXZ 000000014008c630 f   yourgame:imgui.obj
 0001:0008b7f0       ?PushClipRect@ImGui@@YAXAEBUImVec2@@0_N@Z 000000014008c7f0 f   yourgame:imgui.obj
 0001:0008b870       ?PopClipRect@ImGui@@YAXXZ  000000014008c870 f   yourgame:imgui.obj
 0001:0008b8e0       ?EndFrame@ImGui@@YAXXZ     000000014008c8e0 f   yourgame:imgui.obj
 0001:0008c6c0       ?End@ImGui@@YAXXZ          000000014008d6c0 f   yourgame:imgui.obj
 0001:0008c830       ?IsMouseDown@ImGui@@YA_NH@Z 000000014008d830 f   yourgame:imgui.obj
 0001:0008c860       ?ClearDragDrop@ImGui@@YAXXZ 000000014008d860 f   yourgame:imgui.obj
 0001:0008c940       ?SetTooltip@ImGui@@YAXPEBDZZ 000000014008d940 f   yourgame:imgui.obj
 0001:0008cb50       ?Render@ImGui@@YAXXZ       000000014008db50 f   yourgame:imgui.obj
 0001:0008cfb0       ?Clear@ImDrawDataBuilder@@QEAAXXZ 000000014008dfb0 f   yourgame:imgui.obj
 0001:0008d210       ?GetKeyIndex@ImGui@@YAHH@Z 000000014008e210 f   yourgame:imgui.obj
 0001:0008d240       ?IsKeyDown@ImGui@@YA_NH@Z  000000014008e240 f   yourgame:imgui.obj
 0001:0008d270       ?CalcTypematicRepeatAmount@ImGui@@YAHMMMM@Z 000000014008e270 f   yourgame:imgui.obj
 0001:0008d300       ?GetKeyPressedAmount@ImGui@@YAHHMM@Z 000000014008e300 f   yourgame:imgui.obj
 0001:0008d3c0       ?IsKeyPressed@ImGui@@YA_NH_N@Z 000000014008e3c0 f   yourgame:imgui.obj
 0001:0008d4a0       ?IsKeyReleased@ImGui@@YA_NH@Z 000000014008e4a0 f   yourgame:imgui.obj
 0001:0008d4e0       ?IsMouseClicked@ImGui@@YA_NH_N@Z 000000014008e4e0 f   yourgame:imgui.obj
 0001:0008d5c0       ?IsMouseReleased@ImGui@@YA_NH@Z 000000014008e5c0 f   yourgame:imgui.obj
 0001:0008d5f0       ?IsMouseDoubleClicked@ImGui@@YA_NH@Z 000000014008e5f0 f   yourgame:imgui.obj
 0001:0008d620       ?IsMouseDragPastThreshold@ImGui@@YA_NHM@Z 000000014008e620 f   yourgame:imgui.obj
 0001:0008d660       ?IsMouseDragging@ImGui@@YA_NHM@Z 000000014008e660 f   yourgame:imgui.obj
 0001:0008d6b0       ?GetMousePos@ImGui@@YA?AUImVec2@@XZ 000000014008e6b0 f   yourgame:imgui.obj
 0001:0008d6e0       ?GetMousePosOnOpeningCurrentPopup@ImGui@@YA?AUImVec2@@XZ 000000014008e6e0 f   yourgame:imgui.obj
 0001:0008d730       ?IsAnyMouseDown@ImGui@@YA_NXZ 000000014008e730 f   yourgame:imgui.obj
 0001:0008d780       ?GetMouseDragDelta@ImGui@@YA?AUImVec2@@HM@Z 000000014008e780 f   yourgame:imgui.obj
 0001:0008d840       ?ResetMouseDragDelta@ImGui@@YAXH@Z 000000014008e840 f   yourgame:imgui.obj
 0001:0008d870       ?GetMouseCursor@ImGui@@YAHXZ 000000014008e870 f   yourgame:imgui.obj
 0001:0008d890       ?SetMouseCursor@ImGui@@YAXH@Z 000000014008e890 f   yourgame:imgui.obj
 0001:0008d8b0       ?CaptureKeyboardFromApp@ImGui@@YAX_N@Z 000000014008e8b0 f   yourgame:imgui.obj
 0001:0008d8e0       ?CaptureMouseFromApp@ImGui@@YAX_N@Z 000000014008e8e0 f   yourgame:imgui.obj
 0001:0008d910       ?IsItemActive@ImGui@@YA_NXZ 000000014008e910 f   yourgame:imgui.obj
 0001:0008d950       ?IsItemActivated@ImGui@@YA_NXZ 000000014008e950 f   yourgame:imgui.obj
 0001:0008d990       ?IsItemDeactivated@ImGui@@YA_NXZ 000000014008e990 f   yourgame:imgui.obj
 0001:0008d9f0       ?IsItemDeactivatedAfterEdit@ImGui@@YA_NXZ 000000014008e9f0 f   yourgame:imgui.obj
 0001:0008da70       ?IsItemClicked@ImGui@@YA_NH@Z 000000014008ea70 f   yourgame:imgui.obj
 0001:0008dac0       ?IsItemToggledOpen@ImGui@@YA_NXZ 000000014008eac0 f   yourgame:imgui.obj
 0001:0008daf0       ?IsItemToggledSelection@ImGui@@YA_NXZ 000000014008eaf0 f   yourgame:imgui.obj
 0001:0008db20       ?IsAnyItemHovered@ImGui@@YA_NXZ 000000014008eb20 f   yourgame:imgui.obj
 0001:0008db50       ?IsAnyItemActive@ImGui@@YA_NXZ 000000014008eb50 f   yourgame:imgui.obj
 0001:0008db80       ?IsAnyItemFocused@ImGui@@YA_NXZ 000000014008eb80 f   yourgame:imgui.obj
 0001:0008dbc0       ?IsItemVisible@ImGui@@YA_NXZ 000000014008ebc0 f   yourgame:imgui.obj
 0001:0008dc30       ?IsItemEdited@ImGui@@YA_NXZ 000000014008ec30 f   yourgame:imgui.obj
 0001:0008dc60       ?SetItemAllowOverlap@ImGui@@YAXXZ 000000014008ec60 f   yourgame:imgui.obj
 0001:0008dcb0       ?SetItemUsingMouseWheel@ImGui@@YAXXZ 000000014008ecb0 f   yourgame:imgui.obj
 0001:0008dd00       ?GetItemRectMin@ImGui@@YA?AUImVec2@@XZ 000000014008ed00 f   yourgame:imgui.obj
 0001:0008dd30       ?GetItemRectMax@ImGui@@YA?AUImVec2@@XZ 000000014008ed30 f   yourgame:imgui.obj
 0001:0008dd60       ?GetItemRectSize@ImGui@@YA?AUImVec2@@XZ 000000014008ed60 f   yourgame:imgui.obj
 0001:0008dda0       ?BeginChildEx@ImGui@@YA_NPEBDIAEBUImVec2@@_NH@Z 000000014008eda0 f   yourgame:imgui.obj
 0001:0008e190       ?GetContentRegionAvail@ImGui@@YA?AUImVec2@@XZ 000000014008f190 f   yourgame:imgui.obj
 0001:0008e200       ?NavInitWindow@ImGui@@YAXPEAUImGuiWindow@@_N@Z 000000014008f200 f   yourgame:imgui.obj
 0001:0008e2e0       ?BeginChild@ImGui@@YA_NPEBDAEBUImVec2@@_NH@Z 000000014008f2e0 f   yourgame:imgui.obj
 0001:0008e3d0       ?BeginChild@ImGui@@YA_NIAEBUImVec2@@_NH@Z 000000014008f3d0 f   yourgame:imgui.obj
 0001:0008e410       ?EndChild@ImGui@@YAXXZ     000000014008f410 f   yourgame:imgui.obj
 0001:0008e600       ?ItemSize@ImGui@@YAXAEBUImVec2@@M@Z 000000014008f600 f   yourgame:imgui.obj
 0001:0008e7f0       ?ItemAdd@ImGui@@YA_NAEBUImRect@@IPEBU2@@Z 000000014008f7f0 f   yourgame:imgui.obj
 0001:0008ec90       ?BeginChildFrame@ImGui@@YA_NIAEBUImVec2@@H@Z 000000014008fc90 f   yourgame:imgui.obj
 0001:0008ef10       ?EndChildFrame@ImGui@@YAXXZ 000000014008ff10 f   yourgame:imgui.obj
 0001:0008ef30       ?FindWindowByID@ImGui@@YAPEAUImGuiWindow@@I@Z 000000014008ff30 f   yourgame:imgui.obj
 0001:0008efc0       ?FindWindowByName@ImGui@@YAPEAUImGuiWindow@@PEBD@Z 000000014008ffc0 f   yourgame:imgui.obj
 0001:0008f0b0       ?CalcWindowNextAutoFitSize@ImGui@@YA?AUImVec2@@PEAUImGuiWindow@@@Z 00000001400900b0 f   yourgame:imgui.obj
 0001:0008f750       ?GetWindowResizeID@ImGui@@YAIPEAUImGuiWindow@@H@Z 0000000140090750 f   yourgame:imgui.obj
 0001:0008f840       ?UpdateWindowParentAndRootLinks@ImGui@@YAXPEAUImGuiWindow@@H0@Z 0000000140090840 f   yourgame:imgui.obj
 0001:0008f8e0       ?SetToCurrentState@ImGuiStackSizes@@QEAAXXZ 00000001400908e0 f   yourgame:imgui.obj
 0001:0008f950       ?SetWindowSize@ImGui@@YAXPEAUImGuiWindow@@AEBUImVec2@@H@Z 0000000140090950 f   yourgame:imgui.obj
 0001:0008f9f0       ?SetWindowCollapsed@ImGui@@YAXPEAUImGuiWindow@@_NH@Z 00000001400909f0 f   yourgame:imgui.obj
 0001:0008fa30       ?FindBestWindowPosForPopup@ImGui@@YA?AUImVec2@@PEAUImGuiWindow@@@Z 0000000140090a30 f   yourgame:imgui.obj
 0001:0008fd30       ?GetMainViewport@ImGui@@YAPEAUImGuiViewport@@XZ 0000000140090d30 f   yourgame:imgui.obj
 0001:0008fff0       ?LogFinish@ImGui@@YAXXZ    0000000140090ff0 f   yourgame:imgui.obj
 0001:00090120       ?CompareWithCurrentState@ImGuiStackSizes@@QEAAXXZ 0000000140091120 f   yourgame:imgui.obj
 0001:00090130       ?BringWindowToFocusFront@ImGui@@YAXPEAUImGuiWindow@@@Z 0000000140091130 f   yourgame:imgui.obj
 0001:000901d0       ?BringWindowToDisplayFront@ImGui@@YAXPEAUImGuiWindow@@@Z 00000001400911d0 f   yourgame:imgui.obj
 0001:00090270       ?BringWindowToDisplayBack@ImGui@@YAXPEAUImGuiWindow@@@Z 0000000140091270 f   yourgame:imgui.obj
 0001:000902f0       ?PushFont@ImGui@@YAXPEAUImFont@@@Z 00000001400912f0 f   yourgame:imgui.obj
 0001:000904e0       ?PopFont@ImGui@@YAXXZ      00000001400914e0 f   yourgame:imgui.obj
 0001:000905f0       ?PushItemFlag@ImGui@@YAXH_N@Z 00000001400915f0 f   yourgame:imgui.obj
 0001:00090730       ?PopItemFlag@ImGui@@YAXXZ  0000000140091730 f   yourgame:imgui.obj
 0001:00090780       ?PushAllowKeyboardFocus@ImGui@@YAX_N@Z 0000000140091780 f   yourgame:imgui.obj
 0001:000907b0       ?PopAllowKeyboardFocus@ImGui@@YAXXZ 00000001400917b0 f   yourgame:imgui.obj
 0001:00090800       ?PushButtonRepeat@ImGui@@YAX_N@Z 0000000140091800 f   yourgame:imgui.obj
 0001:00090830       ?PopButtonRepeat@ImGui@@YAXXZ 0000000140091830 f   yourgame:imgui.obj
 0001:00090880       ?PushTextWrapPos@ImGui@@YAXM@Z 0000000140091880 f   yourgame:imgui.obj
 0001:000909c0       ?PopTextWrapPos@ImGui@@YAXXZ 00000001400919c0 f   yourgame:imgui.obj
 0001:00090a20       ?IsWindowHovered@ImGui@@YA_NH@Z 0000000140091a20 f   yourgame:imgui.obj
 0001:00090b20       ?IsWindowFocused@ImGui@@YA_NH@Z 0000000140091b20 f   yourgame:imgui.obj
 0001:00090bf0       ?IsWindowNavFocusable@ImGui@@YA_NPEAUImGuiWindow@@@Z 0000000140091bf0 f   yourgame:imgui.obj
 0001:00090c20       ?GetWindowWidth@ImGui@@YAMXZ 0000000140091c20 f   yourgame:imgui.obj
 0001:00090c50       ?GetWindowHeight@ImGui@@YAMXZ 0000000140091c50 f   yourgame:imgui.obj
 0001:00090c80       ?GetWindowPos@ImGui@@YA?AUImVec2@@XZ 0000000140091c80 f   yourgame:imgui.obj
 0001:00090cb0       ?SetWindowPos@ImGui@@YAXAEBUImVec2@@H@Z 0000000140091cb0 f   yourgame:imgui.obj
 0001:00090d60       ?SetWindowPos@ImGui@@YAXPEBDAEBUImVec2@@H@Z 0000000140091d60 f   yourgame:imgui.obj
 0001:00090ee0       ?GetWindowSize@ImGui@@YA?AUImVec2@@XZ 0000000140091ee0 f   yourgame:imgui.obj
 0001:00090f10       ?SetWindowSize@ImGui@@YAXAEBUImVec2@@H@Z 0000000140091f10 f   yourgame:imgui.obj
 0001:00090fc0       ?SetWindowSize@ImGui@@YAXPEBDAEBUImVec2@@H@Z 0000000140091fc0 f   yourgame:imgui.obj
 0001:00091150       ?SetWindowHitTestHole@ImGui@@YAXPEAUImGuiWindow@@AEBUImVec2@@1@Z 0000000140092150 f   yourgame:imgui.obj
 0001:000911b0       ?SetWindowCollapsed@ImGui@@YAX_NH@Z 00000001400921b0 f   yourgame:imgui.obj
 0001:00091200       ?IsWindowCollapsed@ImGui@@YA_NXZ 0000000140092200 f   yourgame:imgui.obj
 0001:00091230       ?IsWindowAppearing@ImGui@@YA_NXZ 0000000140092230 f   yourgame:imgui.obj
 0001:00091260       ?SetWindowCollapsed@ImGui@@YAXPEBD_NH@Z 0000000140092260 f   yourgame:imgui.obj
 0001:00091380       ?SetWindowFocus@ImGui@@YAXXZ 0000000140092380 f   yourgame:imgui.obj
 0001:000913c0       ?SetWindowFocus@ImGui@@YAXPEBD@Z 00000001400923c0 f   yourgame:imgui.obj
 0001:000915d0       ?SetNextWindowPos@ImGui@@YAXAEBUImVec2@@H0@Z 00000001400925d0 f   yourgame:imgui.obj
 0001:00091620       ?SetNextWindowSizeConstraints@ImGui@@YAXAEBUImVec2@@0P6AXPEAUImGuiSizeCallbackData@@@ZPEAX@Z 0000000140092620 f   yourgame:imgui.obj
 0001:00091670       ?SetNextWindowContentSize@ImGui@@YAXAEBUImVec2@@@Z 0000000140092670 f   yourgame:imgui.obj
 0001:000916b0       ?SetNextWindowScroll@ImGui@@YAXAEBUImVec2@@@Z 00000001400926b0 f   yourgame:imgui.obj
 0001:000916e0       ?SetNextWindowCollapsed@ImGui@@YAX_NH@Z 00000001400926e0 f   yourgame:imgui.obj
 0001:00091720       ?SetNextWindowFocus@ImGui@@YAXXZ 0000000140092720 f   yourgame:imgui.obj
 0001:00091750       ?SetNextWindowBgAlpha@ImGui@@YAXM@Z 0000000140092750 f   yourgame:imgui.obj
 0001:00091780       ?GetWindowDrawList@ImGui@@YAPEAUImDrawList@@XZ 0000000140092780 f   yourgame:imgui.obj
 0001:000917c0       ?GetFont@ImGui@@YAPEAUImFont@@XZ 00000001400927c0 f   yourgame:imgui.obj
 0001:000917f0       ?GetFontSize@ImGui@@YAMXZ  00000001400927f0 f   yourgame:imgui.obj
 0001:00091820       ?GetFontTexUvWhitePixel@ImGui@@YA?AUImVec2@@XZ 0000000140092820 f   yourgame:imgui.obj
 0001:00091850       ?SetWindowFontScale@ImGui@@YAXM@Z 0000000140092850 f   yourgame:imgui.obj
 0001:000918c0       ?ActivateItem@ImGui@@YAXI@Z 00000001400928c0 f   yourgame:imgui.obj
 0001:000918e0       ?PushFocusScope@ImGui@@YAXI@Z 00000001400928e0 f   yourgame:imgui.obj
 0001:00091a20       ?PopFocusScope@ImGui@@YAXXZ 0000000140092a20 f   yourgame:imgui.obj
 0001:00091a60       ?SetKeyboardFocusHere@ImGui@@YAXH@Z 0000000140092a60 f   yourgame:imgui.obj
 0001:00091ab0       ?SetItemDefaultFocus@ImGui@@YAXXZ 0000000140092ab0 f   yourgame:imgui.obj
 0001:00091bc0       ?SetScrollHereY@ImGui@@YAXM@Z 0000000140092bc0 f   yourgame:imgui.obj
 0001:00091d00       ?SetStateStorage@ImGui@@YAXPEAUImGuiStorage@@@Z 0000000140092d00 f   yourgame:imgui.obj
 0001:00091d40       ?GetStateStorage@ImGui@@YAPEAUImGuiStorage@@XZ 0000000140092d40 f   yourgame:imgui.obj
 0001:00091d70       ?PushID@ImGui@@YAXPEBD@Z   0000000140092d70 f   yourgame:imgui.obj
 0001:00091f00       ?PushID@ImGui@@YAXPEBD0@Z  0000000140092f00 f   yourgame:imgui.obj
 0001:00092100       ?PushID@ImGui@@YAXPEBX@Z   0000000140093100 f   yourgame:imgui.obj
 0001:000922f0       ?PushID@ImGui@@YAXH@Z      00000001400932f0 f   yourgame:imgui.obj
 0001:00092480       ?PushOverrideID@ImGui@@YAXI@Z 0000000140093480 f   yourgame:imgui.obj
 0001:000925a0       ?GetIDWithSeed@ImGui@@YAIPEBD0I@Z 00000001400935a0 f   yourgame:imgui.obj
 0001:000926b0       ?PopID@ImGui@@YAXXZ        00000001400936b0 f   yourgame:imgui.obj
 0001:000926e0       ?GetID@ImGui@@YAIPEBD@Z    00000001400936e0 f   yourgame:imgui.obj
 0001:000927a0       ?GetID@ImGui@@YAIPEBD0@Z   00000001400937a0 f   yourgame:imgui.obj
 0001:000927e0       ?GetID@ImGui@@YAIPEBX@Z    00000001400937e0 f   yourgame:imgui.obj
 0001:00092820       ?IsRectVisible@ImGui@@YA_NAEBUImVec2@@@Z 0000000140093820 f   yourgame:imgui.obj
 0001:00092890       ?IsRectVisible@ImGui@@YA_NAEBUImVec2@@0@Z 0000000140093890 f   yourgame:imgui.obj
 0001:000928f0       ?DebugCheckVersionAndDataLayout@ImGui@@YA_NPEBD_K11111@Z 00000001400938f0 f   yourgame:imgui.obj
 0001:00092980       ?ErrorCheckEndFrameRecover@ImGui@@YAXP6AXPEAXPEBDZZ0@Z 0000000140093980 f   yourgame:imgui.obj
 0001:00092d80       ?EndGroup@ImGui@@YAXXZ     0000000140093d80 f   yourgame:imgui.obj
 0001:00092ff0       ?SameLine@ImGui@@YAXMM@Z   0000000140093ff0 f   yourgame:imgui.obj
 0001:000930b0       ?ItemSize@ImGui@@YAXAEBUImRect@@M@Z 00000001400940b0 f   yourgame:imgui.obj
 0001:00093110       ?GetCursorScreenPos@ImGui@@YA?AUImVec2@@XZ 0000000140094110 f   yourgame:imgui.obj
 0001:00093140       ?SetCursorScreenPos@ImGui@@YAXAEBUImVec2@@@Z 0000000140094140 f   yourgame:imgui.obj
 0001:000931a0       ?GetCursorPos@ImGui@@YA?AUImVec2@@XZ 00000001400941a0 f   yourgame:imgui.obj
 0001:000931e0       ?GetCursorPosX@ImGui@@YAMXZ 00000001400941e0 f   yourgame:imgui.obj
 0001:00093220       ?GetCursorPosY@ImGui@@YAMXZ 0000000140094220 f   yourgame:imgui.obj
 0001:00093260       ?SetCursorPos@ImGui@@YAXAEBUImVec2@@@Z 0000000140094260 f   yourgame:imgui.obj
 0001:000932d0       ?SetCursorPosX@ImGui@@YAXM@Z 00000001400942d0 f   yourgame:imgui.obj
 0001:00093340       ?SetCursorPosY@ImGui@@YAXM@Z 0000000140094340 f   yourgame:imgui.obj
 0001:000933b0       ?GetCursorStartPos@ImGui@@YA?AUImVec2@@XZ 00000001400943b0 f   yourgame:imgui.obj
 0001:000933f0       ?Indent@ImGui@@YAXM@Z      00000001400943f0 f   yourgame:imgui.obj
 0001:00093460       ?Unindent@ImGui@@YAXM@Z    0000000140094460 f   yourgame:imgui.obj
 0001:000934d0       ?PushItemWidth@ImGui@@YAXM@Z 00000001400944d0 f   yourgame:imgui.obj
 0001:00093620       ?PushMultiItemsWidths@ImGui@@YAXHM@Z 0000000140094620 f   yourgame:imgui.obj
 0001:00093a20       ?PopItemWidth@ImGui@@YAXXZ 0000000140094a20 f   yourgame:imgui.obj
 0001:00093a80       ?CalcItemWidth@ImGui@@YAMXZ 0000000140094a80 f   yourgame:imgui.obj
 0001:00093b20       ?GetContentRegionMaxAbs@ImGui@@YA?AUImVec2@@XZ 0000000140094b20 f   yourgame:imgui.obj
 0001:00093b70       ?CalcItemSize@ImGui@@YA?AUImVec2@@U2@MM@Z 0000000140094b70 f   yourgame:imgui.obj
 0001:00093c70       ?GetTextLineHeight@ImGui@@YAMXZ 0000000140094c70 f   yourgame:imgui.obj
 0001:00093ca0       ?GetTextLineHeightWithSpacing@ImGui@@YAMXZ 0000000140094ca0 f   yourgame:imgui.obj
 0001:00093cd0       ?GetFrameHeight@ImGui@@YAMXZ 0000000140094cd0 f   yourgame:imgui.obj
 0001:00093d00       ?GetFrameHeightWithSpacing@ImGui@@YAMXZ 0000000140094d00 f   yourgame:imgui.obj
 0001:00093d40       ?GetContentRegionMax@ImGui@@YA?AUImVec2@@XZ 0000000140094d40 f   yourgame:imgui.obj
 0001:00093da0       ?GetWindowContentRegionMin@ImGui@@YA?AUImVec2@@XZ 0000000140094da0 f   yourgame:imgui.obj
 0001:00093de0       ?GetWindowContentRegionMax@ImGui@@YA?AUImVec2@@XZ 0000000140094de0 f   yourgame:imgui.obj
 0001:00093e20       ?GetWindowContentRegionWidth@ImGui@@YAMXZ 0000000140094e20 f   yourgame:imgui.obj
 0001:00093e60       ?BeginGroup@ImGui@@YAXXZ   0000000140094e60 f   yourgame:imgui.obj
 0001:00094060       ?ScrollToBringRectIntoView@ImGui@@YA?AUImVec2@@PEAUImGuiWindow@@AEBUImRect@@@Z 0000000140095060 f   yourgame:imgui.obj
 0001:00094390       ?SetScrollFromPosX@ImGui@@YAXPEAUImGuiWindow@@MM@Z 0000000140095390 f   yourgame:imgui.obj
 0001:000943c0       ?SetScrollFromPosY@ImGui@@YAXPEAUImGuiWindow@@MM@Z 00000001400953c0 f   yourgame:imgui.obj
 0001:000944a0       ?GetScrollX@ImGui@@YAMXZ   00000001400954a0 f   yourgame:imgui.obj
 0001:000944d0       ?GetScrollY@ImGui@@YAMXZ   00000001400954d0 f   yourgame:imgui.obj
 0001:00094500       ?GetScrollMaxX@ImGui@@YAMXZ 0000000140095500 f   yourgame:imgui.obj
 0001:00094530       ?GetScrollMaxY@ImGui@@YAMXZ 0000000140095530 f   yourgame:imgui.obj
 0001:00094560       ?SetScrollX@ImGui@@YAXPEAUImGuiWindow@@M@Z 0000000140095560 f   yourgame:imgui.obj
 0001:00094580       ?SetScrollY@ImGui@@YAXPEAUImGuiWindow@@M@Z 0000000140095580 f   yourgame:imgui.obj
 0001:000945b0       ?SetScrollX@ImGui@@YAXM@Z  00000001400955b0 f   yourgame:imgui.obj
 0001:000945f0       ?SetScrollY@ImGui@@YAXM@Z  00000001400955f0 f   yourgame:imgui.obj
 0001:00094630       ?SetScrollFromPosX@ImGui@@YAXMM@Z 0000000140095630 f   yourgame:imgui.obj
 0001:00094670       ?SetScrollFromPosY@ImGui@@YAXMM@Z 0000000140095670 f   yourgame:imgui.obj
 0001:00094750       ?SetScrollHereX@ImGui@@YAXM@Z 0000000140095750 f   yourgame:imgui.obj
 0001:000947e0       ?BeginTooltip@ImGui@@YAXXZ 00000001400957e0 f   yourgame:imgui.obj
 0001:00094810       ?BeginTooltipEx@ImGui@@YAXHH@Z 0000000140095810 f   yourgame:imgui.obj
 0001:00094a50       ?EndTooltip@ImGui@@YAXXZ   0000000140095a50 f   yourgame:imgui.obj
 0001:00094a70       ?SetTooltipV@ImGui@@YAXPEBDPEAD@Z 0000000140095a70 f   yourgame:imgui.obj
 0001:00094ac0       ?IsPopupOpen@ImGui@@YA_NPEBDH@Z 0000000140095ac0 f   yourgame:imgui.obj
 0001:00094c20       ?OpenPopup@ImGui@@YAXPEBDH@Z 0000000140095c20 f   yourgame:imgui.obj
 0001:00094d00       ?OpenPopupEx@ImGui@@YAXIH@Z 0000000140095d00 f   yourgame:imgui.obj
 0001:000952b0       ?ClosePopupToLevel@ImGui@@YAXH_N@Z 00000001400962b0 f   yourgame:imgui.obj
 0001:00095460       ?CloseCurrentPopup@ImGui@@YAXXZ 0000000140096460 f   yourgame:imgui.obj
 0001:00095550       ?BeginPopupEx@ImGui@@YA_NIH@Z 0000000140096550 f   yourgame:imgui.obj
 0001:00095690       ?EndPopup@ImGui@@YAXXZ     0000000140096690 f   yourgame:imgui.obj
 0001:00095700       ?BeginPopup@ImGui@@YA_NPEBDH@Z 0000000140096700 f   yourgame:imgui.obj
 0001:00095800       ?BeginPopupModal@ImGui@@YA_NPEBDPEA_NH@Z 0000000140096800 f   yourgame:imgui.obj
 0001:00095a20       ?NavMoveRequestTryWrapping@ImGui@@YAXPEAUImGuiWindow@@H@Z 0000000140096a20 f   yourgame:imgui.obj
 0001:00095a50       ?OpenPopupOnItemClick@ImGui@@YAXPEBDH@Z 0000000140096a50 f   yourgame:imgui.obj
 0001:00095b60       ?BeginPopupContextItem@ImGui@@YA_NPEBDH@Z 0000000140096b60 f   yourgame:imgui.obj
 0001:00095d70       ?BeginPopupContextWindow@ImGui@@YA_NPEBDH@Z 0000000140096d70 f   yourgame:imgui.obj
 0001:00095fd0       ?BeginPopupContextVoid@ImGui@@YA_NPEBDH@Z 0000000140096fd0 f   yourgame:imgui.obj
 0001:00096250       ?FindBestWindowPosForPopupEx@ImGui@@YA?AUImVec2@@AEBU2@0PEAHAEBUImRect@@2W4ImGuiPopupPositionPolicy@@@Z 0000000140097250 f   yourgame:imgui.obj
 0001:000965d0       ?GetWindowAllowedExtentRect@ImGui@@YA?AUImRect@@PEAUImGuiWindow@@@Z 00000001400975d0 f   yourgame:imgui.obj
 0001:00096640       ?SetNavID@ImGui@@YAXIHIAEBUImRect@@@Z 0000000140097640 f   yourgame:imgui.obj
 0001:000966a0       ?SetFocusID@ImGui@@YAXIPEAUImGuiWindow@@@Z 00000001400976a0 f   yourgame:imgui.obj
 0001:00096740       ?ImGetDirQuadrantFromDelta@@YAHMM@Z 0000000140097740 f   yourgame:imgui.obj
 0001:00096780       ?NavMoveRequestButNoResultYet@ImGui@@YA_NXZ 0000000140097780 f   yourgame:imgui.obj
 0001:000967c0       ?NavMoveRequestCancel@ImGui@@YAXXZ 00000001400977c0 f   yourgame:imgui.obj
 0001:000967f0       ?NavMoveRequestForward@ImGui@@YAXHHAEBUImRect@@H@Z 00000001400977f0 f   yourgame:imgui.obj
 0001:00096860       ?GetNavInputAmount@ImGui@@YAMHW4ImGuiInputReadMode@@@Z 0000000140097860 f   yourgame:imgui.obj
 0001:00096a50       ?GetNavInputAmount2d@ImGui@@YA?AUImVec2@@HW4ImGuiInputReadMode@@MM@Z 0000000140097a50 f   yourgame:imgui.obj
 0001:00096c30       ?BeginDragDropSource@ImGui@@YA_NH@Z 0000000140097c30 f   yourgame:imgui.obj
 0001:000970e0       ?EndDragDropSource@ImGui@@YAXXZ 00000001400980e0 f   yourgame:imgui.obj
 0001:000971f0       ?SetDragDropPayload@ImGui@@YA_NPEBDPEBX_KH@Z 00000001400981f0 f   yourgame:imgui.obj
 0001:00097450       ?BeginDragDropTargetCustom@ImGui@@YA_NAEBUImRect@@I@Z 0000000140098450 f   yourgame:imgui.obj
 0001:00097580       ?BeginDragDropTarget@ImGui@@YA_NXZ 0000000140098580 f   yourgame:imgui.obj
 0001:00097640       ?IsDragDropPayloadBeingAccepted@ImGui@@YA_NXZ 0000000140098640 f   yourgame:imgui.obj
 0001:00097680       ?AcceptDragDropPayload@ImGui@@YAPEBUImGuiPayload@@PEBDH@Z 0000000140098680 f   yourgame:imgui.obj
 0001:00097a00       ?GetDragDropPayload@ImGui@@YAPEBUImGuiPayload@@XZ 0000000140098a00 f   yourgame:imgui.obj
 0001:00097a30       ?EndDragDropTarget@ImGui@@YAXXZ 0000000140098a30 f   yourgame:imgui.obj
 0001:00097a60       ?LogText@ImGui@@YAXPEBDZZ  0000000140098a60 f   yourgame:imgui.obj
 0001:00097c50       ?LogTextV@ImGui@@YAXPEBDPEAD@Z 0000000140098c50 f   yourgame:imgui.obj
 0001:00097c90       ?LogBegin@ImGui@@YAXW4ImGuiLogType@@H@Z 0000000140098c90 f   yourgame:imgui.obj
 0001:00097d00       ?LogSetNextTextDecoration@ImGui@@YAXPEBD0@Z 0000000140098d00 f   yourgame:imgui.obj
 0001:00097d30       ?LogToTTY@ImGui@@YAXH@Z    0000000140098d30 f   yourgame:imgui.obj
 0001:00097dd0       ?LogToFile@ImGui@@YAXHPEBD@Z 0000000140098dd0 f   yourgame:imgui.obj
 0001:00097ea0       ?LogToClipboard@ImGui@@YAXH@Z 0000000140098ea0 f   yourgame:imgui.obj
 0001:00097f20       ?LogToBuffer@ImGui@@YAXH@Z 0000000140098f20 f   yourgame:imgui.obj
 0001:00097fa0       ?LogButtons@ImGui@@YAXXZ   0000000140098fa0 f   yourgame:imgui.obj
 0001:000983d0       ?MarkIniSettingsDirty@ImGui@@YAXXZ 00000001400993d0 f   yourgame:imgui.obj
 0001:00098410       ?CreateNewWindowSettings@ImGui@@YAPEAUImGuiWindowSettings@@PEBD@Z 0000000140099410 f   yourgame:imgui.obj
 0001:000986a0       ?FindWindowSettings@ImGui@@YAPEAUImGuiWindowSettings@@I@Z 00000001400996a0 f   yourgame:imgui.obj
 0001:00098710       ?FindOrCreateWindowSettings@ImGui@@YAPEAUImGuiWindowSettings@@PEBD@Z 0000000140099710 f   yourgame:imgui.obj
 0001:000987f0       ?FindSettingsHandler@ImGui@@YAPEAUImGuiSettingsHandler@@PEBD@Z 00000001400997f0 f   yourgame:imgui.obj
 0001:000988a0       ?ClearIniSettings@ImGui@@YAXXZ 00000001400998a0 f   yourgame:imgui.obj
 0001:00098960       ?LoadIniSettingsFromDisk@ImGui@@YAXPEBD@Z 0000000140099960 f   yourgame:imgui.obj
 0001:00098a20       ?LoadIniSettingsFromMemory@ImGui@@YAXPEBD_K@Z 0000000140099a20 f   yourgame:imgui.obj
 0001:00098e80       ?SaveIniSettingsToMemory@ImGui@@YAPEBDPEA_K@Z 0000000140099e80 f   yourgame:imgui.obj
 0001:00099090       ?DebugRenderViewportThumbnail@ImGui@@YAXPEAUImDrawList@@PEAUImGuiViewportP@@AEBUImRect@@@Z 000000014009a090 f   yourgame:imgui.obj
 0001:00099940       ?ShowMetricsWindow@ImGui@@YAXPEA_N@Z 000000014009a940 f   yourgame:imgui.obj
 0001:0009be60       ?DebugNodeWindowsList@ImGui@@YAXPEAU?$ImVector@PEAUImGuiWindow@@@@PEBD@Z 000000014009ce60 f   yourgame:imgui.obj
 0001:0009bf50       ?DebugNodeDrawList@ImGui@@YAXPEAUImGuiWindow@@PEBUImDrawList@@PEBD@Z 000000014009cf50 f   yourgame:imgui.obj
 0001:0009c8a0       ?DebugNodeViewport@ImGui@@YAXPEAUImGuiViewportP@@@Z 000000014009d8a0 f   yourgame:imgui.obj
 0001:0009ca90       ?DebugNodeTabBar@ImGui@@YAXPEAUImGuiTabBar@@PEBD@Z 000000014009da90 f   yourgame:imgui.obj
 0001:0009cf40       ?DebugNodeWindowSettings@ImGui@@YAXPEAUImGuiWindowSettings@@@Z 000000014009df40 f   yourgame:imgui.obj
 0001:0009cfa0       ?DebugNodeColumns@ImGui@@YAXPEAUImGuiOldColumns@@@Z 000000014009dfa0 f   yourgame:imgui.obj
 0001:0009d0c0       ?DebugNodeDrawCmdShowMeshAndBoundingBox@ImGui@@YAXPEAUImDrawList@@PEBU2@PEBUImDrawCmd@@_N3@Z 000000014009e0c0 f   yourgame:imgui.obj
 0001:0009d390       ?DebugNodeStorage@ImGui@@YAXPEAUImGuiStorage@@PEBD@Z 000000014009e390 f   yourgame:imgui.obj
 0001:0009d440       ?DebugNodeWindow@ImGui@@YAXPEAUImGuiWindow@@PEBD@Z 000000014009e440 f   yourgame:imgui.obj
 0001:0009dc80       ?push_front@?$ImVector@PEAUImGuiWindow@@@@QEAAXAEBQEAUImGuiWindow@@@Z 000000014009ec80 f   yourgame:imgui.obj
 0001:0009e460       ??1ImGuiContext@@QEAA@XZ   000000014009f460 f   yourgame:imgui.obj
 0001:0009e940       ??1ImGuiViewportP@@QEAA@XZ 000000014009f940 f   yourgame:imgui.obj
 0001:0009ea20       ??1ImGuiTable@@QEAA@XZ     000000014009fa20 f   yourgame:imgui.obj
 0001:0009eaf0       ?make@Shader@gl@yourgame@@SAPEAV123@AEBV?$vector@U?$pair@IV?$basic_string@DU?$char_traits@D@std@@V?$allocator@D@2@@std@@@std@@V?$allocator@U?$pair@IV?$basic_string@DU?$char_traits@D@std@@V?$allocator@D@2@@std@@@std@@@2@@std@@00AEAV?$basic_string@DU?$char_traits@D@std@@V?$allocator@D@2@@5@@Z 000000014009faf0 f   yourgame:shader.obj
 0001:0009efb0       ??1Shader@gl@yourgame@@QEAA@XZ 000000014009ffb0 f   yourgame:shader.obj
 0001:0009f010       ?useProgram@Shader@gl@yourgame@@QEAAXPEAVLightsource@23@PEAVCamera@math@3@@Z 00000001400a0010 f   yourgame:shader.obj
 0001:0009f2e0       ?getUniformLocation@Shader@gl@yourgame@@QEAAHPEBD@Z 00000001400a02e0 f   yourgame:shader.obj
 0001:0009f4d0       ??$_Erase_tree@V?$allocator@U?$_Tree_node@U?$pair@$$CBV?$basic_string@DU?$char_traits@D@std@@V?$allocator@D@2@@std@@H@std@@PEAX@std@@@std@@@?$_Tree_val@U?$_Tree_simple_types@U?$pair@$$CBV?$basic_string@DU?$char_traits@D@std@@V?$allocator@D@2@@std@@H@std@@@std@@@std@@QEAAXAEAV?$allocator@U?$_Tree_node@U?$pair@$$CBV?$basic_string@DU?$char_traits@D@std@@V?$allocator@D@2@@std@@H@std@@PEAX@std@@@1@PEAU?$_Tree_node@U?$pair@$$CBV?$basic_string@DU?$char_traits@D@std@@V?$allocator@D@2@@std@@H@std@@PEAX@1@@Z 00000001400a04d0 f   yourgame:shader.obj
 0001:0009f590       ??$_Find@V?$basic_string@DU?$char_traits@D@std@@V?$allocator@D@2@@std@@@?$_Tree@V?$_Tmap_traits@V?$basic_string@DU?$char_traits@D@std@@V?$allocator@D@2@@std@@HU?$less@V?$basic_string@DU?$char_traits@D@std@@V?$allocator@D@2@@std@@@2@V?$allocator@U?$pair@$$CBV?$basic_string@DU?$char_traits@D@std@@V?$allocator@D@2@@std@@H@std@@@2@$0A@@std@@@std@@AEBAPEAU?$_Tree_node@U?$pair@$$CBV?$basic_string@DU?$char_traits@D@std@@V?$allocator@D@2@@std@@H@std@@PEAX@1@AEBV?$basic_string@DU?$char_traits@D@std@@V?$allocator@D@2@@1@@Z 00000001400a0590 f   yourgame:shader.obj
 0001:0009f6d0       ??$_Try_emplace@AEBV?$basic_string@DU?$char_traits@D@std@@V?$allocator@D@2@@std@@$$V@?$map@V?$basic_string@DU?$char_traits@D@std@@V?$allocator@D@2@@std@@HU?$less@V?$basic_string@DU?$char_traits@D@std@@V?$allocator@D@2@@std@@@2@V?$allocator@U?$pair@$$CBV?$basic_string@DU?$char_traits@D@std@@V?$allocator@D@2@@std@@H@std@@@2@@std@@AEAA?AU?$pair@PEAU?$_Tree_node@U?$pair@$$CBV?$basic_string@DU?$char_traits@D@std@@V?$allocator@D@2@@std@@H@std@@PEAX@std@@_N@1@AEBV?$basic_string@DU?$char_traits@D@std@@V?$allocator@D@2@@1@@Z 00000001400a06d0 f   yourgame:shader.obj
 0001:0009f900       ?_Insert_node@?$_Tree_val@U?$_Tree_simple_types@U?$pair@$$CBV?$basic_string@DU?$char_traits@D@std@@V?$allocator@D@2@@std@@H@std@@@std@@@std@@QEAAPEAU?$_Tree_node@U?$pair@$$CBV?$basic_string@DU?$char_traits@D@std@@V?$allocator@D@2@@std@@H@std@@PEAX@2@U?$_Tree_id@PEAU?$_Tree_node@U?$pair@$$CBV?$basic_string@DU?$char_traits@D@std@@V?$allocator@D@2@@std@@H@std@@PEAX@std@@@2@QEAU32@@Z 00000001400a0900 f   yourgame:shader.obj
 0001:0009fb60       ??$?0V?$tuple@AEBV?$basic_string@DU?$char_traits@D@std@@V?$allocator@D@2@@std@@@std@@V?$tuple@$$V@1@$0A@$$Z$S@?$pair@$$CBV?$basic_string@DU?$char_traits@D@std@@V?$allocator@D@2@@std@@H@std@@QEAA@AEAV?$tuple@AEBV?$basic_string@DU?$char_traits@D@std@@V?$allocator@D@2@@std@@@1@AEAV?$tuple@$$V@1@U?$integer_sequence@_K$0A@@1@U?$integer_sequence@_K$S@1@@Z 00000001400a0b60 f   yourgame:shader.obj
 0001:0009fc70       ?drawGeo@gl@yourgame@@YAXPEBVGeometry@12@AEBUDrawConfig@12@@Z 00000001400a0c70 f   yourgame:drawing.obj
 0001:000a0100       ?make@Texture@gl@yourgame@@SAPEAV123@IIAEBV?$vector@U?$pair@IH@std@@V?$allocator@U?$pair@IH@std@@@2@@std@@@Z 00000001400a1100 f   yourgame:texture.obj
 0001:000a01d0       ??1Texture@gl@yourgame@@QEAA@XZ 00000001400a11d0 f   yourgame:texture.obj
 0001:000a0200       ?bind@Texture@gl@yourgame@@QEBAXXZ 00000001400a1200 f   yourgame:texture.obj
 0001:000a0240       ?unbindTarget@Texture@gl@yourgame@@QEBAXXZ 00000001400a1240 f   yourgame:texture.obj
 0001:000a0280       ?updateData@Texture@gl@yourgame@@QEAAXIHHHHHIIPEBX_N@Z 00000001400a1280 f   yourgame:texture.obj
 0001:000a0350       ??0btDefaultCollisionConfiguration@@QEAA@AEBUbtDefaultCollisionConstructionInfo@@@Z 00000001400a1350 f   BulletCollision:btDefaultCollisionConfiguration.obj
 0001:000a0780       ??1btDefaultCollisionConfiguration@@UEAA@XZ 00000001400a1780 f   BulletCollision:btDefaultCollisionConfiguration.obj
 0001:000a0900       ?getClosestPointsAlgorithmCreateFunc@btDefaultCollisionConfiguration@@UEAAPEAUbtCollisionAlgorithmCreateFunc@@HH@Z 00000001400a1900 f   BulletCollision:btDefaultCollisionConfiguration.obj
 0001:000a09d0       ?getCollisionAlgorithmCreateFunc@btDefaultCollisionConfiguration@@UEAAPEAUbtCollisionAlgorithmCreateFunc@@HH@Z 00000001400a19d0 f   BulletCollision:btDefaultCollisionConfiguration.obj
 0001:000a0ab0       ?setConvexConvexMultipointIterations@btDefaultCollisionConfiguration@@QEAAXHH@Z 00000001400a1ab0 f   BulletCollision:btDefaultCollisionConfiguration.obj
 0001:000a0ad0       ?setPlaneConvexMultipointIterations@btDefaultCollisionConfiguration@@QEAAXHH@Z 00000001400a1ad0 f   BulletCollision:btDefaultCollisionConfiguration.obj
 0001:000a0b00       ??_GbtDefaultCollisionConfiguration@@UEAAPEAXI@Z 00000001400a1b00 f   BulletCollision:btDefaultCollisionConfiguration.obj
 0001:000a0b40       ?getPersistentManifoldPool@btDefaultCollisionConfiguration@@UEAAPEAVbtPoolAllocator@@XZ 00000001400a1b40 f   BulletCollision:btDefaultCollisionConfiguration.obj
 0001:000a0b60       ?getCollisionAlgorithmPool@btDefaultCollisionConfiguration@@UEAAPEAVbtPoolAllocator@@XZ 00000001400a1b60 f   BulletCollision:btDefaultCollisionConfiguration.obj
 0001:000a0b80       ??_GbtCollisionConfiguration@@UEAAPEAXI@Z 00000001400a1b80 f   BulletCollision:btDefaultCollisionConfiguration.obj
 0001:000a0b90       ??_GbtGjkEpaPenetrationDepthSolver@@UEAAPEAXI@Z 00000001400a1b90 f   BulletCollision:btDefaultCollisionConfiguration.obj
 0001:000a0bd0       ??_GbtConvexPenetrationDepthSolver@@UEAAPEAXI@Z 00000001400a1bd0 f   BulletCollision:btDefaultCollisionConfiguration.obj
 0001:000a0be0       ??_GbtMinkowskiPenetrationDepthSolver@@UEAAPEAXI@Z 00000001400a1be0 f   BulletCollision:btDefaultCollisionConfiguration.obj
 0001:000a0c20       ??_GCreateFunc@btConvexConcaveCollisionAlgorithm@@UEAAPEAXI@Z 00000001400a1c20 f   BulletCollision:btDefaultCollisionConfiguration.obj
 0001:000a0c60       ?CreateCollisionAlgorithm@CreateFunc@btConvexConcaveCollisionAlgorithm@@UEAAPEAVbtCollisionAlgorithm@@AEAUbtCollisionAlgorithmConstructionInfo@@PEBUbtCollisionObjectWrapper@@1@Z 00000001400a1c60 f   BulletCollision:btDefaultCollisionConfiguration.obj
 0001:000a0cc0       ??_GbtCollisionAlgorithmCreateFunc@@UEAAPEAXI@Z 00000001400a1cc0 f   BulletCollision:btDefaultCollisionConfiguration.obj
 0001:000a0d00       ?CreateCollisionAlgorithm@btCollisionAlgorithmCreateFunc@@UEAAPEAVbtCollisionAlgorithm@@AEAUbtCollisionAlgorithmConstructionInfo@@PEBUbtCollisionObjectWrapper@@1@Z 00000001400a1d00 f   BulletCollision:btDefaultCollisionConfiguration.obj
 0001:000a0d10       ??_GSwappedCreateFunc@btConvexConcaveCollisionAlgorithm@@UEAAPEAXI@Z 00000001400a1d10 f   BulletCollision:btDefaultCollisionConfiguration.obj
 0001:000a0d50       ?CreateCollisionAlgorithm@SwappedCreateFunc@btConvexConcaveCollisionAlgorithm@@UEAAPEAVbtCollisionAlgorithm@@AEAUbtCollisionAlgorithmConstructionInfo@@PEBUbtCollisionObjectWrapper@@1@Z 00000001400a1d50 f   BulletCollision:btDefaultCollisionConfiguration.obj
 0001:000a0db0       ??_GCreateFunc@btCompoundCollisionAlgorithm@@UEAAPEAXI@Z 00000001400a1db0 f   BulletCollision:btDefaultCollisionConfiguration.obj
 0001:000a0df0       ?CreateCollisionAlgorithm@CreateFunc@btCompoundCollisionAlgorithm@@UEAAPEAVbtCollisionAlgorithm@@AEAUbtCollisionAlgorithmConstructionInfo@@PEBUbtCollisionObjectWrapper@@1@Z 00000001400a1df0 f   BulletCollision:btDefaultCollisionConfiguration.obj
 0001:000a0e50       ??_GCreateFunc@btCompoundCompoundCollisionAlgorithm@@UEAAPEAXI@Z 00000001400a1e50 f   BulletCollision:btDefaultCollisionConfiguration.obj
 0001:000a0e90       ?CreateCollisionAlgorithm@CreateFunc@btCompoundCompoundCollisionAlgorithm@@UEAAPEAVbtCollisionAlgorithm@@AEAUbtCollisionAlgorithmConstructionInfo@@PEBUbtCollisionObjectWrapper@@1@Z 00000001400a1e90 f   BulletCollision:btDefaultCollisionConfiguration.obj
 0001:000a0ef0       ??_GSwappedCreateFunc@btCompoundCollisionAlgorithm@@UEAAPEAXI@Z 00000001400a1ef0 f   BulletCollision:btDefaultCollisionConfiguration.obj
 0001:000a0f30       ?CreateCollisionAlgorithm@SwappedCreateFunc@btCompoundCollisionAlgorithm@@UEAAPEAVbtCollisionAlgorithm@@AEAUbtCollisionAlgorithmConstructionInfo@@PEBUbtCollisionObjectWrapper@@1@Z 00000001400a1f30 f   BulletCollision:btDefaultCollisionConfiguration.obj
 0001:000a0f90       ??_GCreateFunc@btEmptyAlgorithm@@UEAAPEAXI@Z 00000001400a1f90 f   BulletCollision:btDefaultCollisionConfiguration.obj
 0001:000a0fd0       ?CreateCollisionAlgorithm@CreateFunc@btEmptyAlgorithm@@UEAAPEAVbtCollisionAlgorithm@@AEAUbtCollisionAlgorithmConstructionInfo@@PEBUbtCollisionObjectWrapper@@1@Z 00000001400a1fd0 f   BulletCollision:btDefaultCollisionConfiguration.obj
 0001:000a1010       ??_GCreateFunc@btSphereSphereCollisionAlgorithm@@UEAAPEAXI@Z 00000001400a2010 f   BulletCollision:btDefaultCollisionConfiguration.obj
 0001:000a1050       ?CreateCollisionAlgorithm@CreateFunc@btSphereSphereCollisionAlgorithm@@UEAAPEAVbtCollisionAlgorithm@@AEAUbtCollisionAlgorithmConstructionInfo@@PEBUbtCollisionObjectWrapper@@1@Z 00000001400a2050 f   BulletCollision:btDefaultCollisionConfiguration.obj
 0001:000a10b0       ??_GCreateFunc@btSphereTriangleCollisionAlgorithm@@UEAAPEAXI@Z 00000001400a20b0 f   BulletCollision:btDefaultCollisionConfiguration.obj
 0001:000a10f0       ?CreateCollisionAlgorithm@CreateFunc@btSphereTriangleCollisionAlgorithm@@UEAAPEAVbtCollisionAlgorithm@@AEAUbtCollisionAlgorithmConstructionInfo@@PEBUbtCollisionObjectWrapper@@1@Z 00000001400a20f0 f   BulletCollision:btDefaultCollisionConfiguration.obj
 0001:000a1160       ??_GCreateFunc@btBoxBoxCollisionAlgorithm@@UEAAPEAXI@Z 00000001400a2160 f   BulletCollision:btDefaultCollisionConfiguration.obj
 0001:000a11a0       ?CreateCollisionAlgorithm@CreateFunc@btBoxBoxCollisionAlgorithm@@UEAAPEAVbtCollisionAlgorithm@@AEAUbtCollisionAlgorithmConstructionInfo@@PEBUbtCollisionObjectWrapper@@1@Z 00000001400a21a0 f   BulletCollision:btDefaultCollisionConfiguration.obj
 0001:000a1200       ??_GCreateFunc@btConvexPlaneCollisionAlgorithm@@UEAAPEAXI@Z 00000001400a2200 f   BulletCollision:btDefaultCollisionConfiguration.obj
 0001:000a1240       ?CreateCollisionAlgorithm@CreateFunc@btConvexPlaneCollisionAlgorithm@@UEAAPEAVbtCollisionAlgorithm@@AEAUbtCollisionAlgorithmConstructionInfo@@PEBUbtCollisionObjectWrapper@@1@Z 00000001400a2240 f   BulletCollision:btDefaultCollisionConfiguration.obj
 0001:000a12c0       ??0btCollisionDispatcher@@QEAA@PEAVbtCollisionConfiguration@@@Z 00000001400a22c0 f   BulletCollision:btCollisionDispatcher.obj
 0001:000a13c0       ?defaultNearCallback@btCollisionDispatcher@@SAXAEAUbtBroadphasePair@@AEAV1@AEBUbtDispatcherInfo@@@Z 00000001400a23c0 f   BulletCollision:btCollisionDispatcher.obj
 0001:000a1560       ?registerCollisionCreateFunc@btCollisionDispatcher@@QEAAXHHPEAUbtCollisionAlgorithmCreateFunc@@@Z 00000001400a2560 f   BulletCollision:btCollisionDispatcher.obj
 0001:000a1590       ?registerClosestPointsCreateFunc@btCollisionDispatcher@@QEAAXHHPEAUbtCollisionAlgorithmCreateFunc@@@Z 00000001400a2590 f   BulletCollision:btCollisionDispatcher.obj
 0001:000a15c0       ??1btCollisionDispatcher@@UEAA@XZ 00000001400a25c0 f   BulletCollision:btCollisionDispatcher.obj
 0001:000a1640       ?getNewManifold@btCollisionDispatcher@@UEAAPEAVbtPersistentManifold@@PEBVbtCollisionObject@@0@Z 00000001400a2640 f   BulletCollision:btCollisionDispatcher.obj
 0001:000a1910       ?clearManifold@btCollisionDispatcher@@UEAAXPEAVbtPersistentManifold@@@Z 00000001400a2910 f   BulletCollision:btCollisionDispatcher.obj
 0001:000a19d0       ?releaseManifold@btCollisionDispatcher@@UEAAXPEAVbtPersistentManifold@@@Z 00000001400a29d0 f   BulletCollision:btCollisionDispatcher.obj
 0001:000a1a70       ?findAlgorithm@btCollisionDispatcher@@UEAAPEAVbtCollisionAlgorithm@@PEBUbtCollisionObjectWrapper@@0PEAVbtPersistentManifold@@W4ebtDispatcherQueryType@@@Z 00000001400a2a70 f   BulletCollision:btCollisionDispatcher.obj
 0001:000a1b10       ?needsResponse@btCollisionDispatcher@@UEAA_NPEBVbtCollisionObject@@0@Z 00000001400a2b10 f   BulletCollision:btCollisionDispatcher.obj
 0001:000a1b50       ?needsCollision@btCollisionDispatcher@@UEAA_NPEBVbtCollisionObject@@0@Z 00000001400a2b50 f   BulletCollision:btCollisionDispatcher.obj
 0001:000a1bd0       ?dispatchAllCollisionPairs@btCollisionDispatcher@@UEAAXPEAVbtOverlappingPairCache@@AEBUbtDispatcherInfo@@PEAVbtDispatcher@@@Z 00000001400a2bd0 f   BulletCollision:btCollisionDispatcher.obj
 0001:000a1c80       ?allocateCollisionAlgorithm@btCollisionDispatcher@@UEAAPEAXH@Z 00000001400a2c80 f   BulletCollision:btCollisionDispatcher.obj
 0001:000a1cd0       ?freeCollisionAlgorithm@btCollisionDispatcher@@UEAAXPEAX@Z 00000001400a2cd0 f   BulletCollision:btCollisionDispatcher.obj
 0001:000a1d30       ??_GbtCollisionDispatcher@@UEAAPEAXI@Z 00000001400a2d30 f   BulletCollision:btCollisionDispatcher.obj
 0001:000a1dc0       ?getNumManifolds@btCollisionDispatcher@@UEBAHXZ 00000001400a2dc0 f   BulletCollision:btCollisionDispatcher.obj
 0001:000a1dd0       ?getManifoldByIndexInternal@btCollisionDispatcher@@UEAAPEAVbtPersistentManifold@@H@Z 00000001400a2dd0 f   BulletCollision:btCollisionDispatcher.obj
 0001:000a1df0       ?getInternalManifoldPointer@btCollisionDispatcher@@UEAAPEAPEAVbtPersistentManifold@@XZ 00000001400a2df0 f   BulletCollision:btCollisionDispatcher.obj
 0001:000a1e10       ?getInternalManifoldPool@btCollisionDispatcher@@UEBAPEBVbtPoolAllocator@@XZ 00000001400a2e10 f   BulletCollision:btCollisionDispatcher.obj
 0001:000a1e30       ?getInternalManifoldPool@btCollisionDispatcher@@UEAAPEAVbtPoolAllocator@@XZ 00000001400a2e30 f   BulletCollision:btCollisionDispatcher.obj
 0001:000a1e50       ??_GbtDispatcher@@UEAAPEAXI@Z 00000001400a2e50 f   BulletCollision:btCollisionDispatcher.obj
 0001:000a1e60       ??_GbtManifoldResult@@UEAAPEAXI@Z 00000001400a2e60 f   BulletCollision:btCollisionDispatcher.obj
 0001:000a1ea0       ?setShapeIdentifiersA@btManifoldResult@@UEAAXHH@Z 00000001400a2ea0 f   BulletCollision:btCollisionDispatcher.obj
 0001:000a1ec0       ?setShapeIdentifiersB@btManifoldResult@@UEAAXHH@Z 00000001400a2ec0 f   BulletCollision:btCollisionDispatcher.obj
 0001:000a1ee0       ??_GResult@btDiscreteCollisionDetectorInterface@@UEAAPEAXI@Z 00000001400a2ee0 f   BulletCollision:btCollisionDispatcher.obj
 0001:000a1ef0       ??_GbtCollisionPairCallback@@UEAAPEAXI@Z 00000001400a2ef0 f   BulletCollision:btCollisionDispatcher.obj
 0001:000a1f30       ?processOverlap@btCollisionPairCallback@@UEAA_NAEAUbtBroadphasePair@@@Z 00000001400a2f30 f   BulletCollision:btCollisionDispatcher.obj
 0001:000a1f60       ??_GbtOverlapCallback@@UEAAPEAXI@Z 00000001400a2f60 f   BulletCollision:btCollisionDispatcher.obj
 0001:000a1f70       ??0btDbvtBroadphase@@QEAA@PEAVbtOverlappingPairCache@@@Z 00000001400a2f70 f   BulletCollision:btDbvtBroadphase.obj
 0001:000a22b0       ??1btDbvtBroadphase@@UEAA@XZ 00000001400a32b0 f   BulletCollision:btDbvtBroadphase.obj
 0001:000a23d0       ?createProxy@btDbvtBroadphase@@UEAAPEAUbtBroadphaseProxy@@AEBVbtVector3@@0HPEAXHHPEAVbtDispatcher@@@Z 00000001400a33d0 f   BulletCollision:btDbvtBroadphase.obj
 0001:000a2550       ??$collideTV@UbtDbvtTreeCollider@@@btDbvt@@QEBAXPEBUbtDbvtNode@@AEBUbtDbvtAabbMm@@AEAUbtDbvtTreeCollider@@@Z 00000001400a3550 f   BulletCollision:btDbvtBroadphase.obj
 0001:000a2a20       ?destroyProxy@btDbvtBroadphase@@UEAAXPEAUbtBroadphaseProxy@@PEAVbtDispatcher@@@Z 00000001400a3a20 f   BulletCollision:btDbvtBroadphase.obj
 0001:000a2ad0       ?getAabb@btDbvtBroadphase@@UEBAXPEAUbtBroadphaseProxy@@AEAVbtVector3@@1@Z 00000001400a3ad0 f   BulletCollision:btDbvtBroadphase.obj
 0001:000a2af0       ?rayTest@btDbvtBroadphase@@UEAAXAEBVbtVector3@@0AEAUbtBroadphaseRayCallback@@00@Z 00000001400a3af0 f   BulletCollision:btDbvtBroadphase.obj
 0001:000a2c10       ??$rayTestInternal@UBroadphaseRayTester@@@btDbvt@@QEBAXPEBUbtDbvtNode@@AEBVbtVector3@@11QEAIM11AEAV?$btAlignedObjectArray@PEBUbtDbvtNode@@@@AEAUBroadphaseRayTester@@@Z 00000001400a3c10 f   BulletCollision:btDbvtBroadphase.obj
 0001:000a31e0       ?aabbTest@btDbvtBroadphase@@UEAAXAEBVbtVector3@@0AEAUbtBroadphaseAabbCallback@@@Z 00000001400a41e0 f   BulletCollision:btDbvtBroadphase.obj
 0001:000a3280       ??$collideTV@UBroadphaseAabbTester@@@btDbvt@@QEBAXPEBUbtDbvtNode@@AEBUbtDbvtAabbMm@@AEAUBroadphaseAabbTester@@@Z 00000001400a4280 f   BulletCollision:btDbvtBroadphase.obj
 0001:000a3700       ?setAabb@btDbvtBroadphase@@UEAAXPEAUbtBroadphaseProxy@@AEBVbtVector3@@1PEAVbtDispatcher@@@Z 00000001400a4700 f   BulletCollision:btDbvtBroadphase.obj
 0001:000a3a00       ??$collideTTpersistentStack@UbtDbvtTreeCollider@@@btDbvt@@QEAAXPEBUbtDbvtNode@@0AEAUbtDbvtTreeCollider@@@Z 00000001400a4a00 f   BulletCollision:btDbvtBroadphase.obj
 0001:000a3e10       ?setAabbForceUpdate@btDbvtBroadphase@@QEAAXPEAUbtBroadphaseProxy@@AEBVbtVector3@@1PEAVbtDispatcher@@@Z 00000001400a4e10 f   BulletCollision:btDbvtBroadphase.obj
 0001:000a3fb0       ?calculateOverlappingPairs@btDbvtBroadphase@@UEAAXPEAVbtDispatcher@@@Z 00000001400a4fb0 f   BulletCollision:btDbvtBroadphase.obj
 0001:000a3ff0       ?collide@btDbvtBroadphase@@QEAAXPEAVbtDispatcher@@@Z 00000001400a4ff0 f   BulletCollision:btDbvtBroadphase.obj
 0001:000a43b0       ?performDeferredRemoval@btDbvtBroadphase@@QEAAXPEAVbtDispatcher@@@Z 00000001400a53b0 f   BulletCollision:btDbvtBroadphase.obj
 0001:000a4720       ?optimize@btDbvtBroadphase@@QEAAXXZ 00000001400a5720 f   BulletCollision:btDbvtBroadphase.obj
 0001:000a4760       ?getOverlappingPairCache@btDbvtBroadphase@@UEAAPEAVbtOverlappingPairCache@@XZ 00000001400a5760 f   BulletCollision:btDbvtBroadphase.obj
 0001:000a4780       ?getOverlappingPairCache@btDbvtBroadphase@@UEBAPEBVbtOverlappingPairCache@@XZ 00000001400a5780 f   BulletCollision:btDbvtBroadphase.obj
 0001:000a47a0       ?getBroadphaseAabb@btDbvtBroadphase@@UEBAXAEAVbtVector3@@0@Z 00000001400a57a0 f   BulletCollision:btDbvtBroadphase.obj
 0001:000a4830       ?resetPool@btDbvtBroadphase@@UEAAXPEAVbtDispatcher@@@Z 00000001400a5830 f   BulletCollision:btDbvtBroadphase.obj
 0001:000a48c0       ?printStats@btDbvtBroadphase@@UEAAXXZ 00000001400a58c0 f   BulletCollision:btDbvtBroadphase.obj
 0001:000a48d0       ?benchmark@btDbvtBroadphase@@SAXPEAVbtBroadphaseInterface@@@Z 00000001400a58d0 f   BulletCollision:btDbvtBroadphase.obj
 0001:000a48e0       ??_GbtDbvtBroadphase@@UEAAPEAXI@Z 00000001400a58e0 f   BulletCollision:btDbvtBroadphase.obj
 0001:000a4920       ??_GbtBroadphaseInterface@@UEAAPEAXI@Z 00000001400a5920 f   BulletCollision:btDbvtBroadphase.obj
 0001:000a4930       ?resetPool@btBroadphaseInterface@@UEAAXPEAVbtDispatcher@@@Z 00000001400a5930 f   BulletCollision:btDbvtBroadphase.obj
 0001:000a4940       ??0?$btAlignedObjectArray@PEBUbtDbvtNode@@@@QEAA@AEBV0@@Z 00000001400a5940 f   BulletCollision:btDbvtBroadphase.obj
 0001:000a4b80       ??$quickSortInternal@VbtBroadphasePairSortPredicate@@@?$btAlignedObjectArray@UbtBroadphasePair@@@@QEAAXAEBVbtBroadphasePairSortPredicate@@HH@Z 00000001400a5b80 f   BulletCollision:btDbvtBroadphase.obj
 0001:000a4de0       ?btAlignedAllocSetCustomAligned@@YAXP6APEAX_KH@ZP6AXPEAX@Z@Z 00000001400a5de0 f   LinearMath:btAlignedAllocator.obj
 0001:000a4eb0       ?btAlignedAllocSetCustom@@YAXP6APEAX_K@ZP6AXPEAX@Z@Z 00000001400a5eb0 f   LinearMath:btAlignedAllocator.obj
 0001:000a4f40       ?btAlignedAllocInternal@@YAPEAX_KH@Z 00000001400a5f40 f   LinearMath:btAlignedAllocator.obj
 0001:000a4f60       ?btAlignedFreeInternal@@YAXPEAX@Z 00000001400a5f60 f   LinearMath:btAlignedAllocator.obj
 0001:000a4f90       ?resolveSingleConstraintRowGenericSIMD@btSequentialImpulseConstraintSolver@@IEAAMAEAUbtSolverBody@@0AEBUbtSolverConstraint@@@Z 00000001400a5f90 f   BulletDynamics:btSequentialImpulseConstraintSolver.obj
 0001:000a4fc0       ?resolveSingleConstraintRowGeneric@btSequentialImpulseConstraintSolver@@IEAAMAEAUbtSolverBody@@0AEBUbtSolverConstraint@@@Z 00000001400a5fc0 f   BulletDynamics:btSequentialImpulseConstraintSolver.obj
 0001:000a4ff0       ?resolveSingleConstraintRowLowerLimitSIMD@btSequentialImpulseConstraintSolver@@IEAAMAEAUbtSolverBody@@0AEBUbtSolverConstraint@@@Z 00000001400a5ff0 f   BulletDynamics:btSequentialImpulseConstraintSolver.obj
 0001:000a5020       ?resolveSingleConstraintRowLowerLimit@btSequentialImpulseConstraintSolver@@IEAAMAEAUbtSolverBody@@0AEBUbtSolverConstraint@@@Z 00000001400a6020 f   BulletDynamics:btSequentialImpulseConstraintSolver.obj
 0001:000a5050       ??0btSequentialImpulseConstraintSolver@@QEAA@XZ 00000001400a6050 f   BulletDynamics:btSequentialImpulseConstraintSolver.obj
 0001:000a51f0       ?setupSolverFunctions@btSequentialImpulseConstraintSolver@@IEAAX_N@Z 00000001400a61f0 f   BulletDynamics:btSequentialImpulseConstraintSolver.obj
 0001:000a5bb0       ??1btSequentialImpulseConstraintSolver@@UEAA@XZ 00000001400a6bb0 f   BulletDynamics:btSequentialImpulseConstraintSolver.obj
 0001:000a5e20       ?getScalarConstraintRowSolverGeneric@btSequentialImpulseConstraintSolver@@QEAAP6AMAEAUbtSolverBody@@0AEBUbtSolverConstraint@@@ZXZ 00000001400a6e20 f   BulletDynamics:btSequentialImpulseConstraintSolver.obj
 0001:000a5e40       ?getScalarConstraintRowSolverLowerLimit@btSequentialImpulseConstraintSolver@@QEAAP6AMAEAUbtSolverBody@@0AEBUbtSolverConstraint@@@ZXZ 00000001400a6e40 f   BulletDynamics:btSequentialImpulseConstraintSolver.obj
 0001:000a5e60       ?btRand2@btSequentialImpulseConstraintSolver@@QEAAKXZ 00000001400a6e60 f   BulletDynamics:btSequentialImpulseConstraintSolver.obj
 0001:000a5e90       ?btRandInt2@btSequentialImpulseConstraintSolver@@QEAAHH@Z 00000001400a6e90 f   BulletDynamics:btSequentialImpulseConstraintSolver.obj
 0001:000a5f10       ?initSolverBody@btSequentialImpulseConstraintSolver@@IEAAXPEAUbtSolverBody@@PEAVbtCollisionObject@@M@Z 00000001400a6f10 f   BulletDynamics:btSequentialImpulseConstraintSolver.obj
 0001:000a6170       ?restitutionCurve@btSequentialImpulseConstraintSolver@@IEAAMMMM@Z 00000001400a7170 f   BulletDynamics:btSequentialImpulseConstraintSolver.obj
 0001:000a61b0       ?applyAnisotropicFriction@btSequentialImpulseConstraintSolver@@KAXPEAVbtCollisionObject@@AEAVbtVector3@@H@Z 00000001400a71b0 f   BulletDynamics:btSequentialImpulseConstraintSolver.obj
 0001:000a6320       ?setupFrictionConstraint@btSequentialImpulseConstraintSolver@@IEAAXAEAUbtSolverConstraint@@AEBVbtVector3@@HHAEAVbtManifoldPoint@@11PEAVbtCollisionObject@@3MAEBUbtContactSolverInfo@@MM@Z 00000001400a7320 f   BulletDynamics:btSequentialImpulseConstraintSolver.obj
 0001:000a6a30       ?addFrictionConstraint@btSequentialImpulseConstraintSolver@@IEAAAEAUbtSolverConstraint@@AEBVbtVector3@@HHHAEAVbtManifoldPoint@@00PEAVbtCollisionObject@@2MAEBUbtContactSolverInfo@@MM@Z 00000001400a7a30 f   BulletDynamics:btSequentialImpulseConstraintSolver.obj
 0001:000a6ca0       ?setupTorsionalFrictionConstraint@btSequentialImpulseConstraintSolver@@IEAAXAEAUbtSolverConstraint@@AEBVbtVector3@@HHAEAVbtManifoldPoint@@M11PEAVbtCollisionObject@@3MMM@Z 00000001400a7ca0 f   BulletDynamics:btSequentialImpulseConstraintSolver.obj
 0001:000a72b0       ?addTorsionalFrictionConstraint@btSequentialImpulseConstraintSolver@@IEAAAEAUbtSolverConstraint@@AEBVbtVector3@@HHHAEAVbtManifoldPoint@@M00PEAVbtCollisionObject@@2MMM@Z 00000001400a82b0 f   BulletDynamics:btSequentialImpulseConstraintSolver.obj
 0001:000a74f0       ?getOrInitSolverBody@btSequentialImpulseConstraintSolver@@IEAAHAEAVbtCollisionObject@@M@Z 00000001400a84f0 f   BulletDynamics:btSequentialImpulseConstraintSolver.obj
 0001:000a7a70       ?setupContactConstraint@btSequentialImpulseConstraintSolver@@IEAAXAEAUbtSolverConstraint@@HHAEAVbtManifoldPoint@@AEBUbtContactSolverInfo@@AEAMAEBVbtVector3@@4@Z 00000001400a8a70 f   BulletDynamics:btSequentialImpulseConstraintSolver.obj
 0001:000a8530       ?setFrictionConstraintImpulse@btSequentialImpulseConstraintSolver@@IEAAXAEAUbtSolverConstraint@@HHAEAVbtManifoldPoint@@AEBUbtContactSolverInfo@@@Z 00000001400a9530 f   BulletDynamics:btSequentialImpulseConstraintSolver.obj
 0001:000a8590       ?convertContact@btSequentialImpulseConstraintSolver@@IEAAXPEAVbtPersistentManifold@@AEBUbtContactSolverInfo@@@Z 00000001400a9590 f   BulletDynamics:btSequentialImpulseConstraintSolver.obj
 0001:000aa4a0       ?convertContacts@btSequentialImpulseConstraintSolver@@MEAAXPEAPEAVbtPersistentManifold@@HAEBUbtContactSolverInfo@@@Z 00000001400ab4a0 f   BulletDynamics:btSequentialImpulseConstraintSolver.obj
 0001:000aa510       ?convertJoint@btSequentialImpulseConstraintSolver@@IEAAXPEAUbtSolverConstraint@@PEAVbtTypedConstraint@@AEBUbtConstraintInfo1@3@HHAEBUbtContactSolverInfo@@@Z 00000001400ab510 f   BulletDynamics:btSequentialImpulseConstraintSolver.obj
 0001:000aae50       ?convertJoints@btSequentialImpulseConstraintSolver@@MEAAXPEAPEAVbtTypedConstraint@@HAEBUbtContactSolverInfo@@@Z 00000001400abe50 f   BulletDynamics:btSequentialImpulseConstraintSolver.obj
 0001:000ab300       ?convertBodies@btSequentialImpulseConstraintSolver@@MEAAXPEAPEAVbtCollisionObject@@HAEBUbtContactSolverInfo@@@Z 00000001400ac300 f   BulletDynamics:btSequentialImpulseConstraintSolver.obj
 0001:000ab8f0       ?solveGroupCacheFriendlySetup@btSequentialImpulseConstraintSolver@@MEAAMPEAPEAVbtCollisionObject@@HPEAPEAVbtPersistentManifold@@HPEAPEAVbtTypedConstraint@@HAEBUbtContactSolverInfo@@PEAVbtIDebugDraw@@@Z 00000001400ac8f0 f   BulletDynamics:btSequentialImpulseConstraintSolver.obj
 0001:000ac010       ?solveSingleIteration@btSequentialImpulseConstraintSolver@@MEAAMHPEAPEAVbtCollisionObject@@HPEAPEAVbtPersistentManifold@@HPEAPEAVbtTypedConstraint@@HAEBUbtContactSolverInfo@@PEAVbtIDebugDraw@@@Z 00000001400ad010 f   BulletDynamics:btSequentialImpulseConstraintSolver.obj
 0001:000acbf0       ?solveGroupCacheFriendlySplitImpulseIterations@btSequentialImpulseConstraintSolver@@MEAAXPEAPEAVbtCollisionObject@@HPEAPEAVbtPersistentManifold@@HPEAPEAVbtTypedConstraint@@HAEBUbtContactSolverInfo@@PEAVbtIDebugDraw@@@Z 00000001400adbf0 f   BulletDynamics:btSequentialImpulseConstraintSolver.obj
 0001:000acd20       ?solveGroupCacheFriendlyIterations@btSequentialImpulseConstraintSolver@@MEAAMPEAPEAVbtCollisionObject@@HPEAPEAVbtPersistentManifold@@HPEAPEAVbtTypedConstraint@@HAEBUbtContactSolverInfo@@PEAVbtIDebugDraw@@@Z 00000001400add20 f   BulletDynamics:btSequentialImpulseConstraintSolver.obj
 0001:000acef0       ?writeBackContacts@btSequentialImpulseConstraintSolver@@IEAAXHHAEBUbtContactSolverInfo@@@Z 00000001400adef0 f   BulletDynamics:btSequentialImpulseConstraintSolver.obj
 0001:000acfa0       ?writeBackJoints@btSequentialImpulseConstraintSolver@@IEAAXHHAEBUbtContactSolverInfo@@@Z 00000001400adfa0 f   BulletDynamics:btSequentialImpulseConstraintSolver.obj
 0001:000ad200       ?writeBackBodies@btSequentialImpulseConstraintSolver@@IEAAXHHAEBUbtContactSolverInfo@@@Z 00000001400ae200 f   BulletDynamics:btSequentialImpulseConstraintSolver.obj
 0001:000ad410       ?writebackVelocityAndTransform@btSolverBody@@QEAAXMM@Z 00000001400ae410 f   BulletDynamics:btSequentialImpulseConstraintSolver.obj
 0001:000ad5a0       ?solveGroupCacheFriendlyFinish@btSequentialImpulseConstraintSolver@@MEAAMPEAPEAVbtCollisionObject@@HAEBUbtContactSolverInfo@@@Z 00000001400ae5a0 f   BulletDynamics:btSequentialImpulseConstraintSolver.obj
 0001:000ad850       ?solveGroup@btSequentialImpulseConstraintSolver@@UEAAMPEAPEAVbtCollisionObject@@HPEAPEAVbtPersistentManifold@@HPEAPEAVbtTypedConstraint@@HAEBUbtContactSolverInfo@@PEAVbtIDebugDraw@@PEAVbtDispatcher@@@Z 00000001400ae850 f   BulletDynamics:btSequentialImpulseConstraintSolver.obj
 0001:000ad970       ?reset@btSequentialImpulseConstraintSolver@@UEAAXXZ 00000001400ae970 f   BulletDynamics:btSequentialImpulseConstraintSolver.obj
 0001:000ad990       ??_GbtSequentialImpulseConstraintSolver@@UEAAPEAXI@Z 00000001400ae990 f   BulletDynamics:btSequentialImpulseConstraintSolver.obj
 0001:000ad9d0       ?prepareSolve@btConstraintSolver@@UEAAXHH@Z 00000001400ae9d0 f   BulletDynamics:btSequentialImpulseConstraintSolver.obj
 0001:000ad9e0       ?allSolved@btConstraintSolver@@UEAAXAEBUbtContactSolverInfo@@PEAVbtIDebugDraw@@@Z 00000001400ae9e0 f   BulletDynamics:btSequentialImpulseConstraintSolver.obj
 0001:000ad9f0       ?getSolverType@btSequentialImpulseConstraintSolver@@UEBA?AW4btConstraintSolverType@@XZ 00000001400ae9f0 f   BulletDynamics:btSequentialImpulseConstraintSolver.obj
 0001:000ada10       ??_GbtConstraintSolver@@UEAAPEAXI@Z 00000001400aea10 f   BulletDynamics:btSequentialImpulseConstraintSolver.obj
 0001:000ada20       ?integrateTransform@btTransformUtil@@SAXAEBVbtTransform@@AEBVbtVector3@@1MAEAV2@@Z 00000001400aea20 f   BulletDynamics:btSequentialImpulseConstraintSolver.obj
 0001:000adeb0       ??0btDiscreteDynamicsWorld@@QEAA@PEAVbtDispatcher@@PEAVbtBroadphaseInterface@@PEAVbtConstraintSolver@@PEAVbtCollisionConfiguration@@@Z 00000001400aeeb0 f   BulletDynamics:btDiscreteDynamicsWorld.obj
 0001:000ae1a0       ??1btDiscreteDynamicsWorld@@UEAA@XZ 00000001400af1a0 f   BulletDynamics:btDiscreteDynamicsWorld.obj
 0001:000ae350       ?saveKinematicState@btDiscreteDynamicsWorld@@MEAAXM@Z 00000001400af350 f   BulletDynamics:btDiscreteDynamicsWorld.obj
 0001:000ae3d0       ?debugDrawWorld@btDiscreteDynamicsWorld@@UEAAXXZ 00000001400af3d0 f   BulletDynamics:btDiscreteDynamicsWorld.obj
 0001:000ae560       ?clearForces@btDiscreteDynamicsWorld@@UEAAXXZ 00000001400af560 f   BulletDynamics:btDiscreteDynamicsWorld.obj
 0001:000ae5b0       ?applyGravity@btDiscreteDynamicsWorld@@UEAAXXZ 00000001400af5b0 f   BulletDynamics:btDiscreteDynamicsWorld.obj
 0001:000ae620       ?synchronizeSingleMotionState@btDiscreteDynamicsWorld@@QEAAXPEAVbtRigidBody@@@Z 00000001400af620 f   BulletDynamics:btDiscreteDynamicsWorld.obj
 0001:000ae6f0       ?synchronizeMotionStates@btDiscreteDynamicsWorld@@UEAAXXZ 00000001400af6f0 f   BulletDynamics:btDiscreteDynamicsWorld.obj
 0001:000ae910       ?stepSimulation@btDiscreteDynamicsWorld@@UEAAHMHM@Z 00000001400af910 f   BulletDynamics:btDiscreteDynamicsWorld.obj
 0001:000aea80       ?startProfiling@btDiscreteDynamicsWorld@@IEAAXM@Z 00000001400afa80 f   BulletDynamics:btDiscreteDynamicsWorld.obj
 0001:000aea90       ?internalSingleStepSimulation@btDiscreteDynamicsWorld@@MEAAXM@Z 00000001400afa90 f   BulletDynamics:btDiscreteDynamicsWorld.obj
 0001:000aec00       ?updateActions@btDiscreteDynamicsWorld@@IEAAXM@Z 00000001400afc00 f   BulletDynamics:btDiscreteDynamicsWorld.obj
 0001:000aecc0       ?setGravity@btDiscreteDynamicsWorld@@UEAAXAEBVbtVector3@@@Z 00000001400afcc0 f   BulletDynamics:btDiscreteDynamicsWorld.obj
 0001:000aed50       ?getGravity@btDiscreteDynamicsWorld@@UEBA?AVbtVector3@@XZ 00000001400afd50 f   BulletDynamics:btDiscreteDynamicsWorld.obj
 0001:000aed70       ?addCollisionObject@btDiscreteDynamicsWorld@@UEAAXPEAVbtCollisionObject@@HH@Z 00000001400afd70 f   BulletDynamics:btDiscreteDynamicsWorld.obj
 0001:000aed90       ?removeCollisionObject@btDiscreteDynamicsWorld@@UEAAXPEAVbtCollisionObject@@@Z 00000001400afd90 f   BulletDynamics:btDiscreteDynamicsWorld.obj
 0001:000aedd0       ?removeRigidBody@btDiscreteDynamicsWorld@@UEAAXPEAVbtRigidBody@@@Z 00000001400afdd0 f   BulletDynamics:btDiscreteDynamicsWorld.obj
 0001:000aee50       ?addRigidBody@btDiscreteDynamicsWorld@@UEAAXPEAVbtRigidBody@@@Z 00000001400afe50 f   BulletDynamics:btDiscreteDynamicsWorld.obj
 0001:000af030       ?addRigidBody@btDiscreteDynamicsWorld@@UEAAXPEAVbtRigidBody@@HH@Z 00000001400b0030 f   BulletDynamics:btDiscreteDynamicsWorld.obj
 0001:000af210       ?updateActivationState@btDiscreteDynamicsWorld@@MEAAXM@Z 00000001400b0210 f   BulletDynamics:btDiscreteDynamicsWorld.obj
 0001:000af460       ?addConstraint@btDiscreteDynamicsWorld@@UEAAXPEAVbtTypedConstraint@@_N@Z 00000001400b0460 f   BulletDynamics:btDiscreteDynamicsWorld.obj
 0001:000af5f0       ?removeConstraint@btDiscreteDynamicsWorld@@UEAAXPEAVbtTypedConstraint@@@Z 00000001400b05f0 f   BulletDynamics:btDiscreteDynamicsWorld.obj
 0001:000af680       ?addAction@btDiscreteDynamicsWorld@@UEAAXPEAVbtActionInterface@@@Z 00000001400b0680 f   BulletDynamics:btDiscreteDynamicsWorld.obj
 0001:000af7f0       ?removeAction@btDiscreteDynamicsWorld@@UEAAXPEAVbtActionInterface@@@Z 00000001400b07f0 f   BulletDynamics:btDiscreteDynamicsWorld.obj
 0001:000af850       ?addVehicle@btDiscreteDynamicsWorld@@UEAAXPEAVbtActionInterface@@@Z 00000001400b0850 f   BulletDynamics:btDiscreteDynamicsWorld.obj
 0001:000af870       ?removeVehicle@btDiscreteDynamicsWorld@@UEAAXPEAVbtActionInterface@@@Z 00000001400b0870 f   BulletDynamics:btDiscreteDynamicsWorld.obj
 0001:000af890       ?addCharacter@btDiscreteDynamicsWorld@@UEAAXPEAVbtActionInterface@@@Z 00000001400b0890 f   BulletDynamics:btDiscreteDynamicsWorld.obj
 0001:000af8b0       ?removeCharacter@btDiscreteDynamicsWorld@@UEAAXPEAVbtActionInterface@@@Z 00000001400b08b0 f   BulletDynamics:btDiscreteDynamicsWorld.obj
 0001:000af8d0       ?solveConstraints@btDiscreteDynamicsWorld@@UEAAXAEAUbtContactSolverInfo@@@Z 00000001400b08d0 f   BulletDynamics:btDiscreteDynamicsWorld.obj
 0001:000afe80       ?processConstraints@InplaceSolverIslandCallback@@QEAAXXZ 00000001400b0e80 f   BulletDynamics:btDiscreteDynamicsWorld.obj
 0001:000b0170       ?calculateSimulationIslands@btDiscreteDynamicsWorld@@MEAAXXZ 00000001400b1170 f   BulletDynamics:btDiscreteDynamicsWorld.obj
 0001:000b0420       ?createPredictiveContactsInternal@btDiscreteDynamicsWorld@@IEAAXPEAPEAVbtRigidBody@@HM@Z 00000001400b1420 f   BulletDynamics:btDiscreteDynamicsWorld.obj
 0001:000b0c30       ?releasePredictiveContacts@btDiscreteDynamicsWorld@@IEAAXXZ 00000001400b1c30 f   BulletDynamics:btDiscreteDynamicsWorld.obj
 0001:000b0d10       ?createPredictiveContacts@btDiscreteDynamicsWorld@@MEAAXM@Z 00000001400b1d10 f   BulletDynamics:btDiscreteDynamicsWorld.obj
 0001:000b0e40       ?integrateTransformsInternal@btDiscreteDynamicsWorld@@IEAAXPEAPEAVbtRigidBody@@HM@Z 00000001400b1e40 f   BulletDynamics:btDiscreteDynamicsWorld.obj
 0001:000b12e0       ?integrateTransforms@btDiscreteDynamicsWorld@@MEAAXM@Z 00000001400b22e0 f   BulletDynamics:btDiscreteDynamicsWorld.obj
 0001:000b15b0       ?applyImpulse@btRigidBody@@QEAAXAEBVbtVector3@@0@Z 00000001400b25b0 f   BulletDynamics:btDiscreteDynamicsWorld.obj
 0001:000b1740       ?predictUnconstraintMotion@btDiscreteDynamicsWorld@@MEAAXM@Z 00000001400b2740 f   BulletDynamics:btDiscreteDynamicsWorld.obj
 0001:000b1840       ?debugDrawConstraint@btDiscreteDynamicsWorld@@UEAAXPEAVbtTypedConstraint@@@Z 00000001400b2840 f   BulletDynamics:btDiscreteDynamicsWorld.obj
 0001:000b4030       ?setConstraintSolver@btDiscreteDynamicsWorld@@UEAAXPEAVbtConstraintSolver@@@Z 00000001400b5030 f   BulletDynamics:btDiscreteDynamicsWorld.obj
 0001:000b4090       ?getConstraintSolver@btDiscreteDynamicsWorld@@UEAAPEAVbtConstraintSolver@@XZ 00000001400b5090 f   BulletDynamics:btDiscreteDynamicsWorld.obj
 0001:000b40b0       ?getNumConstraints@btDiscreteDynamicsWorld@@UEBAHXZ 00000001400b50b0 f   BulletDynamics:btDiscreteDynamicsWorld.obj
 0001:000b40d0       ?getConstraint@btDiscreteDynamicsWorld@@UEAAPEAVbtTypedConstraint@@H@Z 00000001400b50d0 f   BulletDynamics:btDiscreteDynamicsWorld.obj
 0001:000b40f0       ?getConstraint@btDiscreteDynamicsWorld@@UEBAPEBVbtTypedConstraint@@H@Z 00000001400b50f0 f   BulletDynamics:btDiscreteDynamicsWorld.obj
 0001:000b4110       ?serializeRigidBodies@btDiscreteDynamicsWorld@@IEAAXPEAVbtSerializer@@@Z 00000001400b5110 f   BulletDynamics:btDiscreteDynamicsWorld.obj
 0001:000b4230       ?serializeDynamicsWorldInfo@btDiscreteDynamicsWorld@@IEAAXPEAVbtSerializer@@@Z 00000001400b5230 f   BulletDynamics:btDiscreteDynamicsWorld.obj
 0001:000b43e0       ?serialize@btDiscreteDynamicsWorld@@UEAAXPEAVbtSerializer@@@Z 00000001400b53e0 f   BulletDynamics:btDiscreteDynamicsWorld.obj
 0001:000b45e0       ??_GbtDiscreteDynamicsWorld@@UEAAPEAXI@Z 00000001400b55e0 f   BulletDynamics:btDiscreteDynamicsWorld.obj
 0001:000b4620       ?setDebugDrawer@btCollisionWorld@@UEAAXPEAVbtIDebugDraw@@@Z 00000001400b5620 f   BulletDynamics:btDiscreteDynamicsWorld.obj
 0001:000b4640       ?getDebugDrawer@btCollisionWorld@@UEAAPEAVbtIDebugDraw@@XZ 00000001400b5640 f   BulletDynamics:btDiscreteDynamicsWorld.obj
 0001:000b4660       ?getWorldType@btDiscreteDynamicsWorld@@UEBA?AW4btDynamicsWorldType@@XZ 00000001400b5660 f   BulletDynamics:btDiscreteDynamicsWorld.obj
 0001:000b4680       ?setNumTasks@btDiscreteDynamicsWorld@@UEAAXH@Z 00000001400b5680 f   BulletDynamics:btDiscreteDynamicsWorld.obj
 0001:000b4690       ?updateVehicles@btDiscreteDynamicsWorld@@UEAAXM@Z 00000001400b5690 f   BulletDynamics:btDiscreteDynamicsWorld.obj
 0001:000b4750       ??_GbtDynamicsWorld@@UEAAPEAXI@Z 00000001400b5750 f   BulletDynamics:btDiscreteDynamicsWorld.obj
 0001:000b4760       ?addConstraint@btDynamicsWorld@@UEAAXPEAVbtTypedConstraint@@_N@Z 00000001400b5760 f   BulletDynamics:btDiscreteDynamicsWorld.obj
 0001:000b4770       ?removeConstraint@btDynamicsWorld@@UEAAXPEAVbtTypedConstraint@@@Z 00000001400b5770 f   BulletDynamics:btDiscreteDynamicsWorld.obj
 0001:000b4780       ?getNumConstraints@btDynamicsWorld@@UEBAHXZ 00000001400b5780 f   BulletDynamics:btDiscreteDynamicsWorld.obj
 0001:000b4790       ?getConstraint@btDynamicsWorld@@UEBAPEBVbtTypedConstraint@@H@Z 00000001400b5790 f   BulletDynamics:btDiscreteDynamicsWorld.obj
 0001:000b47a0       ?getConstraint@btDynamicsWorld@@UEAAPEAVbtTypedConstraint@@H@Z 00000001400b57a0 f   BulletDynamics:btDiscreteDynamicsWorld.obj
 0001:000b47b0       ?addVehicle@btDynamicsWorld@@UEAAXPEAVbtActionInterface@@@Z 00000001400b57b0 f   BulletDynamics:btDiscreteDynamicsWorld.obj
 0001:000b47c0       ?removeVehicle@btDynamicsWorld@@UEAAXPEAVbtActionInterface@@@Z 00000001400b57c0 f   BulletDynamics:btDiscreteDynamicsWorld.obj
 0001:000b47d0       ?addCharacter@btDynamicsWorld@@UEAAXPEAVbtActionInterface@@@Z 00000001400b57d0 f   BulletDynamics:btDiscreteDynamicsWorld.obj
 0001:000b47e0       ?removeCharacter@btDynamicsWorld@@UEAAXPEAVbtActionInterface@@@Z 00000001400b57e0 f   BulletDynamics:btDiscreteDynamicsWorld.obj
 0001:000b47f0       ??_GInplaceSolverIslandCallback@@UEAAPEAXI@Z 00000001400b57f0 f   BulletDynamics:btDiscreteDynamicsWorld.obj
 0001:000b48e0       ?processIsland@InplaceSolverIslandCallback@@UEAAXPEAPEAVbtCollisionObject@@HPEAPEAVbtPersistentManifold@@HH@Z 00000001400b58e0 f   BulletDynamics:btDiscreteDynamicsWorld.obj
 0001:000b4ee0       ??_GIslandCallback@btSimulationIslandManager@@UEAAPEAXI@Z 00000001400b5ee0 f   BulletDynamics:btDiscreteDynamicsWorld.obj
 0001:000b4ef0       ??_GbtClosestNotMeConvexResultCallback@@UEAAPEAXI@Z 00000001400b5ef0 f   BulletDynamics:btDiscreteDynamicsWorld.obj
 0001:000b4f30       ?needsCollision@btClosestNotMeConvexResultCallback@@UEBA_NPEAUbtBroadphaseProxy@@@Z 00000001400b5f30 f   BulletDynamics:btDiscreteDynamicsWorld.obj
 0001:000b4fa0       ?addSingleResult@btClosestNotMeConvexResultCallback@@UEAAMAEAULocalConvexResult@btCollisionWorld@@_N@Z 00000001400b5fa0 f   BulletDynamics:btDiscreteDynamicsWorld.obj
 0001:000b50f0       ??_GClosestConvexResultCallback@btCollisionWorld@@UEAAPEAXI@Z 00000001400b60f0 f   BulletDynamics:btDiscreteDynamicsWorld.obj
 0001:000b5130       ?needsCollision@ConvexResultCallback@btCollisionWorld@@UEBA_NPEAUbtBroadphaseProxy@@@Z 00000001400b6130 f   BulletDynamics:btDiscreteDynamicsWorld.obj
 0001:000b5160       ?addSingleResult@ClosestConvexResultCallback@btCollisionWorld@@UEAAMAEAULocalConvexResult@2@_N@Z 00000001400b6160 f   BulletDynamics:btDiscreteDynamicsWorld.obj
 0001:000b5240       ??_GConvexResultCallback@btCollisionWorld@@UEAAPEAXI@Z 00000001400b6240 f   BulletDynamics:btDiscreteDynamicsWorld.obj
 0001:000b5250       ??$quickSortInternal@VbtSortConstraintOnIslandPredicate@@@?$btAlignedObjectArray@PEAVbtTypedConstraint@@@@QEAAXAEBVbtSortConstraintOnIslandPredicate@@HH@Z 00000001400b6250 f   BulletDynamics:btDiscreteDynamicsWorld.obj
 0001:000b53e0       ??0btBoxShape@@QEAA@AEBVbtVector3@@@Z 00000001400b63e0 f   BulletCollision:btBoxShape.obj
 0001:000b5540       ?getAabb@btBoxShape@@UEBAXAEBVbtTransform@@AEAVbtVector3@@1@Z 00000001400b6540 f   BulletCollision:btBoxShape.obj
 0001:000b5690       ?calculateLocalInertia@btBoxShape@@UEBAXMAEAVbtVector3@@@Z 00000001400b6690 f   BulletCollision:btBoxShape.obj
 0001:000b5770       ??_GbtBoxShape@@UEAAPEAXI@Z 00000001400b6770 f   BulletCollision:btBoxShape.obj
 0001:000b57b0       ?setLocalScaling@btBoxShape@@UEAAXAEBVbtVector3@@@Z 00000001400b67b0 f   BulletCollision:btBoxShape.obj
 0001:000b5880       ?getName@btBoxShape@@UEBAPEBDXZ 00000001400b6880 f   BulletCollision:btBoxShape.obj
 0001:000b58a0       ?setMargin@btBoxShape@@UEAAXM@Z 00000001400b68a0 f   BulletCollision:btBoxShape.obj
 0001:000b5960       ?getMargin@btConvexInternalShape@@UEBAMXZ 00000001400b6960 f   BulletCollision:btBoxShape.obj
 0001:000b5980       ?localGetSupportingVertex@btBoxShape@@UEBA?AVbtVector3@@AEBV2@@Z 00000001400b6980 f   BulletCollision:btBoxShape.obj
 0001:000b5a50       ?localGetSupportingVertexWithoutMargin@btBoxShape@@UEBA?AVbtVector3@@AEBV2@@Z 00000001400b6a50 f   BulletCollision:btBoxShape.obj
 0001:000b5ac0       ?batchedUnitVectorGetSupportingVertexWithoutMargin@btBoxShape@@UEBAXPEBVbtVector3@@PEAV2@H@Z 00000001400b6ac0 f   BulletCollision:btBoxShape.obj
 0001:000b5d60       ?getNumPreferredPenetrationDirections@btBoxShape@@UEBAHXZ 00000001400b6d60 f   BulletCollision:btBoxShape.obj
 0001:000b5d80       ?getPreferredPenetrationDirection@btBoxShape@@UEBAXHAEAVbtVector3@@@Z 00000001400b6d80 f   BulletCollision:btBoxShape.obj
 0001:000b5e20       ?getNumVertices@btBoxShape@@UEBAHXZ 00000001400b6e20 f   BulletCollision:btBoxShape.obj
 0001:000b5e40       ?getNumEdges@btBoxShape@@UEBAHXZ 00000001400b6e40 f   BulletCollision:btBoxShape.obj
 0001:000b5e60       ?getEdge@btBoxShape@@UEBAXHAEAVbtVector3@@0@Z 00000001400b6e60 f   BulletCollision:btBoxShape.obj
 0001:000b5f80       ?getVertex@btBoxShape@@UEBAXHAEAVbtVector3@@@Z 00000001400b6f80 f   BulletCollision:btBoxShape.obj
 0001:000b6090       ?getNumPlanes@btBoxShape@@UEBAHXZ 00000001400b7090 f   BulletCollision:btBoxShape.obj
 0001:000b60b0       ?getPlane@btBoxShape@@UEBAXAEAVbtVector3@@0H@Z 00000001400b70b0 f   BulletCollision:btBoxShape.obj
 0001:000b6170       ?isInside@btBoxShape@@UEBA_NAEBVbtVector3@@M@Z 00000001400b7170 f   BulletCollision:btBoxShape.obj
 0001:000b6200       ?getPlaneEquation@btBoxShape@@UEBAXAEAVbtVector4@@H@Z 00000001400b7200 f   BulletCollision:btBoxShape.obj
 0001:000b62c0       ??0btConvexInternalShape@@IEAA@XZ 00000001400b72c0 f   BulletCollision:btConvexInternalShape.obj
 0001:000b6310       ?setLocalScaling@btConvexInternalShape@@UEAAXAEBVbtVector3@@@Z 00000001400b7310 f   BulletCollision:btConvexInternalShape.obj
 0001:000b6350       ?getAabbSlow@btConvexInternalShape@@UEBAXAEBVbtTransform@@AEAVbtVector3@@1@Z 00000001400b7350 f   BulletCollision:btConvexInternalShape.obj
 0001:000b6670       ?localGetSupportingVertex@btConvexInternalShape@@UEBA?AVbtVector3@@AEBV2@@Z 00000001400b7670 f   BulletCollision:btConvexInternalShape.obj
 0001:000b67e0       ??0btConvexInternalAabbCachingShape@@IEAA@XZ 00000001400b77e0 f   BulletCollision:btConvexInternalShape.obj
 0001:000b6850       ?getAabb@btConvexInternalAabbCachingShape@@UEBAXAEBVbtTransform@@AEAVbtVector3@@1@Z 00000001400b7850 f   BulletCollision:btConvexInternalShape.obj
 0001:000b6a80       ?setLocalScaling@btConvexInternalAabbCachingShape@@UEAAXAEBVbtVector3@@@Z 00000001400b7a80 f   BulletCollision:btConvexInternalShape.obj
 0001:000b6ad0       ?recalcLocalAabb@btConvexInternalAabbCachingShape@@QEAAXXZ 00000001400b7ad0 f   BulletCollision:btConvexInternalShape.obj
 0001:000b6c80       ??_GbtConvexInternalShape@@UEAAPEAXI@Z 00000001400b7c80 f   BulletCollision:btConvexInternalShape.obj
 0001:000b6c90       ?getAabb@btConvexInternalShape@@UEBAXAEBVbtTransform@@AEAVbtVector3@@1@Z 00000001400b7c90 f   BulletCollision:btConvexInternalShape.obj
 0001:000b6cb0       ?setMargin@btConvexInternalShape@@UEAAXM@Z 00000001400b7cb0 f   BulletCollision:btConvexInternalShape.obj
 0001:000b6cd0       ??_GbtConvexInternalAabbCachingShape@@UEAAPEAXI@Z 00000001400b7cd0 f   BulletCollision:btConvexInternalShape.obj
 0001:000b6ce0       ??0btCylinderShape@@QEAA@AEBVbtVector3@@@Z 00000001400b7ce0 f   BulletCollision:btCylinderShape.obj
 0001:000b6e50       ??0btCylinderShapeX@@QEAA@AEBVbtVector3@@@Z 00000001400b7e50 f   BulletCollision:btCylinderShape.obj
 0001:000b6e90       ??0btCylinderShapeZ@@QEAA@AEBVbtVector3@@@Z 00000001400b7e90 f   BulletCollision:btCylinderShape.obj
 0001:000b6ed0       ?getAabb@btCylinderShape@@UEBAXAEBVbtTransform@@AEAVbtVector3@@1@Z 00000001400b7ed0 f   BulletCollision:btCylinderShape.obj
 0001:000b7020       ?calculateLocalInertia@btCylinderShape@@UEBAXMAEAVbtVector3@@@Z 00000001400b8020 f   BulletCollision:btCylinderShape.obj
 0001:000b71b0       ?localGetSupportingVertexWithoutMargin@btCylinderShapeX@@UEBA?AVbtVector3@@AEBV2@@Z 00000001400b81b0 f   BulletCollision:btCylinderShape.obj
 0001:000b72a0       ?localGetSupportingVertexWithoutMargin@btCylinderShapeZ@@UEBA?AVbtVector3@@AEBV2@@Z 00000001400b82a0 f   BulletCollision:btCylinderShape.obj
 0001:000b7390       ?localGetSupportingVertexWithoutMargin@btCylinderShape@@UEBA?AVbtVector3@@AEBV2@@Z 00000001400b8390 f   BulletCollision:btCylinderShape.obj
 0001:000b7490       ?batchedUnitVectorGetSupportingVertexWithoutMargin@btCylinderShape@@UEBAXPEBVbtVector3@@PEAV2@H@Z 00000001400b8490 f   BulletCollision:btCylinderShape.obj
 0001:000b75e0       ?batchedUnitVectorGetSupportingVertexWithoutMargin@btCylinderShapeZ@@UEBAXPEBVbtVector3@@PEAV2@H@Z 00000001400b85e0 f   BulletCollision:btCylinderShape.obj
 0001:000b7720       ?batchedUnitVectorGetSupportingVertexWithoutMargin@btCylinderShapeX@@UEBAXPEBVbtVector3@@PEAV2@H@Z 00000001400b8720 f   BulletCollision:btCylinderShape.obj
 0001:000b7860       ??_GbtCylinderShape@@UEAAPEAXI@Z 00000001400b8860 f   BulletCollision:btCylinderShape.obj
 0001:000b78a0       ?setLocalScaling@btCylinderShape@@UEAAXAEBVbtVector3@@@Z 00000001400b88a0 f   BulletCollision:btCylinderShape.obj
 0001:000b7970       ?getName@btCylinderShape@@UEBAPEBDXZ 00000001400b8970 f   BulletCollision:btCylinderShape.obj
 0001:000b7990       ?getAnisotropicRollingFrictionDirection@btCylinderShape@@UEBA?AVbtVector3@@XZ 00000001400b8990 f   BulletCollision:btCylinderShape.obj
 0001:000b79c0       ?setMargin@btCylinderShape@@UEAAXM@Z 00000001400b89c0 f   BulletCollision:btCylinderShape.obj
 0001:000b7a80       ?calculateSerializeBufferSize@btCylinderShape@@UEBAHXZ 00000001400b8a80 f   BulletCollision:btCylinderShape.obj
 0001:000b7aa0       ?serialize@btCylinderShape@@UEBAPEBDPEAXPEAVbtSerializer@@@Z 00000001400b8aa0 f   BulletCollision:btCylinderShape.obj
 0001:000b7b50       ?localGetSupportingVertex@btCylinderShape@@UEBA?AVbtVector3@@AEBV2@@Z 00000001400b8b50 f   BulletCollision:btCylinderShape.obj
 0001:000b7d00       ?getRadius@btCylinderShape@@UEBAMXZ 00000001400b8d00 f   BulletCollision:btCylinderShape.obj
 0001:000b7d50       ??_GbtCylinderShapeX@@UEAAPEAXI@Z 00000001400b8d50 f   BulletCollision:btCylinderShape.obj
 0001:000b7d90       ?getName@btCylinderShapeX@@UEBAPEBDXZ 00000001400b8d90 f   BulletCollision:btCylinderShape.obj
 0001:000b7db0       ?getRadius@btCylinderShapeX@@UEBAMXZ 00000001400b8db0 f   BulletCollision:btCylinderShape.obj
 0001:000b7e00       ??_GbtCylinderShapeZ@@UEAAPEAXI@Z 00000001400b8e00 f   BulletCollision:btCylinderShape.obj
 0001:000b7e40       ?getName@btCylinderShapeZ@@UEBAPEBDXZ 00000001400b8e40 f   BulletCollision:btCylinderShape.obj
 0001:000b7e60       ?getRadius@btCylinderShapeZ@@UEBAMXZ 00000001400b8e60 f   BulletCollision:btCylinderShape.obj
 0001:000b7eb0       ??0btConeShape@@QEAA@MM@Z  00000001400b8eb0 f   BulletCollision:btConeShape.obj
 0001:000b7f70       ?setConeUpIndex@btConeShape@@QEAAXH@Z 00000001400b8f70 f   BulletCollision:btConeShape.obj
 0001:000b8000       ??0btConeShapeZ@@QEAA@MM@Z 00000001400b9000 f   BulletCollision:btConeShape.obj
 0001:000b80c0       ??0btConeShapeX@@QEAA@MM@Z 00000001400b90c0 f   BulletCollision:btConeShape.obj
 0001:000b8180       ?coneLocalSupport@btConeShape@@AEBA?AVbtVector3@@AEBV2@@Z 00000001400b9180 f   BulletCollision:btConeShape.obj
 0001:000b82e0       ?localGetSupportingVertexWithoutMargin@btConeShape@@UEBA?AVbtVector3@@AEBV2@@Z 00000001400b92e0 f   BulletCollision:btConeShape.obj
 0001:000b8440       ?batchedUnitVectorGetSupportingVertexWithoutMargin@btConeShape@@UEBAXPEBVbtVector3@@PEAV2@H@Z 00000001400b9440 f   BulletCollision:btConeShape.obj
 0001:000b8650       ?localGetSupportingVertex@btConeShape@@UEBA?AVbtVector3@@AEBV2@@Z 00000001400b9650 f   BulletCollision:btConeShape.obj
 0001:000b88e0       ?setLocalScaling@btConeShape@@UEAAXAEBVbtVector3@@@Z 00000001400b98e0 f   BulletCollision:btConeShape.obj
 0001:000b89a0       ??_GbtConeShape@@UEAAPEAXI@Z 00000001400b99a0 f   BulletCollision:btConeShape.obj
 0001:000b89e0       ?calculateLocalInertia@btConeShape@@UEBAXMAEAVbtVector3@@@Z 00000001400b99e0 f   BulletCollision:btConeShape.obj
 0001:000b8b50       ?getName@btConeShape@@UEBAPEBDXZ 00000001400b9b50 f   BulletCollision:btConeShape.obj
 0001:000b8b70       ?getAnisotropicRollingFrictionDirection@btConeShape@@UEBA?AVbtVector3@@XZ 00000001400b9b70 f   BulletCollision:btConeShape.obj
 0001:000b8b90       ?calculateSerializeBufferSize@btConeShape@@UEBAHXZ 00000001400b9b90 f   BulletCollision:btConeShape.obj
 0001:000b8bb0       ?serialize@btConeShape@@UEBAPEBDPEAXPEAVbtSerializer@@@Z 00000001400b9bb0 f   BulletCollision:btConeShape.obj
 0001:000b8c60       ??_GbtConeShapeZ@@UEAAPEAXI@Z 00000001400b9c60 f   BulletCollision:btConeShape.obj
 0001:000b8ca0       ?getName@btConeShapeZ@@UEBAPEBDXZ 00000001400b9ca0 f   BulletCollision:btConeShape.obj
 0001:000b8cc0       ?getAnisotropicRollingFrictionDirection@btConeShapeZ@@UEBA?AVbtVector3@@XZ 00000001400b9cc0 f   BulletCollision:btConeShape.obj
 0001:000b8ce0       ??_GbtConeShapeX@@UEAAPEAXI@Z 00000001400b9ce0 f   BulletCollision:btConeShape.obj
 0001:000b8d20       ?getName@btConeShapeX@@UEBAPEBDXZ 00000001400b9d20 f   BulletCollision:btConeShape.obj
 0001:000b8d40       ?getAnisotropicRollingFrictionDirection@btConeShapeX@@UEBA?AVbtVector3@@XZ 00000001400b9d40 f   BulletCollision:btConeShape.obj
 0001:000b8d70       ??0btRigidBody@@QEAA@AEBUbtRigidBodyConstructionInfo@0@@Z 00000001400b9d70 f   BulletDynamics:btRigidBody.obj
 0001:000b8de0       ?setupRigidBody@btRigidBody@@IEAAXAEBUbtRigidBodyConstructionInfo@1@@Z 00000001400b9de0 f   BulletDynamics:btRigidBody.obj
 0001:000b9300       ??0btRigidBody@@QEAA@MPEAVbtMotionState@@PEAVbtCollisionShape@@AEBVbtVector3@@@Z 00000001400ba300 f   BulletDynamics:btRigidBody.obj
 0001:000b9450       ?setDamping@btRigidBody@@QEAAXMM@Z 00000001400ba450 f   BulletDynamics:btRigidBody.obj
 0001:000b9490       ?setMassProps@btRigidBody@@QEAAXMAEBVbtVector3@@@Z 00000001400ba490 f   BulletDynamics:btRigidBody.obj
 0001:000b9590       ?updateInertiaTensor@btRigidBody@@QEAAXXZ 00000001400ba590 f   BulletDynamics:btRigidBody.obj
 0001:000b97c0       ?predictIntegratedTransform@btRigidBody@@QEAAXMAEAVbtTransform@@@Z 00000001400ba7c0 f   BulletDynamics:btRigidBody.obj
 0001:000b9800       ?saveKinematicState@btRigidBody@@QEAAXM@Z 00000001400ba800 f   BulletDynamics:btRigidBody.obj
 0001:000b9980       ?getAabb@btRigidBody@@QEBAXAEAVbtVector3@@0@Z 00000001400ba980 f   BulletDynamics:btRigidBody.obj
 0001:000b99b0       ?setGravity@btRigidBody@@QEAAXAEBVbtVector3@@@Z 00000001400ba9b0 f   BulletDynamics:btRigidBody.obj
 0001:000b9a20       ?applyDamping@btRigidBody@@QEAAXM@Z 00000001400baa20 f   BulletDynamics:btRigidBody.obj
 0001:000b9db0       ?applyGravity@btRigidBody@@QEAAXXZ 00000001400badb0 f   BulletDynamics:btRigidBody.obj
 0001:000b9e10       ?clearGravity@btRigidBody@@QEAAXXZ 00000001400bae10 f   BulletDynamics:btRigidBody.obj
 0001:000b9e70       ?proceedToTransform@btRigidBody@@QEAAXAEBVbtTransform@@@Z 00000001400bae70 f   BulletDynamics:btRigidBody.obj
 0001:000b9e90       ?setCenterOfMassTransform@btRigidBody@@QEAAXAEBVbtTransform@@@Z 00000001400bae90 f   BulletDynamics:btRigidBody.obj
 0001:000ba150       ?getLocalInertia@btRigidBody@@QEBA?AVbtVector3@@XZ 00000001400bb150 f   BulletDynamics:btRigidBody.obj
 0001:000ba1c0       ?computeGyroscopicForceExplicit@btRigidBody@@QEBA?AVbtVector3@@M@Z 00000001400bb1c0 f   BulletDynamics:btRigidBody.obj
 0001:000ba4d0       ?computeGyroscopicImpulseImplicit_Body@btRigidBody@@QEBA?AVbtVector3@@M@Z 00000001400bb4d0 f   BulletDynamics:btRigidBody.obj
 0001:000bad10       ?computeGyroscopicImpulseImplicit_World@btRigidBody@@QEBA?AVbtVector3@@M@Z 00000001400bbd10 f   BulletDynamics:btRigidBody.obj
 0001:000bb4b0       ?integrateVelocities@btRigidBody@@QEAAXM@Z 00000001400bc4b0 f   BulletDynamics:btRigidBody.obj
 0001:000bb680       ?getOrientation@btRigidBody@@QEBA?AVbtQuaternion@@XZ 00000001400bc680 f   BulletDynamics:btRigidBody.obj
 0001:000bb6b0       ?addConstraintRef@btRigidBody@@QEAAXPEAVbtTypedConstraint@@@Z 00000001400bc6b0 f   BulletDynamics:btRigidBody.obj
 0001:000bb860       ?setIgnoreCollisionCheck@btCollisionObject@@QEAAXPEBV1@_N@Z 00000001400bc860 f   BulletDynamics:btRigidBody.obj
 0001:000bba30       ?removeConstraintRef@btRigidBody@@QEAAXPEAVbtTypedConstraint@@@Z 00000001400bca30 f   BulletDynamics:btRigidBody.obj
 0001:000bbb90       ?calculateSerializeBufferSize@btRigidBody@@UEBAHXZ 00000001400bcb90 f   BulletDynamics:btRigidBody.obj
 0001:000bbbb0       ?serialize@btRigidBody@@UEBAPEBDPEAXPEAVbtSerializer@@@Z 00000001400bcbb0 f   BulletDynamics:btRigidBody.obj
 0001:000bbf80       ?serializeSingleObject@btRigidBody@@UEBAXPEAVbtSerializer@@@Z 00000001400bcf80 f   BulletDynamics:btRigidBody.obj
 0001:000bbff0       ??_GbtRigidBody@@UEAAPEAXI@Z 00000001400bcff0 f   BulletDynamics:btRigidBody.obj
 0001:000bc080       ?setCollisionShape@btCollisionObject@@UEAAXPEAVbtCollisionShape@@@Z 00000001400bd080 f   BulletDynamics:btRigidBody.obj
 0001:000bc0b0       ?checkCollideWithOverride@btCollisionObject@@UEBA_NPEBV1@@Z 00000001400bd0b0 f   BulletDynamics:btRigidBody.obj
 0001:000bc0f0       ?calculateDiffAxisAngle@btTransformUtil@@SAXAEBVbtTransform@@0AEAVbtVector3@@AEAM@Z 00000001400bd0f0 f   BulletDynamics:btRigidBody.obj
 0001:000bc580       ??0btCollisionObject@@QEAA@XZ 00000001400bd580 f   BulletCollision:btCollisionObject.obj
 0001:000bc700       ??1btCollisionObject@@UEAA@XZ 00000001400bd700 f   BulletCollision:btCollisionObject.obj
 0001:000bc770       ?setActivationState@btCollisionObject@@QEBAXH@Z 00000001400bd770 f   BulletCollision:btCollisionObject.obj
 0001:000bc7a0       ?forceActivationState@btCollisionObject@@QEBAXH@Z 00000001400bd7a0 f   BulletCollision:btCollisionObject.obj
 0001:000bc7c0       ?activate@btCollisionObject@@QEBAX_N@Z 00000001400bd7c0 f   BulletCollision:btCollisionObject.obj
 0001:000bc800       ?serialize@btCollisionObject@@UEBAPEBDPEAXPEAVbtSerializer@@@Z 00000001400bd800 f   BulletCollision:btCollisionObject.obj
 0001:000bcbf0       ?serializeSingleObject@btCollisionObject@@UEBAXPEAVbtSerializer@@@Z 00000001400bdbf0 f   BulletCollision:btCollisionObject.obj
 0001:000bcc60       ??_GbtCollisionObject@@UEAAPEAXI@Z 00000001400bdc60 f   BulletCollision:btCollisionObject.obj
 0001:000bcce0       ?calculateSerializeBufferSize@btCollisionObject@@UEBAHXZ 00000001400bdce0 f   BulletCollision:btCollisionObject.obj
 0001:000bcd00       ??0btConvexShape@@QEAA@XZ  00000001400bdd00 f   BulletCollision:btConvexShape.obj
 0001:000bcd40       ??1btConvexShape@@UEAA@XZ  00000001400bdd40 f   BulletCollision:btConvexShape.obj
 0001:000bcd60       ?project@btConvexShape@@UEBAXAEBVbtTransform@@AEBVbtVector3@@AEAM2AEAV3@3@Z 00000001400bdd60 f   BulletCollision:btConvexShape.obj
 0001:000bd0a0       ?localGetSupportVertexWithoutMarginNonVirtual@btConvexShape@@QEBA?AVbtVector3@@AEBV2@@Z 00000001400be0a0 f   BulletCollision:btConvexShape.obj
 0001:000bd6e0       ?localGetSupportVertexNonVirtual@btConvexShape@@QEBA?AVbtVector3@@AEBV2@@Z 00000001400be6e0 f   BulletCollision:btConvexShape.obj
 0001:000bd8e0       ?getMarginNonVirtual@btConvexShape@@QEBAMXZ 00000001400be8e0 f   BulletCollision:btConvexShape.obj
 0001:000bd950       ?getAabbNonVirtual@btConvexShape@@QEBAXAEBVbtTransform@@AEAVbtVector3@@1@Z 00000001400be950 f   BulletCollision:btConvexShape.obj
 0001:000be140       ??_GbtConvexShape@@UEAAPEAXI@Z 00000001400bf140 f   BulletCollision:btConvexShape.obj
 0001:000be150       ?calculateSerializeBufferSize@btCollisionShape@@UEBAHXZ 00000001400bf150 f   BulletCollision:btConvexShape.obj
 0001:000be170       ??_GbtCollisionShape@@UEAAPEAXI@Z 00000001400bf170 f   BulletCollision:btConvexShape.obj
 0001:000be180       btBulletCollisionProbe     00000001400bf180 f   BulletCollision:btCollisionShape.obj
 0001:000be190       ?getBoundingSphere@btCollisionShape@@UEBAXAEAVbtVector3@@AEAM@Z 00000001400bf190 f   BulletCollision:btCollisionShape.obj
 0001:000be2d0       ?getContactBreakingThreshold@btCollisionShape@@UEBAMM@Z 00000001400bf2d0 f   BulletCollision:btCollisionShape.obj
 0001:000be300       ?getAngularMotionDisc@btCollisionShape@@UEBAMXZ 00000001400bf300 f   BulletCollision:btCollisionShape.obj
 0001:000be3b0       ?calculateTemporalAabb@btCollisionShape@@QEBAXAEBVbtTransform@@AEBVbtVector3@@1MAEAV3@2@Z 00000001400bf3b0 f   BulletCollision:btCollisionShape.obj
 0001:000be560       ?serialize@btCollisionShape@@UEBAPEBDPEAXPEAVbtSerializer@@@Z 00000001400bf560 f   BulletCollision:btCollisionShape.obj
 0001:000be5d0       ?serializeSingleShape@btCollisionShape@@UEBAXPEAVbtSerializer@@@Z 00000001400bf5d0 f   BulletCollision:btCollisionShape.obj
 0001:000be640       ?localGetSupportingVertexWithoutMargin@btSphereShape@@UEBA?AVbtVector3@@AEBV2@@Z 00000001400bf640 f   BulletCollision:btSphereShape.obj
 0001:000be660       ?batchedUnitVectorGetSupportingVertexWithoutMargin@btSphereShape@@UEBAXPEBVbtVector3@@PEAV2@H@Z 00000001400bf660 f   BulletCollision:btSphereShape.obj
 0001:000be700       ?localGetSupportingVertex@btSphereShape@@UEBA?AVbtVector3@@AEBV2@@Z 00000001400bf700 f   BulletCollision:btSphereShape.obj
 0001:000be8a0       ?getAabb@btSphereShape@@UEBAXAEBVbtTransform@@AEAVbtVector3@@1@Z 00000001400bf8a0 f   BulletCollision:btSphereShape.obj
 0001:000be940       ?calculateLocalInertia@btSphereShape@@UEBAXMAEAVbtVector3@@@Z 00000001400bf940 f   BulletCollision:btSphereShape.obj
 0001:000be9b0       ?ParseTextureNameAndOption@tinyobj@@YA_NPEAV?$basic_string@DU?$char_traits@D@std@@V?$allocator@D@2@@std@@PEAUtexture_option_t@1@PEBD@Z 00000001400bf9b0 f   yourgame:headerlibs.obj
 0001:000bfb50       ?LoadMtl@tinyobj@@YAXPEAV?$map@V?$basic_string@DU?$char_traits@D@std@@V?$allocator@D@2@@std@@HU?$less@V?$basic_string@DU?$char_traits@D@std@@V?$allocator@D@2@@std@@@2@V?$allocator@U?$pair@$$CBV?$basic_string@DU?$char_traits@D@std@@V?$allocator@D@2@@std@@H@std@@@2@@std@@PEAV?$vector@Umaterial_t@tinyobj@@V?$allocator@Umaterial_t@tinyobj@@@std@@@3@PEAV?$basic_istream@DU?$char_traits@D@std@@@3@PEAV?$basic_string@DU?$char_traits@D@std@@V?$allocator@D@2@@3@3@Z 00000001400c0b50 f   yourgame:headerlibs.obj
 0001:000c2ec0       ??4?$basic_string@DU?$char_traits@D@std@@V?$allocator@D@2@@std@@QEAAAEAV01@QEBD@Z 00000001400c3ec0 f   yourgame:headerlibs.obj
 0001:000c2f50       ??0?$basic_string@DU?$char_traits@D@std@@V?$allocator@D@2@@std@@QEAA@QEBD_K@Z 00000001400c3f50 f   yourgame:headerlibs.obj
 0001:000c3070       ??$?0AEAV?$basic_string@DU?$char_traits@D@std@@V?$allocator@D@2@@std@@AEAV01@$0A@@?$pair@V?$basic_string@DU?$char_traits@D@std@@V?$allocator@D@2@@std@@V12@@std@@QEAA@AEAV?$basic_string@DU?$char_traits@D@std@@V?$allocator@D@2@@1@0@Z 00000001400c4070 f   yourgame:headerlibs.obj
 0001:000c3250       ??1?$pair@V?$basic_string@DU?$char_traits@D@std@@V?$allocator@D@2@@std@@V12@@std@@QEAA@XZ 00000001400c4250 f   yourgame:headerlibs.obj
 0001:000c3330       ??RMaterialFileReader@tinyobj@@UEAA_NAEBV?$basic_string@DU?$char_traits@D@std@@V?$allocator@D@2@@std@@PEAV?$vector@Umaterial_t@tinyobj@@V?$allocator@Umaterial_t@tinyobj@@@std@@@3@PEAV?$map@V?$basic_string@DU?$char_traits@D@std@@V?$allocator@D@2@@std@@HU?$less@V?$basic_string@DU?$char_traits@D@std@@V?$allocator@D@2@@std@@@2@V?$allocator@U?$pair@$$CBV?$basic_string@DU?$char_traits@D@std@@V?$allocator@D@2@@std@@H@std@@@2@@3@PEAV23@3@Z 00000001400c4330 f   yourgame:headerlibs.obj
 0001:000c3d20       ??0?$basic_ifstream@DU?$char_traits@D@std@@@std@@QEAA@PEBDHH@Z 00000001400c4d20 f   yourgame:headerlibs.obj
 0001:000c3ef0       ??RMaterialStreamReader@tinyobj@@UEAA_NAEBV?$basic_string@DU?$char_traits@D@std@@V?$allocator@D@2@@std@@PEAV?$vector@Umaterial_t@tinyobj@@V?$allocator@Umaterial_t@tinyobj@@@std@@@3@PEAV?$map@V?$basic_string@DU?$char_traits@D@std@@V?$allocator@D@2@@std@@HU?$less@V?$basic_string@DU?$char_traits@D@std@@V?$allocator@D@2@@std@@@2@V?$allocator@U?$pair@$$CBV?$basic_string@DU?$char_traits@D@std@@V?$allocator@D@2@@std@@H@std@@@2@@3@PEAV23@3@Z 00000001400c4ef0 f   yourgame:headerlibs.obj
 0001:000c4420       ?LoadObj@tinyobj@@YA_NPEAUattrib_t@1@PEAV?$vector@Ushape_t@tinyobj@@V?$allocator@Ushape_t@tinyobj@@@std@@@std@@PEAV?$vector@Umaterial_t@tinyobj@@V?$allocator@Umaterial_t@tinyobj@@@std@@@4@PEAV?$basic_string@DU?$char_traits@D@std@@V?$allocator@D@2@@4@3PEBD4_N5@Z 00000001400c5420 f   yourgame:headerlibs.obj
 0001:000c4f30       ?LoadObj@tinyobj@@YA_NPEAUattrib_t@1@PEAV?$vector@Ushape_t@tinyobj@@V?$allocator@Ushape_t@tinyobj@@@std@@@std@@PEAV?$vector@Umaterial_t@tinyobj@@V?$allocator@Umaterial_t@tinyobj@@@std@@@4@PEAV?$basic_string@DU?$char_traits@D@std@@V?$allocator@D@2@@4@3PEAV?$basic_istream@DU?$char_traits@D@std@@@4@PEAVMaterialReader@1@_N6@Z 00000001400c5f30 f   yourgame:headerlibs.obj
 0001:000cdea0       ??4shape_t@tinyobj@@QEAAAEAU01@$$QEAU01@@Z 00000001400ceea0 f   yourgame:headerlibs.obj
 0001:000ce140       ?clear@PrimGroup@tinyobj@@QEAAXXZ 00000001400cf140 f   yourgame:headerlibs.obj
 0001:000ce2d0       ??1PrimGroup@tinyobj@@QEAA@XZ 00000001400cf2d0 f   yourgame:headerlibs.obj
 0001:000ce530       ?LoadObjWithCallback@tinyobj@@YA_NAEAV?$basic_istream@DU?$char_traits@D@std@@@std@@AEBUcallback_t_@1@PEAXPEAVMaterialReader@1@PEAV?$basic_string@DU?$char_traits@D@std@@V?$allocator@D@2@@3@4@Z 00000001400cf530 f   yourgame:headerlibs.obj
 0001:000d0ed0       ?ParseFromFile@ObjReader@tinyobj@@QEAA_NAEBV?$basic_string@DU?$char_traits@D@std@@V?$allocator@D@2@@std@@AEBUObjReaderConfig@2@@Z 00000001400d1ed0 f   yourgame:headerlibs.obj
 0001:000d1370       ?ParseFromString@ObjReader@tinyobj@@QEAA_NAEBV?$basic_string@DU?$char_traits@D@std@@V?$allocator@D@2@@std@@0AEBUObjReaderConfig@2@@Z 00000001400d2370 f   yourgame:headerlibs.obj
 0001:000d1a30       ??1MaterialReader@tinyobj@@UEAA@XZ 00000001400d2a30 f   yourgame:headerlibs.obj
 0001:000d1a50       stbi_failure_reason        00000001400d2a50 f   yourgame:headerlibs.obj
 0001:000d1a90       stbi_image_free            00000001400d2a90 f   yourgame:headerlibs.obj
 0001:000d1ab0       stbi_set_flip_vertically_on_load 00000001400d2ab0 f   yourgame:headerlibs.obj
 0001:000d1ad0       stbi_set_flip_vertically_on_load_thread 00000001400d2ad0 f   yourgame:headerlibs.obj
 0001:000d1b10       stbi_load                  00000001400d2b10 f   yourgame:headerlibs.obj
 0001:000d1cf0       stbi_load_from_file        00000001400d2cf0 f   yourgame:headerlibs.obj
 0001:000d2110       stbi_load_from_file_16     00000001400d3110 f   yourgame:headerlibs.obj
 0001:000d2570       stbi_load_16               00000001400d3570 f   yourgame:headerlibs.obj
 0001:000d2750       stbi_load_16_from_memory   00000001400d3750 f   yourgame:headerlibs.obj
 0001:000d2820       stbi_load_16_from_callbacks 00000001400d3820 f   yourgame:headerlibs.obj
 0001:000d2960       stbi_load_from_memory      00000001400d3960 f   yourgame:headerlibs.obj
 0001:000d2a30       stbi_load_from_callbacks   00000001400d3a30 f   yourgame:headerlibs.obj
 0001:000d2b70       stbi_load_gif_from_memory  00000001400d3b70 f   yourgame:headerlibs.obj
 0001:000d3100       stbi_loadf_from_memory     00000001400d4100 f   yourgame:headerlibs.obj
 0001:000d3790       stbi_loadf_from_callbacks  00000001400d4790 f   yourgame:headerlibs.obj
 0001:000d38d0       stbi_loadf                 00000001400d48d0 f   yourgame:headerlibs.obj
 0001:000d3a90       stbi_loadf_from_file       00000001400d4a90 f   yourgame:headerlibs.obj
 0001:000d3bd0       stbi_is_hdr_from_memory    00000001400d4bd0 f   yourgame:headerlibs.obj
 0001:000d3e60       stbi_is_hdr                00000001400d4e60 f   yourgame:headerlibs.obj
 0001:000d3fe0       stbi_is_hdr_from_file      00000001400d4fe0 f   yourgame:headerlibs.obj
 0001:000d4120       stbi_is_hdr_from_callbacks 00000001400d5120 f   yourgame:headerlibs.obj
 0001:000d4230       stbi_ldr_to_hdr_gamma      00000001400d5230 f   yourgame:headerlibs.obj
 0001:000d4250       stbi_ldr_to_hdr_scale      00000001400d5250 f   yourgame:headerlibs.obj
 0001:000d4270       stbi_hdr_to_ldr_gamma      00000001400d5270 f   yourgame:headerlibs.obj
 0001:000d42a0       stbi_hdr_to_ldr_scale      00000001400d52a0 f   yourgame:headerlibs.obj
 0001:000d42d0       stbi_zlib_decode_malloc_guesssize 00000001400d52d0 f   yourgame:headerlibs.obj
 0001:000d57b0       stbi_zlib_decode_malloc    00000001400d67b0 f   yourgame:headerlibs.obj
 0001:000d58a0       stbi_zlib_decode_malloc_guesssize_headerflag 00000001400d68a0 f   yourgame:headerlibs.obj
 0001:000d59a0       stbi_zlib_decode_buffer    00000001400d69a0 f   yourgame:headerlibs.obj
 0001:000d5a50       stbi_zlib_decode_noheader_malloc 00000001400d6a50 f   yourgame:headerlibs.obj
 0001:000d5b40       stbi_zlib_decode_noheader_buffer 00000001400d6b40 f   yourgame:headerlibs.obj
 0001:000d5bf0       stbi_set_unpremultiply_on_load 00000001400d6bf0 f   yourgame:headerlibs.obj
 0001:000d5c10       stbi_convert_iphone_png_to_rgb 00000001400d6c10 f   yourgame:headerlibs.obj
 0001:000d5c30       stbi_info                  00000001400d6c30 f   yourgame:headerlibs.obj
 0001:000d5e00       stbi_info_from_file        00000001400d6e00 f   yourgame:headerlibs.obj
 0001:000d6290       stbi_is_16_bit             00000001400d7290 f   yourgame:headerlibs.obj
 0001:000d6440       stbi_is_16_bit_from_file   00000001400d7440 f   yourgame:headerlibs.obj
 0001:000d66d0       stbi_info_from_memory      00000001400d76d0 f   yourgame:headerlibs.obj
 0001:000d6790       stbi_info_from_callbacks   00000001400d7790 f   yourgame:headerlibs.obj
 0001:000d68b0       stbi_is_16_bit_from_memory 00000001400d78b0 f   yourgame:headerlibs.obj
 0001:000d6960       stbi_is_16_bit_from_callbacks 00000001400d7960 f   yourgame:headerlibs.obj
 0001:000d6a70       stbi_flip_vertically_on_write 00000001400d7a70 f   yourgame:headerlibs.obj
 0001:000d6a90       stbi_write_bmp_to_func     00000001400d7a90 f   yourgame:headerlibs.obj
 0001:000d6c00       stbi_write_bmp             00000001400d7c00 f   yourgame:headerlibs.obj
 0001:000d6dd0       stbi_write_tga_to_func     00000001400d7dd0 f   yourgame:headerlibs.obj
 0001:000d73c0       stbi_write_tga             00000001400d83c0 f   yourgame:headerlibs.obj
 0001:000d74c0       stbi_write_hdr_to_func     00000001400d84c0 f   yourgame:headerlibs.obj
 0001:000d7c70       stbi_write_hdr             00000001400d8c70 f   yourgame:headerlibs.obj
 0001:000d7d80       stbi_zlib_compress         00000001400d8d80 f   yourgame:headerlibs.obj
 0001:000d9090       stbi_write_png_to_mem      00000001400da090 f   yourgame:headerlibs.obj
 0001:000dade0       stbi_write_png             00000001400dbde0 f   yourgame:headerlibs.obj
 0001:000daed0       stbi_write_png_to_func     00000001400dbed0 f   yourgame:headerlibs.obj
 0001:000daf70       stbi_write_jpg_to_func     00000001400dbf70 f   yourgame:headerlibs.obj
 0001:000dc8e0       stbi_write_jpg             00000001400dd8e0 f   yourgame:headerlibs.obj
 0001:000dc9f0       ma_version                 00000001400dd9f0 f   yourgame:headerlibs.obj
 0001:000dca20       ma_version_string          00000001400dda20 f   yourgame:headerlibs.obj
 0001:000dca40       ?ma_strcpy_s@@YAHPEAD_KPEBD@Z 00000001400dda40 f   yourgame:headerlibs.obj
 0001:000dcaa0       ?ma_strncpy_s@@YAHPEAD_KPEBD1@Z 00000001400ddaa0 f   yourgame:headerlibs.obj
 0001:000dcb40       ?ma_strcat_s@@YAHPEAD_KPEBD@Z 00000001400ddb40 f   yourgame:headerlibs.obj
 0001:000dcbc0       ?ma_strncat_s@@YAHPEAD_KPEBD1@Z 00000001400ddbc0 f   yourgame:headerlibs.obj
 0001:000dcc50       ?ma_itoa_s@@YAHHPEAD_KH@Z  00000001400ddc50 f   yourgame:headerlibs.obj
 0001:000dcd30       ?ma_strcmp@@YAHPEBD0@Z     00000001400ddd30 f   yourgame:headerlibs.obj
 0001:000dcda0       ?ma_strappend@@YAHPEAD_KPEBD2@Z 00000001400ddda0 f   yourgame:headerlibs.obj
 0001:000dcea0       ?ma_copy_string@@YAPEADPEBDPEBUma_allocation_callbacks@@@Z 00000001400ddea0 f   yourgame:headerlibs.obj
 0001:000dcf70       ma_malloc                  00000001400ddf70 f   yourgame:headerlibs.obj
 0001:000dcfe0       ?ma_fopen@@YAHPEAPEAU_iobuf@@PEBD1@Z 00000001400ddfe0 f   yourgame:headerlibs.obj
 0001:000dd5b0       ?ma_wfopen@@YAHPEAPEAU_iobuf@@PEB_W1PEBUma_allocation_callbacks@@@Z 00000001400de5b0 f   yourgame:headerlibs.obj
 0001:000dd600       c89atomic_compare_exchange_strong_explicit_8 00000001400de600 f   yourgame:headerlibs.obj
 0001:000dd630       c89atomic_compare_exchange_strong_explicit_16 00000001400de630 f   yourgame:headerlibs.obj
 0001:000dd660       c89atomic_compare_exchange_strong_explicit_32 00000001400de660 f   yourgame:headerlibs.obj
 0001:000dd690       c89atomic_compare_exchange_strong_explicit_64 00000001400de690 f   yourgame:headerlibs.obj
 0001:000dd6c0       ?ma_calculate_frame_count_after_resampling@@YA_KII_K@Z 00000001400de6c0 f   yourgame:headerlibs.obj
 0001:000dd840       ma_resampler_config_init   00000001400de840 f   yourgame:headerlibs.obj
 0001:000dd890       ma_resampler_init          00000001400de890 f   yourgame:headerlibs.obj
 0001:000dd9d0       ma_resampler_get_expected_output_frame_count 00000001400de9d0 f   yourgame:headerlibs.obj
 0001:000dda70       ma_resampler_uninit        00000001400dea70 f   yourgame:headerlibs.obj
 0001:000dda80       ma_spinlock_lock           00000001400dea80 f   yourgame:headerlibs.obj
 0001:000ddad0       ma_spinlock_lock_noyield   00000001400dead0 f   yourgame:headerlibs.obj
 0001:000ddb10       ma_spinlock_unlock         00000001400deb10 f   yourgame:headerlibs.obj
 0001:000ddb30       ma_mutex_init              00000001400deb30 f   yourgame:headerlibs.obj
 0001:000ddc30       ma_mutex_uninit            00000001400dec30 f   yourgame:headerlibs.obj
 0001:000ddc60       ma_mutex_lock              00000001400dec60 f   yourgame:headerlibs.obj
 0001:000ddc90       ma_mutex_unlock            00000001400dec90 f   yourgame:headerlibs.obj
 0001:000ddcc0       ma_event_init              00000001400decc0 f   yourgame:headerlibs.obj
 0001:000dddc0       ma_event_uninit            00000001400dedc0 f   yourgame:headerlibs.obj
 0001:000dddf0       ma_event_wait              00000001400dedf0 f   yourgame:headerlibs.obj
 0001:000ddee0       ma_event_signal            00000001400deee0 f   yourgame:headerlibs.obj
 0001:000ddfc0       ?ma_semaphore_init@@YAHHPEAPEAX@Z 00000001400defc0 f   yourgame:headerlibs.obj
 0001:000de0c0       ?ma_semaphore_uninit@@YAXPEAPEAX@Z 00000001400df0c0 f   yourgame:headerlibs.obj
 0001:000de0f0       ?ma_semaphore_wait@@YAHPEAPEAX@Z 00000001400df0f0 f   yourgame:headerlibs.obj
 0001:000de1e0       ?ma_semaphore_release@@YAHPEAPEAX@Z 00000001400df1e0 f   yourgame:headerlibs.obj
 0001:000de2d0       ma_get_backend_name        00000001400df2d0 f   yourgame:headerlibs.obj
 0001:000de430       ma_is_loopback_supported   00000001400df430 f   yourgame:headerlibs.obj
 0001:000de4b0       ma_log_level_to_string     00000001400df4b0 f   yourgame:headerlibs.obj
 0001:000de510       ?ma_post_log_messagef@@YAXPEAUma_context@@PEAUma_device@@IPEBDZZ 00000001400df510 f   yourgame:headerlibs.obj
 0001:000de5f0       ?ma_dlopen@@YAPEAXPEAUma_context@@PEBD@Z 00000001400df5f0 f   yourgame:headerlibs.obj
 0001:000de620       ?ma_dlclose@@YAXPEAUma_context@@PEAX@Z 00000001400df620 f   yourgame:headerlibs.obj
 0001:000de650       ?ma_dlsym@@YAP6AXXZPEAUma_context@@PEAXPEBD@Z 00000001400df650 f   yourgame:headerlibs.obj
 0001:000de680       ?ma_get_format_priority_index@@YAIW4ma_format@@@Z 00000001400df680 f   yourgame:headerlibs.obj
 0001:000de6d0       ma_context_config_init     00000001400df6d0 f   yourgame:headerlibs.obj
 0001:000de710       ma_context_init            00000001400df710 f   yourgame:headerlibs.obj
 0001:000df4b0       ma_context_uninit          00000001400e04b0 f   yourgame:headerlibs.obj
 0001:000df550       ma_context_sizeof          00000001400e0550 f   yourgame:headerlibs.obj
 0001:000df570       ma_context_enumerate_devices 00000001400e0570 f   yourgame:headerlibs.obj
 0001:000df600       ma_context_get_devices     00000001400e0600 f   yourgame:headerlibs.obj
 0001:000df940       ma_context_get_device_info 00000001400e0940 f   yourgame:headerlibs.obj
 0001:000dfb00       ma_context_is_loopback_supported 00000001400e0b00 f   yourgame:headerlibs.obj
 0001:000dfb80       ma_device_config_init      00000001400e0b80 f   yourgame:headerlibs.obj
 0001:000dfc00       ma_device_init             00000001400e0c00 f   yourgame:headerlibs.obj
 0001:000e0a30       ma_device_init_ex          00000001400e1a30 f   yourgame:headerlibs.obj
 0001:000e0c40       ma_channel_map_copy        00000001400e1c40 f   yourgame:headerlibs.obj
 0001:000e14b0       ma_device_uninit           00000001400e24b0 f   yourgame:headerlibs.obj
 0001:000e15e0       ma_get_format_name         00000001400e25e0 f   yourgame:headerlibs.obj
 0001:000e1670       ma_device_is_started       00000001400e2670 f   yourgame:headerlibs.obj
 0001:000e16a0       ma_device_stop             00000001400e26a0 f   yourgame:headerlibs.obj
 0001:000e17a0       ma_device_start            00000001400e27a0 f   yourgame:headerlibs.obj
 0001:000e18b0       ma_device_set_master_volume 00000001400e28b0 f   yourgame:headerlibs.obj
 0001:000e18f0       ma_device_get_master_volume 00000001400e28f0 f   yourgame:headerlibs.obj
 0001:000e1920       ma_device_set_master_gain_db 00000001400e2920 f   yourgame:headerlibs.obj
 0001:000e19a0       ma_gain_db_to_factor       00000001400e29a0 f   yourgame:headerlibs.obj
 0001:000e19f0       ma_device_get_master_gain_db 00000001400e29f0 f   yourgame:headerlibs.obj
 0001:000e1a60       ma_factor_to_gain_db       00000001400e2a60 f   yourgame:headerlibs.obj
 0001:000e1ab0       ma_scale_buffer_size       00000001400e2ab0 f   yourgame:headerlibs.obj
 0001:000e1ae0       ma_calculate_buffer_size_in_milliseconds_from_frames 00000001400e2ae0 f   yourgame:headerlibs.obj
 0001:000e1b00       ma_calculate_buffer_size_in_frames_from_milliseconds 00000001400e2b00 f   yourgame:headerlibs.obj
 0001:000e1b20       ma_copy_pcm_frames         00000001400e2b20 f   yourgame:headerlibs.obj
 0001:000e1b70       ma_silence_pcm_frames      00000001400e2b70 f   yourgame:headerlibs.obj
 0001:000e1c50       ma_offset_pcm_frames_ptr   00000001400e2c50 f   yourgame:headerlibs.obj
 0001:000e1c80       ma_offset_pcm_frames_const_ptr 00000001400e2c80 f   yourgame:headerlibs.obj
 0001:000e1cb0       ma_clip_samples_f32        00000001400e2cb0 f   yourgame:headerlibs.obj
 0001:000e1d10       ma_copy_and_apply_volume_factor_u8 00000001400e2d10 f   yourgame:headerlibs.obj
 0001:000e1ee0       ma_copy_and_apply_volume_factor_s16 00000001400e2ee0 f   yourgame:headerlibs.obj
 0001:000e2010       ma_copy_and_apply_volume_factor_s24 00000001400e3010 f   yourgame:headerlibs.obj
 0001:000e20a0       ma_copy_and_apply_volume_factor_s32 00000001400e30a0 f   yourgame:headerlibs.obj
 0001:000e21b0       ma_copy_and_apply_volume_factor_f32 00000001400e31b0 f   yourgame:headerlibs.obj
 0001:000e22d0       ma_apply_volume_factor_u8  00000001400e32d0 f   yourgame:headerlibs.obj
 0001:000e2430       ma_apply_volume_factor_s16 00000001400e3430 f   yourgame:headerlibs.obj
 0001:000e24f0       ma_apply_volume_factor_s24 00000001400e34f0 f   yourgame:headerlibs.obj
 0001:000e2570       ma_apply_volume_factor_s32 00000001400e3570 f   yourgame:headerlibs.obj
 0001:000e2620       ma_apply_volume_factor_f32 00000001400e3620 f   yourgame:headerlibs.obj
 0001:000e26b0       ma_copy_and_apply_volume_factor_pcm_frames_u8 00000001400e36b0 f   yourgame:headerlibs.obj
 0001:000e2890       ma_copy_and_apply_volume_factor_pcm_frames_s16 00000001400e3890 f   yourgame:headerlibs.obj
 0001:000e29c0       ma_copy_and_apply_volume_factor_pcm_frames_s24 00000001400e39c0 f   yourgame:headerlibs.obj
 0001:000e2a50       ma_copy_and_apply_volume_factor_pcm_frames_s32 00000001400e3a50 f   yourgame:headerlibs.obj
 0001:000e2b60       ma_copy_and_apply_volume_factor_pcm_frames_f32 00000001400e3b60 f   yourgame:headerlibs.obj
 0001:000e2c80       ma_copy_and_apply_volume_factor_pcm_frames 00000001400e3c80 f   yourgame:headerlibs.obj
 0001:000e3240       ma_apply_volume_factor_pcm_frames_u8 00000001400e4240 f   yourgame:headerlibs.obj
 0001:000e33b0       ma_apply_volume_factor_pcm_frames_s16 00000001400e43b0 f   yourgame:headerlibs.obj
 0001:000e3470       ma_apply_volume_factor_pcm_frames_s24 00000001400e4470 f   yourgame:headerlibs.obj
 0001:000e3500       ma_apply_volume_factor_pcm_frames_s32 00000001400e4500 f   yourgame:headerlibs.obj
 0001:000e35b0       ma_apply_volume_factor_pcm_frames_f32 00000001400e45b0 f   yourgame:headerlibs.obj
 0001:000e3640       ma_apply_volume_factor_pcm_frames 00000001400e4640 f   yourgame:headerlibs.obj
 0001:000e3680       ?ma_pcm_u8_to_u8@@YAXPEAXPEBX_KW4ma_dither_mode@@@Z 00000001400e4680 f   yourgame:headerlibs.obj
 0001:000e36a0       ma_pcm_u8_to_s16           00000001400e46a0 f   yourgame:headerlibs.obj
 0001:000e37f0       ma_pcm_u8_to_s24           00000001400e47f0 f   yourgame:headerlibs.obj
 0001:000e3880       ma_pcm_u8_to_s32           00000001400e4880 f   yourgame:headerlibs.obj
 0001:000e39d0       ma_pcm_u8_to_f32           00000001400e49d0 f   yourgame:headerlibs.obj
 0001:000e3b40       ?ma_pcm_interleave_u8@@YAXPEAXPEAPEBX_KI@Z 00000001400e4b40 f   yourgame:headerlibs.obj
 0001:000e3ce0       ?ma_pcm_deinterleave_u8@@YAXPEAPEAXPEBX_KI@Z 00000001400e4ce0 f   yourgame:headerlibs.obj
 0001:000e3dd0       ma_pcm_s16_to_u8           00000001400e4dd0 f   yourgame:headerlibs.obj
 0001:000e4020       ?ma_pcm_s16_to_s16@@YAXPEAXPEBX_KW4ma_dither_mode@@@Z 00000001400e5020 f   yourgame:headerlibs.obj
 0001:000e4050       ma_pcm_s16_to_s24          00000001400e5050 f   yourgame:headerlibs.obj
 0001:000e40f0       ma_pcm_s16_to_s32          00000001400e50f0 f   yourgame:headerlibs.obj
 0001:000e4200       ma_pcm_s16_to_f32          00000001400e5200 f   yourgame:headerlibs.obj
 0001:000e4370       ?ma_pcm_interleave_s16@@YAXPEAXPEAPEBX_KI@Z 00000001400e5370 f   yourgame:headerlibs.obj
 0001:000e4460       ?ma_pcm_deinterleave_s16@@YAXPEAPEAXPEBX_KI@Z 00000001400e5460 f   yourgame:headerlibs.obj
 0001:000e4550       ma_pcm_s24_to_u8           00000001400e5550 f   yourgame:headerlibs.obj
 0001:000e4730       ma_pcm_s24_to_s16          00000001400e5730 f   yourgame:headerlibs.obj
 0001:000e4900       ?ma_pcm_s24_to_s24@@YAXPEAXPEBX_KW4ma_dither_mode@@@Z 00000001400e5900 f   yourgame:headerlibs.obj
 0001:000e4930       ma_pcm_s24_to_s32          00000001400e5930 f   yourgame:headerlibs.obj
 0001:000e4990       ma_pcm_s24_to_f32          00000001400e5990 f   yourgame:headerlibs.obj
 0001:000e4b10       ?ma_pcm_interleave_s24@@YAXPEAXPEAPEBX_KI@Z 00000001400e5b10 f   yourgame:headerlibs.obj
 0001:000e4bb0       ?ma_pcm_deinterleave_s24@@YAXPEAPEAXPEBX_KI@Z 00000001400e5bb0 f   yourgame:headerlibs.obj
 0001:000e4c80       ma_pcm_s32_to_u8           00000001400e5c80 f   yourgame:headerlibs.obj
 0001:000e4ef0       ma_pcm_s32_to_s16          00000001400e5ef0 f   yourgame:headerlibs.obj
 0001:000e5130       ma_pcm_s32_to_s24          00000001400e6130 f   yourgame:headerlibs.obj
 0001:000e5180       ?ma_pcm_s32_to_s32@@YAXPEAXPEBX_KW4ma_dither_mode@@@Z 00000001400e6180 f   yourgame:headerlibs.obj
 0001:000e51b0       ma_pcm_s32_to_f32          00000001400e61b0 f   yourgame:headerlibs.obj
 0001:000e52f0       ?ma_pcm_interleave_s32@@YAXPEAXPEAPEBX_KI@Z 00000001400e62f0 f   yourgame:headerlibs.obj
 0001:000e53d0       ?ma_pcm_deinterleave_s32@@YAXPEAPEAXPEBX_KI@Z 00000001400e63d0 f   yourgame:headerlibs.obj
 0001:000e54b0       ma_pcm_f32_to_u8           00000001400e64b0 f   yourgame:headerlibs.obj
 0001:000e56f0       ma_pcm_f32_to_s16          00000001400e66f0 f   yourgame:headerlibs.obj
 0001:000e5d90       ma_pcm_f32_to_s24          00000001400e6d90 f   yourgame:headerlibs.obj
 0001:000e6010       ma_pcm_f32_to_s32          00000001400e7010 f   yourgame:headerlibs.obj
 0001:000e60a0       ?ma_pcm_f32_to_f32@@YAXPEAXPEBX_KW4ma_dither_mode@@@Z 00000001400e70a0 f   yourgame:headerlibs.obj
 0001:000e60d0       ?ma_pcm_interleave_f32@@YAXPEAXPEAPEBX_KI@Z 00000001400e70d0 f   yourgame:headerlibs.obj
 0001:000e61c0       ?ma_pcm_deinterleave_f32@@YAXPEAPEAXPEBX_KI@Z 00000001400e71c0 f   yourgame:headerlibs.obj
 0001:000e62b0       ma_pcm_convert             00000001400e72b0 f   yourgame:headerlibs.obj
 0001:000e6db0       ma_get_bytes_per_sample    00000001400e7db0 f   yourgame:headerlibs.obj
 0001:000e6dd0       ma_convert_pcm_frames_format 00000001400e7dd0 f   yourgame:headerlibs.obj
 0001:000e6e10       ma_deinterleave_pcm_frames 00000001400e7e10 f   yourgame:headerlibs.obj
 0001:000e7140       ma_interleave_pcm_frames   00000001400e8140 f   yourgame:headerlibs.obj
 0001:000e7430       ma_biquad_config_init      00000001400e8430 f   yourgame:headerlibs.obj
 0001:000e7470       ma_biquad_init             00000001400e8470 f   yourgame:headerlibs.obj
 0001:000e74e0       ma_biquad_reinit           00000001400e84e0 f   yourgame:headerlibs.obj
 0001:000e7620       ma_biquad_process_pcm_frames 00000001400e8620 f   yourgame:headerlibs.obj
 0001:000e7860       ma_biquad_get_latency      00000001400e8860 f   yourgame:headerlibs.obj
 0001:000e7880       ma_lpf1_config_init        00000001400e8880 f   yourgame:headerlibs.obj
 0001:000e78c0       ma_lpf2_config_init        00000001400e88c0 f   yourgame:headerlibs.obj
 0001:000e7920       ma_lpf1_init               00000001400e8920 f   yourgame:headerlibs.obj
 0001:000e7a00       ma_lpf1_reinit             00000001400e8a00 f   yourgame:headerlibs.obj
 0001:000e7ac0       ma_lpf1_process_pcm_frames 00000001400e8ac0 f   yourgame:headerlibs.obj
 0001:000e7c00       ma_lpf1_get_latency        00000001400e8c00 f   yourgame:headerlibs.obj
 0001:000e7c20       ma_lpf2_init               00000001400e8c20 f   yourgame:headerlibs.obj
 0001:000e7dc0       ma_lpf2_reinit             00000001400e8dc0 f   yourgame:headerlibs.obj
 0001:000e7f20       ma_lpf2_process_pcm_frames 00000001400e8f20 f   yourgame:headerlibs.obj
 0001:000e7f50       ma_lpf2_get_latency        00000001400e8f50 f   yourgame:headerlibs.obj
 0001:000e7f70       ma_lpf_config_init         00000001400e8f70 f   yourgame:headerlibs.obj
 0001:000e7fc0       ma_lpf_init                00000001400e8fc0 f   yourgame:headerlibs.obj
 0001:000e85f0       ma_lpf_reinit              00000001400e95f0 f   yourgame:headerlibs.obj
 0001:000e8620       ma_lpf_process_pcm_frames  00000001400e9620 f   yourgame:headerlibs.obj
 0001:000e8cf0       ma_lpf_get_latency         00000001400e9cf0 f   yourgame:headerlibs.obj
 0001:000e8d10       ma_hpf1_config_init        00000001400e9d10 f   yourgame:headerlibs.obj
 0001:000e8d50       ma_hpf2_config_init        00000001400e9d50 f   yourgame:headerlibs.obj
 0001:000e8db0       ma_hpf1_init               00000001400e9db0 f   yourgame:headerlibs.obj
 0001:000e8e90       ma_hpf1_reinit             00000001400e9e90 f   yourgame:headerlibs.obj
 0001:000e8f50       ma_hpf1_process_pcm_frames 00000001400e9f50 f   yourgame:headerlibs.obj
 0001:000e90b0       ma_hpf1_get_latency        00000001400ea0b0 f   yourgame:headerlibs.obj
 0001:000e90d0       ma_hpf2_init               00000001400ea0d0 f   yourgame:headerlibs.obj
 0001:000e9280       ma_hpf2_reinit             00000001400ea280 f   yourgame:headerlibs.obj
 0001:000e93f0       ma_hpf2_process_pcm_frames 00000001400ea3f0 f   yourgame:headerlibs.obj
 0001:000e9420       ma_hpf2_get_latency        00000001400ea420 f   yourgame:headerlibs.obj
 0001:000e9440       ma_hpf_config_init         00000001400ea440 f   yourgame:headerlibs.obj
 0001:000e9490       ma_hpf_init                00000001400ea490 f   yourgame:headerlibs.obj
 0001:000e9b00       ma_hpf_reinit              00000001400eab00 f   yourgame:headerlibs.obj
 0001:000e9b30       ma_hpf_process_pcm_frames  00000001400eab30 f   yourgame:headerlibs.obj
 0001:000ea0e0       ma_hpf_get_latency         00000001400eb0e0 f   yourgame:headerlibs.obj
 0001:000ea100       ma_bpf2_config_init        00000001400eb100 f   yourgame:headerlibs.obj
 0001:000ea160       ma_bpf2_init               00000001400eb160 f   yourgame:headerlibs.obj
 0001:000ea310       ma_bpf2_reinit             00000001400eb310 f   yourgame:headerlibs.obj
 0001:000ea480       ma_bpf2_process_pcm_frames 00000001400eb480 f   yourgame:headerlibs.obj
 0001:000ea4b0       ma_bpf2_get_latency        00000001400eb4b0 f   yourgame:headerlibs.obj
 0001:000ea4d0       ma_bpf_config_init         00000001400eb4d0 f   yourgame:headerlibs.obj
 0001:000ea520       ma_bpf_init                00000001400eb520 f   yourgame:headerlibs.obj
 0001:000ea920       ma_bpf_reinit              00000001400eb920 f   yourgame:headerlibs.obj
 0001:000ea950       ma_bpf_process_pcm_frames  00000001400eb950 f   yourgame:headerlibs.obj
 0001:000ead00       ma_bpf_get_latency         00000001400ebd00 f   yourgame:headerlibs.obj
 0001:000ead20       ma_notch2_config_init      00000001400ebd20 f   yourgame:headerlibs.obj
 0001:000ead70       ma_notch2_init             00000001400ebd70 f   yourgame:headerlibs.obj
 0001:000eaf00       ma_notch2_reinit           00000001400ebf00 f   yourgame:headerlibs.obj
 0001:000eb050       ma_notch2_process_pcm_frames 00000001400ec050 f   yourgame:headerlibs.obj
 0001:000eb080       ma_notch2_get_latency      00000001400ec080 f   yourgame:headerlibs.obj
 0001:000eb0a0       ma_peak2_config_init       00000001400ec0a0 f   yourgame:headerlibs.obj
 0001:000eb100       ma_peak2_init              00000001400ec100 f   yourgame:headerlibs.obj
 0001:000eb2d0       ma_peak2_reinit            00000001400ec2d0 f   yourgame:headerlibs.obj
 0001:000eb460       ma_peak2_process_pcm_frames 00000001400ec460 f   yourgame:headerlibs.obj
 0001:000eb490       ma_peak2_get_latency       00000001400ec490 f   yourgame:headerlibs.obj
 0001:000eb4b0       ma_loshelf2_config_init    00000001400ec4b0 f   yourgame:headerlibs.obj
 0001:000eb4f0       ma_loshelf2_init           00000001400ec4f0 f   yourgame:headerlibs.obj
 0001:000eb7a0       ma_loshelf2_reinit         00000001400ec7a0 f   yourgame:headerlibs.obj
 0001:000eba10       ma_loshelf2_process_pcm_frames 00000001400eca10 f   yourgame:headerlibs.obj
 0001:000eba40       ma_loshelf2_get_latency    00000001400eca40 f   yourgame:headerlibs.obj
 0001:000eba60       ma_hishelf2_config_init    00000001400eca60 f   yourgame:headerlibs.obj
 0001:000ebaa0       ma_hishelf2_init           00000001400ecaa0 f   yourgame:headerlibs.obj
 0001:000ebd40       ma_hishelf2_reinit         00000001400ecd40 f   yourgame:headerlibs.obj
 0001:000ebfa0       ma_hishelf2_process_pcm_frames 00000001400ecfa0 f   yourgame:headerlibs.obj
 0001:000ebfd0       ma_hishelf2_get_latency    00000001400ecfd0 f   yourgame:headerlibs.obj
 0001:000ebff0       ma_linear_resampler_config_init 00000001400ecff0 f   yourgame:headerlibs.obj
 0001:000ec030       ma_linear_resampler_init   00000001400ed030 f   yourgame:headerlibs.obj
 0001:000ec260       ma_linear_resampler_uninit 00000001400ed260 f   yourgame:headerlibs.obj
 0001:000ec270       ma_linear_resampler_process_pcm_frames 00000001400ed270 f   yourgame:headerlibs.obj
 0001:000ed720       ma_linear_resampler_set_rate 00000001400ee720 f   yourgame:headerlibs.obj
 0001:000ed750       ma_linear_resampler_set_rate_ratio 00000001400ee750 f   yourgame:headerlibs.obj
 0001:000ed7a0       ma_linear_resampler_get_required_input_frame_count 00000001400ee7a0 f   yourgame:headerlibs.obj
 0001:000ed800       ma_linear_resampler_get_expected_output_frame_count 00000001400ee800 f   yourgame:headerlibs.obj
 0001:000ed880       ma_linear_resampler_get_input_latency 00000001400ee880 f   yourgame:headerlibs.obj
 0001:000ed8c0       ma_linear_resampler_get_output_latency 00000001400ee8c0 f   yourgame:headerlibs.obj
 0001:000ed910       ma_resampler_process_pcm_frames 00000001400ee910 f   yourgame:headerlibs.obj
 0001:000ed990       ma_resampler_set_rate      00000001400ee990 f   yourgame:headerlibs.obj
 0001:000ed9e0       ma_resampler_set_rate_ratio 00000001400ee9e0 f   yourgame:headerlibs.obj
 0001:000eda50       ma_resampler_get_required_input_frame_count 00000001400eea50 f   yourgame:headerlibs.obj
 0001:000edac0       ma_resampler_get_input_latency 00000001400eeac0 f   yourgame:headerlibs.obj
 0001:000edb00       ma_resampler_get_output_latency 00000001400eeb00 f   yourgame:headerlibs.obj
 0001:000edb60       ma_channel_converter_config_init 00000001400eeb60 f   yourgame:headerlibs.obj
 0001:000edc20       ma_channel_converter_init  00000001400eec20 f   yourgame:headerlibs.obj
 0001:000ee7e0       ma_channel_map_valid       00000001400ef7e0 f   yourgame:headerlibs.obj
 0001:000ee820       ma_channel_map_equal       00000001400ef820 f   yourgame:headerlibs.obj
 0001:000ee860       ma_channel_map_blank       00000001400ef860 f   yourgame:headerlibs.obj
 0001:000ee8a0       ma_channel_map_contains_channel_position 00000001400ef8a0 f   yourgame:headerlibs.obj
 0001:000ee8d0       ma_channel_converter_uninit 00000001400ef8d0 f   yourgame:headerlibs.obj
 0001:000ee8e0       ma_channel_converter_process_pcm_frames 00000001400ef8e0 f   yourgame:headerlibs.obj
 0001:000efa10       ma_data_converter_config_init_default 00000001400f0a10 f   yourgame:headerlibs.obj
 0001:000efa70       ma_data_converter_config_init 00000001400f0a70 f   yourgame:headerlibs.obj
 0001:000efb20       ma_data_converter_init     00000001400f0b20 f   yourgame:headerlibs.obj
 0001:000eff90       ma_data_converter_uninit   00000001400f0f90 f   yourgame:headerlibs.obj
 0001:000effa0       ma_data_converter_process_pcm_frames 00000001400f0fa0 f   yourgame:headerlibs.obj
 0001:000f0fd0       ma_data_converter_set_rate 00000001400f1fd0 f   yourgame:headerlibs.obj
 0001:000f1050       ma_data_converter_set_rate_ratio 00000001400f2050 f   yourgame:headerlibs.obj
 0001:000f10e0       ma_data_converter_get_required_input_frame_count 00000001400f20e0 f   yourgame:headerlibs.obj
 0001:000f1170       ma_data_converter_get_expected_output_frame_count 00000001400f2170 f   yourgame:headerlibs.obj
 0001:000f1230       ma_data_converter_get_input_latency 00000001400f2230 f   yourgame:headerlibs.obj
 0001:000f1280       ma_data_converter_get_output_latency 00000001400f2280 f   yourgame:headerlibs.obj
 0001:000f12f0       ma_get_standard_channel_map 00000001400f22f0 f   yourgame:headerlibs.obj
 0001:000f3610       ma_convert_frames          00000001400f4610 f   yourgame:headerlibs.obj
 0001:000f3780       ma_convert_frames_ex       00000001400f4780 f   yourgame:headerlibs.obj
 0001:000f3900       ma_rb_init_ex              00000001400f4900 f   yourgame:headerlibs.obj
 0001:000f3a80       ma_aligned_malloc          00000001400f4a80 f   yourgame:headerlibs.obj
 0001:000f3b20       ma_rb_init                 00000001400f4b20 f   yourgame:headerlibs.obj
 0001:000f3b60       ma_rb_uninit               00000001400f4b60 f   yourgame:headerlibs.obj
 0001:000f3bd0       ma_aligned_free            00000001400f4bd0 f   yourgame:headerlibs.obj
 0001:000f3c30       ma_rb_reset                00000001400f4c30 f   yourgame:headerlibs.obj
 0001:000f3c50       ma_rb_acquire_read         00000001400f4c50 f   yourgame:headerlibs.obj
 0001:000f3cc0       ma_rb_commit_read          00000001400f4cc0 f   yourgame:headerlibs.obj
 0001:000f3d30       ma_rb_acquire_write        00000001400f4d30 f   yourgame:headerlibs.obj
 0001:000f3dc0       ma_rb_commit_write         00000001400f4dc0 f   yourgame:headerlibs.obj
 0001:000f3e30       ma_rb_seek_read            00000001400f4e30 f   yourgame:headerlibs.obj
 0001:000f3eb0       ma_rb_seek_write           00000001400f4eb0 f   yourgame:headerlibs.obj
 0001:000f3f30       ma_rb_pointer_distance     00000001400f4f30 f   yourgame:headerlibs.obj
 0001:000f3f70       ma_rb_available_read       00000001400f4f70 f   yourgame:headerlibs.obj
 0001:000f3fb0       ma_rb_available_write      00000001400f4fb0 f   yourgame:headerlibs.obj
 0001:000f4000       ma_rb_get_subbuffer_size   00000001400f5000 f   yourgame:headerlibs.obj
 0001:000f4020       ma_rb_get_subbuffer_stride 00000001400f5020 f   yourgame:headerlibs.obj
 0001:000f4050       ma_rb_get_subbuffer_offset 00000001400f5050 f   yourgame:headerlibs.obj
 0001:000f4080       ma_rb_get_subbuffer_ptr    00000001400f5080 f   yourgame:headerlibs.obj
 0001:000f40b0       ma_pcm_rb_init_ex          00000001400f50b0 f   yourgame:headerlibs.obj
 0001:000f4150       ma_pcm_rb_init             00000001400f5150 f   yourgame:headerlibs.obj
 0001:000f41e0       ma_pcm_rb_uninit           00000001400f51e0 f   yourgame:headerlibs.obj
 0001:000f4220       ma_pcm_rb_reset            00000001400f5220 f   yourgame:headerlibs.obj
 0001:000f4240       ma_pcm_rb_acquire_read     00000001400f5240 f   yourgame:headerlibs.obj
 0001:000f42e0       ma_pcm_rb_commit_read      00000001400f52e0 f   yourgame:headerlibs.obj
 0001:000f4360       ma_pcm_rb_acquire_write    00000001400f5360 f   yourgame:headerlibs.obj
 0001:000f4420       ma_pcm_rb_commit_write     00000001400f5420 f   yourgame:headerlibs.obj
 0001:000f44a0       ma_pcm_rb_seek_read        00000001400f54a0 f   yourgame:headerlibs.obj
 0001:000f4530       ma_pcm_rb_seek_write       00000001400f5530 f   yourgame:headerlibs.obj
 0001:000f45c0       ma_pcm_rb_pointer_distance 00000001400f55c0 f   yourgame:headerlibs.obj
 0001:000f4620       ma_pcm_rb_available_read   00000001400f5620 f   yourgame:headerlibs.obj
 0001:000f4680       ma_pcm_rb_available_write  00000001400f5680 f   yourgame:headerlibs.obj
 0001:000f46e0       ma_pcm_rb_get_subbuffer_size 00000001400f56e0 f   yourgame:headerlibs.obj
 0001:000f4720       ma_pcm_rb_get_subbuffer_stride 00000001400f5720 f   yourgame:headerlibs.obj
 0001:000f4760       ma_pcm_rb_get_subbuffer_offset 00000001400f5760 f   yourgame:headerlibs.obj
 0001:000f47c0       ma_pcm_rb_get_subbuffer_ptr 00000001400f57c0 f   yourgame:headerlibs.obj
 0001:000f4800       ma_result_description      00000001400f5800 f   yourgame:headerlibs.obj
 0001:000f4f90       ma_realloc                 00000001400f5f90 f   yourgame:headerlibs.obj
 0001:000f50c0       ma_free                    00000001400f60c0 f   yourgame:headerlibs.obj
 0001:000f5160       ma_blend_f32               00000001400f6160 f   yourgame:headerlibs.obj
 0001:000f52d0       ma_data_source_read_pcm_frames 00000001400f62d0 f   yourgame:headerlibs.obj
 0001:000f5470       ma_data_source_get_data_format 00000001400f6470 f   yourgame:headerlibs.obj
 0001:000f5500       ma_data_source_seek_to_pcm_frame 00000001400f6500 f   yourgame:headerlibs.obj
 0001:000f5530       ma_data_source_seek_pcm_frames 00000001400f6530 f   yourgame:headerlibs.obj
 0001:000f5570       ma_data_source_map         00000001400f6570 f   yourgame:headerlibs.obj
 0001:000f55a0       ma_data_source_unmap       00000001400f65a0 f   yourgame:headerlibs.obj
 0001:000f55d0       ma_audio_buffer_config_init 00000001400f65d0 f   yourgame:headerlibs.obj
 0001:000f5680       ma_audio_buffer_init       00000001400f6680 f   yourgame:headerlibs.obj
 0001:000f5980       ma_audio_buffer_init_copy  00000001400f6980 f   yourgame:headerlibs.obj
 0001:000f59b0       ma_audio_buffer_alloc_and_init 00000001400f69b0 f   yourgame:headerlibs.obj
 0001:000f5d70       ma_audio_buffer_uninit     00000001400f6d70 f   yourgame:headerlibs.obj
 0001:000f5dc0       ma_audio_buffer_uninit_and_free 00000001400f6dc0 f   yourgame:headerlibs.obj
 0001:000f5e20       ma_audio_buffer_read_pcm_frames 00000001400f6e20 f   yourgame:headerlibs.obj
 0001:000f5f00       ma_audio_buffer_seek_to_pcm_frame 00000001400f6f00 f   yourgame:headerlibs.obj
 0001:000f5f30       ma_audio_buffer_map        00000001400f6f30 f   yourgame:headerlibs.obj
 0001:000f5fa0       ma_audio_buffer_unmap      00000001400f6fa0 f   yourgame:headerlibs.obj
 0001:000f5fe0       ma_audio_buffer_at_end     00000001400f6fe0 f   yourgame:headerlibs.obj
 0001:000f6010       ma_vfs_open                00000001400f7010 f   yourgame:headerlibs.obj
 0001:000f6060       ma_vfs_open_w              00000001400f7060 f   yourgame:headerlibs.obj
 0001:000f60b0       ma_vfs_close               00000001400f70b0 f   yourgame:headerlibs.obj
 0001:000f60f0       ma_vfs_read                00000001400f70f0 f   yourgame:headerlibs.obj
 0001:000f6140       ma_vfs_write               00000001400f7140 f   yourgame:headerlibs.obj
 0001:000f61a0       ma_vfs_seek                00000001400f71a0 f   yourgame:headerlibs.obj
 0001:000f61e0       ma_vfs_tell                00000001400f71e0 f   yourgame:headerlibs.obj
 0001:000f6220       ma_vfs_info                00000001400f7220 f   yourgame:headerlibs.obj
 0001:000f6260       ma_vfs_open_and_read_file  00000001400f7260 f   yourgame:headerlibs.obj
 0001:000f6460       ma_default_vfs_init        00000001400f7460 f   yourgame:headerlibs.obj
 0001:000f6fe0       ma_decoder_config_init     00000001400f7fe0 f   yourgame:headerlibs.obj
 0001:000f7040       ?ma_decoder_config_init_copy@@YA?AUma_decoder_config@@PEBU1@@Z 00000001400f8040 f   yourgame:headerlibs.obj
 0001:000f70a0       ma_decoder_init_wav        00000001400f80a0 f   yourgame:headerlibs.obj
 0001:000f77a0       ma_decoder_init_flac       00000001400f87a0 f   yourgame:headerlibs.obj
 0001:000f7b20       ma_decoder_init_mp3        00000001400f8b20 f   yourgame:headerlibs.obj
 0001:000f7fa0       ma_decoder_init_vorbis     00000001400f8fa0 f   yourgame:headerlibs.obj
 0001:000f85e0       ma_decoder_init_raw        00000001400f95e0 f   yourgame:headerlibs.obj
 0001:000f88a0       ma_decoder_init            00000001400f98a0 f   yourgame:headerlibs.obj
 0001:000f8ca0       ma_decoder_init_memory     00000001400f9ca0 f   yourgame:headerlibs.obj
 0001:000f9160       ma_decoder_init_memory_wav 00000001400fa160 f   yourgame:headerlibs.obj
 0001:000f93e0       ma_decoder_init_memory_flac 00000001400fa3e0 f   yourgame:headerlibs.obj
 0001:000f9760       ma_decoder_init_memory_mp3 00000001400fa760 f   yourgame:headerlibs.obj
 0001:000f99e0       ma_decoder_init_memory_vorbis 00000001400fa9e0 f   yourgame:headerlibs.obj
 0001:000f9c60       ma_decoder_init_memory_raw 00000001400fac60 f   yourgame:headerlibs.obj
 0001:000f9f50       ma_decoder_init_vfs        00000001400faf50 f   yourgame:headerlibs.obj
 0001:000fa8f0       ma_decoder_init_vfs_wav    00000001400fb8f0 f   yourgame:headerlibs.obj
 0001:000faa70       ma_decoder_init_vfs_flac   00000001400fba70 f   yourgame:headerlibs.obj
 0001:000fad00       ma_decoder_init_vfs_mp3    00000001400fbd00 f   yourgame:headerlibs.obj
 0001:000fae80       ma_decoder_init_vfs_vorbis 00000001400fbe80 f   yourgame:headerlibs.obj
 0001:000fb000       ma_decoder_init_vfs_w      00000001400fc000 f   yourgame:headerlibs.obj
 0001:000fb890       ma_decoder_init_vfs_wav_w  00000001400fc890 f   yourgame:headerlibs.obj
 0001:000fba10       ma_decoder_init_vfs_flac_w 00000001400fca10 f   yourgame:headerlibs.obj
 0001:000fbca0       ma_decoder_init_vfs_mp3_w  00000001400fcca0 f   yourgame:headerlibs.obj
 0001:000fbe20       ma_decoder_init_vfs_vorbis_w 00000001400fce20 f   yourgame:headerlibs.obj
 0001:000fbfa0       ma_decoder_init_file       00000001400fcfa0 f   yourgame:headerlibs.obj
 0001:000fbfd0       ma_decoder_init_file_wav   00000001400fcfd0 f   yourgame:headerlibs.obj
 0001:000fc130       ma_decoder_init_file_flac  00000001400fd130 f   yourgame:headerlibs.obj
 0001:000fc160       ma_decoder_init_file_mp3   00000001400fd160 f   yourgame:headerlibs.obj
 0001:000fc2c0       ma_decoder_init_file_vorbis 00000001400fd2c0 f   yourgame:headerlibs.obj
 0001:000fc420       ma_decoder_init_file_w     00000001400fd420 f   yourgame:headerlibs.obj
 0001:000fc450       ma_decoder_init_file_wav_w 00000001400fd450 f   yourgame:headerlibs.obj
 0001:000fc5b0       ma_decoder_init_file_flac_w 00000001400fd5b0 f   yourgame:headerlibs.obj
 0001:000fc5e0       ma_decoder_init_file_mp3_w 00000001400fd5e0 f   yourgame:headerlibs.obj
 0001:000fc740       ma_decoder_init_file_vorbis_w 00000001400fd740 f   yourgame:headerlibs.obj
 0001:000fc8a0       ma_decoder_uninit          00000001400fd8a0 f   yourgame:headerlibs.obj
 0001:000fc940       ma_decoder_get_length_in_pcm_frames 00000001400fd940 f   yourgame:headerlibs.obj
 0001:000fcaf0       ma_decoder_read_pcm_frames 00000001400fdaf0 f   yourgame:headerlibs.obj
 0001:000fcd20       ma_decoder_seek_to_pcm_frame 00000001400fdd20 f   yourgame:headerlibs.obj
 0001:000fced0       ma_decode_from_vfs         00000001400fded0 f   yourgame:headerlibs.obj
 0001:000fd340       ma_decode_file             00000001400fe340 f   yourgame:headerlibs.obj
 0001:000fd4c0       ma_decode_memory           00000001400fe4c0 f   yourgame:headerlibs.obj
 0001:000fd650       ma_encoder_config_init     00000001400fe650 f   yourgame:headerlibs.obj
 0001:000fd680       ?ma_encoder_preinit@@YAHPEBUma_encoder_config@@PEAUma_encoder@@@Z 00000001400fe680 f   yourgame:headerlibs.obj
 0001:000fd790       ?ma_encoder_init__internal@@YAHP6A_KPEAUma_encoder@@PEBX_K@ZP6AI0HW4ma_seek_origin@@@ZPEAX0@Z 00000001400fe790 f   yourgame:headerlibs.obj
 0001:000fdae0       ?ma_encoder__on_write_stdio@@YA_KPEAUma_encoder@@PEBX_K@Z 00000001400feae0 f   yourgame:headerlibs.obj
 0001:000fdb10       ?ma_encoder__on_seek_stdio@@YAIPEAUma_encoder@@HW4ma_seek_origin@@@Z 00000001400feb10 f   yourgame:headerlibs.obj
 0001:000fdb50       ma_encoder_init_file       00000001400feb50 f   yourgame:headerlibs.obj
 0001:000fdd50       ma_encoder_init_file_w     00000001400fed50 f   yourgame:headerlibs.obj
 0001:000fdf60       ma_encoder_init            00000001400fef60 f   yourgame:headerlibs.obj
 0001:000fe0d0       ma_encoder_uninit          00000001400ff0d0 f   yourgame:headerlibs.obj
 0001:000fe120       ma_encoder_write_pcm_frames 00000001400ff120 f   yourgame:headerlibs.obj
 0001:000fe150       ma_waveform_config_init    00000001400ff150 f   yourgame:headerlibs.obj
 0001:000fe180       ma_waveform_init           00000001400ff180 f   yourgame:headerlibs.obj
 0001:000fe2b0       ma_waveform_set_amplitude  00000001400ff2b0 f   yourgame:headerlibs.obj
 0001:000fe2d0       ma_waveform_set_frequency  00000001400ff2d0 f   yourgame:headerlibs.obj
 0001:000fe2f0       ma_waveform_set_sample_rate 00000001400ff2f0 f   yourgame:headerlibs.obj
 0001:000fe330       ma_waveform_read_pcm_frames 00000001400ff330 f   yourgame:headerlibs.obj
 0001:000fee50       ma_waveform_seek_to_pcm_frame 00000001400ffe50 f   yourgame:headerlibs.obj
 0001:000fee80       ma_noise_config_init       00000001400ffe80 f   yourgame:headerlibs.obj
 0001:000feec0       ma_noise_init              00000001400ffec0 f   yourgame:headerlibs.obj
 0001:000ff030       ma_noise_read_pcm_frames   0000000140100030 f   yourgame:headerlibs.obj
 0001:001007e0       drwav_version              00000001401017e0 f   yourgame:headerlibs.obj
 0001:00100810       drwav_version_string       0000000140101810 f   yourgame:headerlibs.obj
 0001:00100830       drwav_fmt_get_format       0000000140101830 f   yourgame:headerlibs.obj
 0001:00100860       drwav_init                 0000000140101860 f   yourgame:headerlibs.obj
 0001:00100940       drwav_init_ex              0000000140101940 f   yourgame:headerlibs.obj
 0001:001018b0       drwav_init_write           00000001401028b0 f   yourgame:headerlibs.obj
 0001:00101dd0       drwav_init_write_sequential 0000000140102dd0 f   yourgame:headerlibs.obj
 0001:00101f10       drwav_init_write_sequential_pcm_frames 0000000140102f10 f   yourgame:headerlibs.obj
 0001:00101f60       drwav_target_write_size_bytes 0000000140102f60 f   yourgame:headerlibs.obj
 0001:00101ff0       drwav_init_file            0000000140102ff0 f   yourgame:headerlibs.obj
 0001:00102030       drwav_init_file_ex         0000000140103030 f   yourgame:headerlibs.obj
 0001:001021b0       drwav_init_file_w          00000001401031b0 f   yourgame:headerlibs.obj
 0001:001021f0       drwav_init_file_ex_w       00000001401031f0 f   yourgame:headerlibs.obj
 0001:00102370       drwav_init_file_write      0000000140103370 f   yourgame:headerlibs.obj
 0001:00102430       drwav_init_file_write_sequential 0000000140103430 f   yourgame:headerlibs.obj
 0001:001024f0       drwav_init_file_write_sequential_pcm_frames 00000001401034f0 f   yourgame:headerlibs.obj
 0001:001025d0       drwav_init_file_write_w    00000001401035d0 f   yourgame:headerlibs.obj
 0001:00102690       drwav_init_file_write_sequential_w 0000000140103690 f   yourgame:headerlibs.obj
 0001:00102750       drwav_init_file_write_sequential_pcm_frames_w 0000000140103750 f   yourgame:headerlibs.obj
 0001:00102830       drwav_init_memory          0000000140103830 f   yourgame:headerlibs.obj
 0001:00102930       drwav_init_memory_ex       0000000140103930 f   yourgame:headerlibs.obj
 0001:00102b10       drwav_init_memory_write    0000000140103b10 f   yourgame:headerlibs.obj
 0001:00102ce0       drwav_init_memory_write_sequential 0000000140103ce0 f   yourgame:headerlibs.obj
 0001:00102d20       drwav_init_memory_write_sequential_pcm_frames 0000000140103d20 f   yourgame:headerlibs.obj
 0001:00102d70       drwav_uninit               0000000140103d70 f   yourgame:headerlibs.obj
 0001:00102ff0       drwav_read_raw             0000000140103ff0 f   yourgame:headerlibs.obj
 0001:00103120       drwav_read_pcm_frames_le   0000000140104120 f   yourgame:headerlibs.obj
 0001:001032d0       drwav_read_pcm_frames_be   00000001401042d0 f   yourgame:headerlibs.obj
 0001:00103750       drwav_read_pcm_frames      0000000140104750 f   yourgame:headerlibs.obj
 0001:00103770       ?drwav_seek_to_first_pcm_frame@@YAIPEAUdrwav@@@Z 0000000140104770 f   yourgame:headerlibs.obj
 0001:001037e0       drwav_seek_to_pcm_frame    00000001401047e0 f   yourgame:headerlibs.obj
 0001:001044b0       drwav_write_raw            00000001401054b0 f   yourgame:headerlibs.obj
 0001:00104500       drwav_write_pcm_frames_le  0000000140105500 f   yourgame:headerlibs.obj
 0001:001045d0       drwav_write_pcm_frames_be  00000001401055d0 f   yourgame:headerlibs.obj
 0001:00104c10       drwav_write_pcm_frames     0000000140105c10 f   yourgame:headerlibs.obj
 0001:00104ce0       drwav_read_pcm_frames_s16  0000000140105ce0 f   yourgame:headerlibs.obj
 0001:00105ab0       drwav_read_pcm_frames_s16le 0000000140106ab0 f   yourgame:headerlibs.obj
 0001:00105ad0       drwav_read_pcm_frames_s16be 0000000140106ad0 f   yourgame:headerlibs.obj
 0001:00105bc0       drwav_u8_to_s16            0000000140106bc0 f   yourgame:headerlibs.obj
 0001:00105d10       drwav_s24_to_s16           0000000140106d10 f   yourgame:headerlibs.obj
 0001:00105d80       drwav_s32_to_s16           0000000140106d80 f   yourgame:headerlibs.obj
 0001:00105e70       drwav_f32_to_s16           0000000140106e70 f   yourgame:headerlibs.obj
 0001:00105fa0       drwav_f64_to_s16           0000000140106fa0 f   yourgame:headerlibs.obj
 0001:001060e0       drwav_alaw_to_s16          00000001401070e0 f   yourgame:headerlibs.obj
 0001:001061a0       drwav_mulaw_to_s16         00000001401071a0 f   yourgame:headerlibs.obj
 0001:00106260       drwav_read_pcm_frames_f32  0000000140107260 f   yourgame:headerlibs.obj
 0001:001074d0       drwav_read_pcm_frames_f32le 00000001401084d0 f   yourgame:headerlibs.obj
 0001:001074f0       drwav_read_pcm_frames_f32be 00000001401084f0 f   yourgame:headerlibs.obj
 0001:001075e0       drwav_u8_to_f32            00000001401085e0 f   yourgame:headerlibs.obj
 0001:001077c0       drwav_s16_to_f32           00000001401087c0 f   yourgame:headerlibs.obj
 0001:00107950       drwav_s24_to_f32           0000000140108950 f   yourgame:headerlibs.obj
 0001:00107b20       drwav_s32_to_f32           0000000140108b20 f   yourgame:headerlibs.obj
 0001:00107cd0       drwav_f64_to_f32           0000000140108cd0 f   yourgame:headerlibs.obj
 0001:00107e10       drwav_alaw_to_f32          0000000140108e10 f   yourgame:headerlibs.obj
 0001:00107ee0       drwav_mulaw_to_f32         0000000140108ee0 f   yourgame:headerlibs.obj
 0001:00107fb0       drwav_read_pcm_frames_s32  0000000140108fb0 f   yourgame:headerlibs.obj
 0001:00108e30       drwav_read_pcm_frames_s32le 0000000140109e30 f   yourgame:headerlibs.obj
 0001:00108e50       drwav_read_pcm_frames_s32be 0000000140109e50 f   yourgame:headerlibs.obj
 0001:00108f40       drwav_u8_to_s32            0000000140109f40 f   yourgame:headerlibs.obj
 0001:001090c0       drwav_s16_to_s32           000000014010a0c0 f   yourgame:headerlibs.obj
 0001:00109200       drwav_s24_to_s32           000000014010a200 f   yourgame:headerlibs.obj
 0001:001092d0       drwav_f32_to_s32           000000014010a2d0 f   yourgame:headerlibs.obj
 0001:00109470       drwav_f64_to_s32           000000014010a470 f   yourgame:headerlibs.obj
 0001:001095e0       drwav_alaw_to_s32          000000014010a5e0 f   yourgame:headerlibs.obj
 0001:001096c0       drwav_mulaw_to_s32         000000014010a6c0 f   yourgame:headerlibs.obj
 0001:001097a0       drwav_open_and_read_pcm_frames_s16 000000014010a7a0 f   yourgame:headerlibs.obj
 0001:00109a30       drwav_open_and_read_pcm_frames_f32 000000014010aa30 f   yourgame:headerlibs.obj
 0001:00109cc0       drwav_open_and_read_pcm_frames_s32 000000014010acc0 f   yourgame:headerlibs.obj
 0001:00109f50       drwav_open_file_and_read_pcm_frames_s16 000000014010af50 f   yourgame:headerlibs.obj
 0001:0010a030       drwav_open_file_and_read_pcm_frames_f32 000000014010b030 f   yourgame:headerlibs.obj
 0001:0010a110       drwav_open_file_and_read_pcm_frames_s32 000000014010b110 f   yourgame:headerlibs.obj
 0001:0010a1f0       drwav_open_file_and_read_pcm_frames_s16_w 000000014010b1f0 f   yourgame:headerlibs.obj
 0001:0010a2d0       drwav_open_file_and_read_pcm_frames_f32_w 000000014010b2d0 f   yourgame:headerlibs.obj
 0001:0010a3b0       drwav_open_file_and_read_pcm_frames_s32_w 000000014010b3b0 f   yourgame:headerlibs.obj
 0001:0010a490       drwav_open_memory_and_read_pcm_frames_s16 000000014010b490 f   yourgame:headerlibs.obj
 0001:0010a650       drwav_open_memory_and_read_pcm_frames_f32 000000014010b650 f   yourgame:headerlibs.obj
 0001:0010a810       drwav_open_memory_and_read_pcm_frames_s32 000000014010b810 f   yourgame:headerlibs.obj
 0001:0010a9d0       drwav_free                 000000014010b9d0 f   yourgame:headerlibs.obj
 0001:0010aa30       drwav_bytes_to_u16         000000014010ba30 f   yourgame:headerlibs.obj
 0001:0010aa40       drwav_bytes_to_s16         000000014010ba40 f   yourgame:headerlibs.obj
 0001:0010aa50       drwav_bytes_to_u32         000000014010ba50 f   yourgame:headerlibs.obj
 0001:0010aa60       drwav_bytes_to_s32         000000014010ba60 f   yourgame:headerlibs.obj
 0001:0010aa70       drwav_bytes_to_u64         000000014010ba70 f   yourgame:headerlibs.obj
 0001:0010aa80       drwav_bytes_to_s64         000000014010ba80 f   yourgame:headerlibs.obj
 0001:0010aa90       drwav_guid_equal           000000014010ba90 f   yourgame:headerlibs.obj
 0001:0010ab60       drwav_fourcc_equal         000000014010bb60 f   yourgame:headerlibs.obj
 0001:0010abb0       drflac_version             000000014010bbb0 f   yourgame:headerlibs.obj
 0001:0010abe0       drflac_version_string      000000014010bbe0 f   yourgame:headerlibs.obj
 0001:0010ac00       drflac_open_file           000000014010bc00 f   yourgame:headerlibs.obj
 0001:0010acf0       drflac_open                000000014010bcf0 f   yourgame:headerlibs.obj
 0001:0010ada0       drflac_open_file_w         000000014010bda0 f   yourgame:headerlibs.obj
 0001:0010ae90       drflac_open_file_with_metadata 000000014010be90 f   yourgame:headerlibs.obj
 0001:0010bfa0       drflac_open_file_with_metadata_w 000000014010cfa0 f   yourgame:headerlibs.obj
 0001:0010c090       drflac_open_memory         000000014010d090 f   yourgame:headerlibs.obj
 0001:0010c210       drflac_open_memory_with_metadata 000000014010d210 f   yourgame:headerlibs.obj
 0001:0010c2f0       drflac_open_relaxed        000000014010d2f0 f   yourgame:headerlibs.obj
 0001:0010c330       drflac_open_with_metadata  000000014010d330 f   yourgame:headerlibs.obj
 0001:0010c370       drflac_open_with_metadata_relaxed 000000014010d370 f   yourgame:headerlibs.obj
 0001:0010c3b0       drflac_close               000000014010d3b0 f   yourgame:headerlibs.obj
 0001:0010c440       drflac_read_pcm_frames_s32 000000014010d440 f   yourgame:headerlibs.obj
 0001:0010d660       drflac_read_pcm_frames_s16 000000014010e660 f   yourgame:headerlibs.obj
 0001:0010e690       drflac_read_pcm_frames_f32 000000014010f690 f   yourgame:headerlibs.obj
 0001:00110be0       drflac_seek_to_pcm_frame   0000000140111be0 f   yourgame:headerlibs.obj
 0001:00113720       drflac_open_and_read_pcm_frames_s32 0000000140114720 f   yourgame:headerlibs.obj
 0001:00113bd0       drflac_open_and_read_pcm_frames_s16 0000000140114bd0 f   yourgame:headerlibs.obj
 0001:00114080       drflac_open_and_read_pcm_frames_f32 0000000140115080 f   yourgame:headerlibs.obj
 0001:00114530       drflac_open_file_and_read_pcm_frames_s32 0000000140115530 f   yourgame:headerlibs.obj
 0001:00114660       drflac_open_file_and_read_pcm_frames_s16 0000000140115660 f   yourgame:headerlibs.obj
 0001:00114790       drflac_open_file_and_read_pcm_frames_f32 0000000140115790 f   yourgame:headerlibs.obj
 0001:001148c0       drflac_open_memory_and_read_pcm_frames_s32 00000001401158c0 f   yourgame:headerlibs.obj
 0001:001149f0       drflac_open_memory_and_read_pcm_frames_s16 00000001401159f0 f   yourgame:headerlibs.obj
 0001:00114b20       drflac_open_memory_and_read_pcm_frames_f32 0000000140115b20 f   yourgame:headerlibs.obj
 0001:00114c50       drflac_free                0000000140115c50 f   yourgame:headerlibs.obj
 0001:00114cb0       drflac_init_vorbis_comment_iterator 0000000140115cb0 f   yourgame:headerlibs.obj
 0001:00114cd0       drflac_next_vorbis_comment 0000000140115cd0 f   yourgame:headerlibs.obj
 0001:00114d30       drflac_init_cuesheet_track_iterator 0000000140115d30 f   yourgame:headerlibs.obj
 0001:00114d50       drflac_next_cuesheet_track 0000000140115d50 f   yourgame:headerlibs.obj
 0001:00114e40       drmp3_version              0000000140115e40 f   yourgame:headerlibs.obj
 0001:00114e70       drmp3_version_string       0000000140115e70 f   yourgame:headerlibs.obj
 0001:00114e90       drmp3dec_init              0000000140115e90 f   yourgame:headerlibs.obj
 0001:00114eb0       drmp3dec_decode_frame      0000000140115eb0 f   yourgame:headerlibs.obj
 0001:0011a450       drmp3dec_f32_to_s16        000000014011b450 f   yourgame:headerlibs.obj
 0001:0011a690       drmp3_init                 000000014011b690 f   yourgame:headerlibs.obj
 0001:0011a870       drmp3_init_memory          000000014011b870 f   yourgame:headerlibs.obj
 0001:0011a9d0       drmp3_init_file            000000014011b9d0 f   yourgame:headerlibs.obj
 0001:0011ab30       drmp3_init_file_w          000000014011bb30 f   yourgame:headerlibs.obj
 0001:0011ac20       drmp3_uninit               000000014011bc20 f   yourgame:headerlibs.obj
 0001:0011ac90       drmp3_read_pcm_frames_f32  000000014011bc90 f   yourgame:headerlibs.obj
 0001:0011af50       drmp3_read_pcm_frames_s16  000000014011bf50 f   yourgame:headerlibs.obj
 0001:0011b060       drmp3_seek_to_pcm_frame    000000014011c060 f   yourgame:headerlibs.obj
 0001:0011b420       drmp3_get_mp3_and_pcm_frame_count 000000014011c420 f   yourgame:headerlibs.obj
 0001:0011b9d0       drmp3_get_pcm_frame_count  000000014011c9d0 f   yourgame:headerlibs.obj
 0001:0011ba30       drmp3_get_mp3_frame_count  000000014011ca30 f   yourgame:headerlibs.obj
 0001:0011baa0       drmp3_calculate_seek_points 000000014011caa0 f   yourgame:headerlibs.obj
 0001:0011bf40       drmp3_bind_seek_table      000000014011cf40 f   yourgame:headerlibs.obj
 0001:0011bf90       drmp3_open_and_read_pcm_frames_f32 000000014011cf90 f   yourgame:headerlibs.obj
 0001:0011c340       drmp3_open_and_read_pcm_frames_s16 000000014011d340 f   yourgame:headerlibs.obj
 0001:0011c7a0       drmp3_open_memory_and_read_pcm_frames_f32 000000014011d7a0 f   yourgame:headerlibs.obj
 0001:0011c8b0       drmp3_open_memory_and_read_pcm_frames_s16 000000014011d8b0 f   yourgame:headerlibs.obj
 0001:0011c9c0       drmp3_open_file_and_read_pcm_frames_f32 000000014011d9c0 f   yourgame:headerlibs.obj
 0001:0011caf0       drmp3_open_file_and_read_pcm_frames_s16 000000014011daf0 f   yourgame:headerlibs.obj
 0001:0011cc20       drmp3_malloc               000000014011dc20 f   yourgame:headerlibs.obj
 0001:0011cca0       drmp3_free                 000000014011dca0 f   yourgame:headerlibs.obj
 0001:0011cd00       ??_GMaterialReader@tinyobj@@UEAAPEAXI@Z 000000014011dd00 f   yourgame:headerlibs.obj
 0001:0011cfe0       ??_E?$basic_stringstream@DU?$char_traits@D@std@@V?$allocator@D@2@@std@@$4PPPPPPPM@A@EAAPEAXI@Z 000000014011dfe0 f   yourgame:headerlibs.obj
 0001:0011d000       ??_G?$basic_stringstream@DU?$char_traits@D@std@@V?$allocator@D@2@@std@@UEAAPEAXI@Z 000000014011e000 f   yourgame:headerlibs.obj
 0001:0011d150       ??_E?$basic_iostream@DU?$char_traits@D@std@@@std@@$4PPPPPPPM@A@EAAPEAXI@Z 000000014011e150 f   yourgame:headerlibs.obj
 0001:0011d220       ??_E?$basic_ostream@DU?$char_traits@D@std@@@std@@$4PPPPPPPM@A@EAAPEAXI@Z 000000014011e220 f   yourgame:headerlibs.obj
 0001:0011d290       ??_E?$basic_istream@DU?$char_traits@D@std@@@std@@$4PPPPPPPM@A@EAAPEAXI@Z 000000014011e290 f   yourgame:headerlibs.obj
 0001:0011d300       ??1?$basic_filebuf@DU?$char_traits@D@std@@@std@@UEAA@XZ 000000014011e300 f   yourgame:headerlibs.obj
 0001:0011d450       ??_E?$basic_ifstream@DU?$char_traits@D@std@@@std@@$4PPPPPPPM@A@EAAPEAXI@Z 000000014011e450 f   yourgame:headerlibs.obj
 0001:0011d530       ??_G?$basic_filebuf@DU?$char_traits@D@std@@@std@@UEAAPEAXI@Z 000000014011e530 f   yourgame:headerlibs.obj
 0001:0011d570       ?_Lock@?$basic_filebuf@DU?$char_traits@D@std@@@std@@UEAAXXZ 000000014011e570 f   yourgame:headerlibs.obj
 0001:0011d5a0       ?_Unlock@?$basic_filebuf@DU?$char_traits@D@std@@@std@@UEAAXXZ 000000014011e5a0 f   yourgame:headerlibs.obj
 0001:0011d5d0       ?overflow@?$basic_filebuf@DU?$char_traits@D@std@@@std@@MEAAHH@Z 000000014011e5d0 f   yourgame:headerlibs.obj
 0001:0011d780       ?pbackfail@?$basic_filebuf@DU?$char_traits@D@std@@@std@@MEAAHH@Z 000000014011e780 f   yourgame:headerlibs.obj
 0001:0011d870       ?underflow@?$basic_filebuf@DU?$char_traits@D@std@@@std@@MEAAHXZ 000000014011e870 f   yourgame:headerlibs.obj
 0001:0011d8d0       ?uflow@?$basic_filebuf@DU?$char_traits@D@std@@@std@@MEAAHXZ 000000014011e8d0 f   yourgame:headerlibs.obj
 0001:0011dc20       ?xsgetn@?$basic_filebuf@DU?$char_traits@D@std@@@std@@MEAA_JPEAD_J@Z 000000014011ec20 f   yourgame:headerlibs.obj
 0001:0011dd90       ?xsputn@?$basic_filebuf@DU?$char_traits@D@std@@@std@@MEAA_JPEBD_J@Z 000000014011ed90 f   yourgame:headerlibs.obj
 0001:0011de70       ?seekoff@?$basic_filebuf@DU?$char_traits@D@std@@@std@@MEAA?AV?$fpos@U_Mbstatet@@@2@_JHH@Z 000000014011ee70 f   yourgame:headerlibs.obj
 0001:0011dfa0       ?seekpos@?$basic_filebuf@DU?$char_traits@D@std@@@std@@MEAA?AV?$fpos@U_Mbstatet@@@2@V32@H@Z 000000014011efa0 f   yourgame:headerlibs.obj
 0001:0011e090       ?setbuf@?$basic_filebuf@DU?$char_traits@D@std@@@std@@MEAAPEAV?$basic_streambuf@DU?$char_traits@D@std@@@2@PEAD_J@Z 000000014011f090 f   yourgame:headerlibs.obj
 0001:0011e1f0       ?sync@?$basic_filebuf@DU?$char_traits@D@std@@@std@@MEAAHXZ 000000014011f1f0 f   yourgame:headerlibs.obj
 0001:0011e240       ?imbue@?$basic_filebuf@DU?$char_traits@D@std@@@std@@MEAAXAEBVlocale@2@@Z 000000014011f240 f   yourgame:headerlibs.obj
 0001:0011e2d0       ?_Endwrite@?$basic_filebuf@DU?$char_traits@D@std@@@std@@IEAA_NXZ 000000014011f2d0 f   yourgame:headerlibs.obj
 0001:0011e3c0       ??$use_facet@V?$codecvt@DDU_Mbstatet@@@std@@@std@@YAAEBV?$codecvt@DDU_Mbstatet@@@0@AEBVlocale@0@@Z 000000014011f3c0 f   yourgame:headerlibs.obj
 0001:0011e530       ??_GMaterialFileReader@tinyobj@@UEAAPEAXI@Z 000000014011f530 f   yourgame:headerlibs.obj
 0001:0011e5e0       ?_Xlength@?$vector@Uvertex_index_t@tinyobj@@V?$allocator@Uvertex_index_t@tinyobj@@@std@@@std@@CAXXZ 000000014011f5e0 f   yourgame:headerlibs.obj
 0001:0011e610       ??$_Emplace_reallocate@AEBH@?$vector@HV?$allocator@H@std@@@std@@AEAAPEAHQEAHAEBH@Z 000000014011f610 f   yourgame:headerlibs.obj
 0001:0011e7c0       ??$_Assign_range@PEAUtag_t@tinyobj@@@?$vector@Utag_t@tinyobj@@V?$allocator@Utag_t@tinyobj@@@std@@@std@@AEAAXPEAUtag_t@tinyobj@@0Uforward_iterator_tag@1@@Z 000000014011f7c0 f   yourgame:headerlibs.obj
 0001:0011e950       ?_Clear_and_reserve_geometric@?$vector@Utag_t@tinyobj@@V?$allocator@Utag_t@tinyobj@@@std@@@std@@AEAAX_K@Z 000000014011f950 f   yourgame:headerlibs.obj
 0001:0011ead0       ??4tag_t@tinyobj@@QEAAAEAU01@AEBU01@@Z 000000014011fad0 f   yourgame:headerlibs.obj
 0001:0011ecc0       ?_Clear_and_reserve_geometric@?$vector@HV?$allocator@H@std@@@std@@AEAAX_K@Z 000000014011fcc0 f   yourgame:headerlibs.obj
 0001:0011ee00       ??$_Assign_range@PEAV?$basic_string@DU?$char_traits@D@std@@V?$allocator@D@2@@std@@@?$vector@V?$basic_string@DU?$char_traits@D@std@@V?$allocator@D@2@@std@@V?$allocator@V?$basic_string@DU?$char_traits@D@std@@V?$allocator@D@2@@std@@@2@@std@@AEAAXPEAV?$basic_string@DU?$char_traits@D@std@@V?$allocator@D@2@@1@0Uforward_iterator_tag@1@@Z 000000014011fe00 f   yourgame:headerlibs.obj
 0001:0011f230       ?_Clear_and_reserve_geometric@?$vector@V?$basic_string@DU?$char_traits@D@std@@V?$allocator@D@2@@std@@V?$allocator@V?$basic_string@DU?$char_traits@D@std@@V?$allocator@D@2@@std@@@2@@std@@AEAAX_K@Z 0000000140120230 f   yourgame:headerlibs.obj
 0001:0011f400       ??$_Emplace_reallocate@H@?$vector@HV?$allocator@H@std@@@std@@AEAAPEAHQEAH$$QEAH@Z 0000000140120400 f   yourgame:headerlibs.obj
 0001:0011f5b0       ??$getline@DU?$char_traits@D@std@@V?$allocator@D@2@@std@@YAAEAV?$basic_istream@DU?$char_traits@D@std@@@0@$$QEAV10@AEAV?$basic_string@DU?$char_traits@D@std@@V?$allocator@D@2@@0@D@Z 00000001401205b0 f   yourgame:headerlibs.obj
 0001:0011f790       ??4mesh_t@tinyobj@@QEAAAEAU01@$$QEAU01@@Z 0000000140120790 f   yourgame:headerlibs.obj
 0001:0011fa50       ??_GMaterialStreamReader@tinyobj@@UEAAPEAXI@Z 0000000140120a50 f   yourgame:headerlibs.obj
 0001:00137ed0       sprintf_s                  0000000140138ed0 f   yourgame:headerlibs.obj
 0001:00155090       ??$_Emplace_reallocate@AEBUindex_t@tinyobj@@@?$vector@Uindex_t@tinyobj@@V?$allocator@Uindex_t@tinyobj@@@std@@@std@@AEAAPEAUindex_t@tinyobj@@QEAU23@AEBU23@@Z 0000000140156090 f   yourgame:headerlibs.obj
 0001:00155280       ??_G?$basic_ios@DU?$char_traits@D@std@@@std@@UEAAPEAXI@Z 0000000140156280 f   yourgame:headerlibs.obj
 0001:001552c0       ??_G?$basic_stringbuf@DU?$char_traits@D@std@@V?$allocator@D@2@@std@@UEAAPEAXI@Z 00000001401562c0 f   yourgame:headerlibs.obj
 0001:00155320       ?overflow@?$basic_stringbuf@DU?$char_traits@D@std@@V?$allocator@D@2@@std@@MEAAHH@Z 0000000140156320 f   yourgame:headerlibs.obj
 0001:00155520       ?pbackfail@?$basic_stringbuf@DU?$char_traits@D@std@@V?$allocator@D@2@@std@@MEAAHH@Z 0000000140156520 f   yourgame:headerlibs.obj
 0001:00155590       ?underflow@?$basic_stringbuf@DU?$char_traits@D@std@@V?$allocator@D@2@@std@@MEAAHXZ 0000000140156590 f   yourgame:headerlibs.obj
 0001:00155600       ?seekoff@?$basic_stringbuf@DU?$char_traits@D@std@@V?$allocator@D@2@@std@@MEAA?AV?$fpos@U_Mbstatet@@@2@_JHH@Z 0000000140156600 f   yourgame:headerlibs.obj
 0001:00155750       ?seekpos@?$basic_stringbuf@DU?$char_traits@D@std@@V?$allocator@D@2@@std@@MEAA?AV?$fpos@U_Mbstatet@@@2@V32@H@Z 0000000140156750 f   yourgame:headerlibs.obj
 0001:00155840       ??$_Emplace_reallocate@AEBV?$basic_string@DU?$char_traits@D@std@@V?$allocator@D@2@@std@@@?$vector@V?$basic_string@DU?$char_traits@D@std@@V?$allocator@D@2@@std@@V?$allocator@V?$basic_string@DU?$char_traits@D@std@@V?$allocator@D@2@@std@@@2@@std@@AEAAPEAV?$basic_string@DU?$char_traits@D@std@@V?$allocator@D@2@@1@QEAV21@AEBV21@@Z 0000000140156840 f   yourgame:headerlibs.obj
 0001:00155c50       ??$_Emplace@U?$pair@V?$basic_string@DU?$char_traits@D@std@@V?$allocator@D@2@@std@@H@std@@@?$_Tree@V?$_Tmap_traits@V?$basic_string@DU?$char_traits@D@std@@V?$allocator@D@2@@std@@HU?$less@V?$basic_string@DU?$char_traits@D@std@@V?$allocator@D@2@@std@@@2@V?$allocator@U?$pair@$$CBV?$basic_string@DU?$char_traits@D@std@@V?$allocator@D@2@@std@@H@std@@@2@$0A@@std@@@std@@IEAA?AU?$pair@PEAU?$_Tree_node@U?$pair@$$CBV?$basic_string@DU?$char_traits@D@std@@V?$allocator@D@2@@std@@H@std@@PEAX@std@@_N@1@$$QEAU?$pair@V?$basic_string@DU?$char_traits@D@std@@V?$allocator@D@2@@std@@H@1@@Z 0000000140156c50 f   yourgame:headerlibs.obj
 0001:00155e80       ??$_Emplace_reallocate@AEBUmaterial_t@tinyobj@@@?$vector@Umaterial_t@tinyobj@@V?$allocator@Umaterial_t@tinyobj@@@std@@@std@@AEAAPEAUmaterial_t@tinyobj@@QEAU23@AEBU23@@Z 0000000140156e80 f   yourgame:headerlibs.obj
 0001:00156120       ??0material_t@tinyobj@@QEAA@$$QEAU01@@Z 0000000140157120 f   yourgame:headerlibs.obj
 0001:00156c90       ??$_Insert_string@DU?$char_traits@D@std@@_K@std@@YAAEAV?$basic_ostream@DU?$char_traits@D@std@@@0@AEAV10@QEBD_K@Z 0000000140157c90 f   yourgame:headerlibs.obj
 0001:00156e90       ??$_Emplace@U?$pair@V?$basic_string@DU?$char_traits@D@std@@V?$allocator@D@2@@std@@V12@@std@@@?$_Tree@V?$_Tmap_traits@V?$basic_string@DU?$char_traits@D@std@@V?$allocator@D@2@@std@@V12@U?$less@V?$basic_string@DU?$char_traits@D@std@@V?$allocator@D@2@@std@@@2@V?$allocator@U?$pair@$$CBV?$basic_string@DU?$char_traits@D@std@@V?$allocator@D@2@@std@@V12@@std@@@2@$0A@@std@@@std@@IEAA?AU?$pair@PEAU?$_Tree_node@U?$pair@$$CBV?$basic_string@DU?$char_traits@D@std@@V?$allocator@D@2@@std@@V12@@std@@PEAX@std@@_N@1@$$QEAU?$pair@V?$basic_string@DU?$char_traits@D@std@@V?$allocator@D@2@@std@@V12@@1@@Z 0000000140157e90 f   yourgame:headerlibs.obj
 0001:00157100       ??1?$_Tree_temp_node@V?$allocator@U?$_Tree_node@U?$pair@$$CBV?$basic_string@DU?$char_traits@D@std@@V?$allocator@D@2@@std@@V12@@std@@PEAX@std@@@std@@@std@@QEAA@XZ 0000000140158100 f   yourgame:headerlibs.obj
 0001:001571f0       ?_Insert_node@?$_Tree_val@U?$_Tree_simple_types@U?$pair@$$CBV?$basic_string@DU?$char_traits@D@std@@V?$allocator@D@2@@std@@V12@@std@@@std@@@std@@QEAAPEAU?$_Tree_node@U?$pair@$$CBV?$basic_string@DU?$char_traits@D@std@@V?$allocator@D@2@@std@@V12@@std@@PEAX@2@U?$_Tree_id@PEAU?$_Tree_node@U?$pair@$$CBV?$basic_string@DU?$char_traits@D@std@@V?$allocator@D@2@@std@@V12@@std@@PEAX@std@@@2@QEAU32@@Z 00000001401581f0 f   yourgame:headerlibs.obj
 0001:00157450       ?open@?$basic_filebuf@DU?$char_traits@D@std@@@std@@QEAAPEAV12@PEBDHH@Z 0000000140158450 f   yourgame:headerlibs.obj
 0001:00157650       ??$_Emplace_reallocate@AEBM@?$vector@MV?$allocator@M@std@@@std@@AEAAPEAMQEAMAEBM@Z 0000000140158650 f   yourgame:headerlibs.obj
 0001:00157800       ??$_Emplace_reallocate@AEBUvertex_index_t@tinyobj@@@?$vector@Uvertex_index_t@tinyobj@@V?$allocator@Uvertex_index_t@tinyobj@@@std@@@std@@AEAAPEAUvertex_index_t@tinyobj@@QEAU23@AEBU23@@Z 0000000140158800 f   yourgame:headerlibs.obj
 0001:001579f0       ??$_Emplace_reallocate@AEBU__line_t@tinyobj@@@?$vector@U__line_t@tinyobj@@V?$allocator@U__line_t@tinyobj@@@std@@@std@@AEAAPEAU__line_t@tinyobj@@QEAU23@AEBU23@@Z 00000001401589f0 f   yourgame:headerlibs.obj
 0001:00157db0       ??$_Emplace_reallocate@AEBU__points_t@tinyobj@@@?$vector@U__points_t@tinyobj@@V?$allocator@U__points_t@tinyobj@@@std@@@std@@AEAAPEAU__points_t@tinyobj@@QEAU23@AEBU23@@Z 0000000140158db0 f   yourgame:headerlibs.obj
 0001:00158170       ??$_Emplace_reallocate@AEBUface_t@tinyobj@@@?$vector@Uface_t@tinyobj@@V?$allocator@Uface_t@tinyobj@@@std@@@std@@AEAAPEAUface_t@tinyobj@@QEAU23@AEBU23@@Z 0000000140159170 f   yourgame:headerlibs.obj
 0001:00158560       ??$_Emplace_reallocate@AEBUshape_t@tinyobj@@@?$vector@Ushape_t@tinyobj@@V?$allocator@Ushape_t@tinyobj@@@std@@@std@@AEAAPEAUshape_t@tinyobj@@QEAU23@AEBU23@@Z 0000000140159560 f   yourgame:headerlibs.obj
 0001:00158750       ??$_Uninitialized_move@PEAUshape_t@tinyobj@@V?$allocator@Ushape_t@tinyobj@@@std@@@std@@YAPEAUshape_t@tinyobj@@QEAU12@0PEAU12@AEAV?$allocator@Ushape_t@tinyobj@@@0@@Z 0000000140159750 f   yourgame:headerlibs.obj
 0001:001588e0       ??$_Resize_reallocate@U_Value_init_tag@std@@@?$vector@HV?$allocator@H@std@@@std@@AEAAX_KAEBU_Value_init_tag@1@@Z 00000001401598e0 f   yourgame:headerlibs.obj
 0001:00158a70       ??$_Resize_reallocate@U_Value_init_tag@std@@@?$vector@MV?$allocator@M@std@@@std@@AEAAX_KAEBU_Value_init_tag@1@@Z 0000000140159a70 f   yourgame:headerlibs.obj
 0001:00158c00       ??$_Resize_reallocate@U_Value_init_tag@std@@@?$vector@V?$basic_string@DU?$char_traits@D@std@@V?$allocator@D@2@@std@@V?$allocator@V?$basic_string@DU?$char_traits@D@std@@V?$allocator@D@2@@std@@@2@@std@@AEAAX_KAEBU_Value_init_tag@1@@Z 0000000140159c00 f   yourgame:headerlibs.obj
 0001:00158f10       ??$_Emplace_reallocate@AEBUtag_t@tinyobj@@@?$vector@Utag_t@tinyobj@@V?$allocator@Utag_t@tinyobj@@@std@@@std@@AEAAPEAUtag_t@tinyobj@@QEAU23@AEBU23@@Z 0000000140159f10 f   yourgame:headerlibs.obj
 0001:00159350       ?_Reallocate_exactly@?$vector@V?$basic_string@DU?$char_traits@D@std@@V?$allocator@D@2@@std@@V?$allocator@V?$basic_string@DU?$char_traits@D@std@@V?$allocator@D@2@@std@@@2@@std@@AEAAX_K@Z 000000014015a350 f   yourgame:headerlibs.obj
 0001:00159540       ?_Xrange@?$vector@Umaterial_t@tinyobj@@V?$allocator@Umaterial_t@tinyobj@@@std@@@std@@CAXXZ 000000014015a540 f   yourgame:headerlibs.obj
 0001:00159570       ??$_Resize_reallocate@U_Value_init_tag@std@@@?$vector@PEBDV?$allocator@PEBD@std@@@std@@AEAAX_KAEBU_Value_init_tag@1@@Z 000000014015a570 f   yourgame:headerlibs.obj
 0001:00159700       ?_Xlength@?$vector@PEBDV?$allocator@PEBD@std@@@std@@CAXXZ 000000014015a700 f   yourgame:headerlibs.obj
 0001:00159730       ?_Xrange@?$vector@PEBDV?$allocator@PEBD@std@@@std@@CAXXZ 000000014015a730 f   yourgame:headerlibs.obj
 0001:001597e0       ?initFile@yourgame_internal_desktop@@YAXXZ 000000014015a7e0 f   yourgame:file.cpp.obj
 0001:0015a490       ?readAssetFile@file@yourgame@@YAHAEBV?$basic_string@DU?$char_traits@D@std@@V?$allocator@D@2@@std@@AEAV?$vector@EV?$allocator@E@std@@@4@@Z 000000014015b490 f   yourgame:file.cpp.obj
 0001:0015a6b0       ?writeAssetFile@file@yourgame@@YAHAEBV?$basic_string@DU?$char_traits@D@std@@V?$allocator@D@2@@std@@PEBX_K@Z 000000014015b6b0 f   yourgame:file.cpp.obj
 0001:0015a8d0       ?ls@file@yourgame@@YA?AV?$vector@V?$basic_string@DU?$char_traits@D@std@@V?$allocator@D@2@@std@@V?$allocator@V?$basic_string@DU?$char_traits@D@std@@V?$allocator@D@2@@std@@@2@@std@@AEBV?$basic_string@DU?$char_traits@D@std@@V?$allocator@D@2@@4@@Z 000000014015b8d0 f   yourgame:file.cpp.obj
 0001:0015d0d0       ??$regex_replace@V?$regex_traits@D@std@@DU?$char_traits@D@2@V?$allocator@D@2@@std@@YA?AV?$basic_string@DU?$char_traits@D@std@@V?$allocator@D@2@@0@AEBV10@AEBV?$basic_regex@DV?$regex_traits@D@std@@@0@PEBDW4match_flag_type@regex_constants@0@@Z 000000014015e0d0 f   yourgame:file.cpp.obj
 0001:0015d2e0       ??$_Regex_replace1@V?$back_insert_iterator@V?$basic_string@DU?$char_traits@D@std@@V?$allocator@D@2@@std@@@std@@PEBDV?$regex_traits@D@2@DU?$char_traits@D@2@V?$allocator@D@2@@std@@YA?AV?$back_insert_iterator@V?$basic_string@DU?$char_traits@D@std@@V?$allocator@D@2@@std@@@0@V10@PEBD1AEBV?$basic_regex@DV?$regex_traits@D@std@@@0@AEBV?$basic_string@DU?$char_traits@D@std@@V?$allocator@D@2@@0@W4match_flag_type@regex_constants@0@@Z 000000014015e2e0 f   yourgame:file.cpp.obj
 0001:0015d610       ??$_Regex_search2@PEBDV?$allocator@V?$sub_match@PEBD@std@@@std@@DV?$regex_traits@D@2@PEBD@std@@YA_NPEBD0PEAV?$match_results@PEBDV?$allocator@V?$sub_match@PEBD@std@@@std@@@0@AEBV?$basic_regex@DV?$regex_traits@D@std@@@0@W4match_flag_type@regex_constants@0@0@Z 000000014015e610 f   yourgame:file.cpp.obj
 0001:0015d880       ??$_Match@V?$allocator@V?$sub_match@PEBD@std@@@std@@@?$_Matcher@PEBDDV?$regex_traits@D@std@@PEBD@std@@QEAA_NPEAV?$match_results@PEBDV?$allocator@V?$sub_match@PEBD@std@@@std@@@1@_N@Z 000000014015e880 f   yourgame:file.cpp.obj
 0001:0015dc40       ?_Skip@?$_Matcher@PEBDDV?$regex_traits@D@std@@PEBD@std@@QEAAPEBDPEBD0PEAV_Node_base@2@@Z 000000014015ec40 f   yourgame:file.cpp.obj
 0001:0015dff0       ??1?$_Matcher@PEBDDV?$regex_traits@D@std@@PEBD@std@@QEAA@XZ 000000014015eff0 f   yourgame:file.cpp.obj
 0001:0015e1a0       ?_Match_pat@?$_Matcher@PEBDDV?$regex_traits@D@std@@PEBD@std@@AEAA_NPEAV_Node_base@2@@Z 000000014015f1a0 f   yourgame:file.cpp.obj
 0001:0015ebc0       ??$_Resize_reallocate@U_Value_init_tag@std@@@?$vector@V?$sub_match@PEBD@std@@V?$allocator@V?$sub_match@PEBD@std@@@2@@std@@AEAAX_KAEBU_Value_init_tag@1@@Z 000000014015fbc0 f   yourgame:file.cpp.obj
 0001:0015ee00       ?_Xlength@?$vector@V?$sub_match@PEBD@std@@V?$allocator@V?$sub_match@PEBD@std@@@2@@std@@CAXXZ 000000014015fe00 f   yourgame:file.cpp.obj
 0001:0015ee30       ??$_Resize_reallocate@U_Value_init_tag@std@@@?$vector@U_Grp_t@?$_Tgt_state_t@PEBD@std@@V?$allocator@U_Grp_t@?$_Tgt_state_t@PEBD@std@@@3@@std@@AEAAX_KAEBU_Value_init_tag@1@@Z 000000014015fe30 f   yourgame:file.cpp.obj
 0001:0015f020       ?_Xlength@?$vector@U_Grp_t@?$_Tgt_state_t@PEBD@std@@V?$allocator@U_Grp_t@?$_Tgt_state_t@PEBD@std@@@3@@std@@CAXXZ 0000000140160020 f   yourgame:file.cpp.obj
 0001:0015f050       ??$_Compare@PEBDPEBDV?$regex_traits@D@std@@@std@@YAPEBDPEBD000AEBV?$regex_traits@D@0@W4syntax_option_type@regex_constants@0@@Z 0000000140160050 f   yourgame:file.cpp.obj
 0001:0015f1b0       ?_Do_class@?$_Matcher@PEBDDV?$regex_traits@D@std@@PEBD@std@@AEAA_NPEAV_Node_base@2@@Z 00000001401601b0 f   yourgame:file.cpp.obj
 0001:0015f410       ?_Do_if@?$_Matcher@PEBDDV?$regex_traits@D@std@@PEBD@std@@AEAA_NPEAV_Node_if@2@@Z 0000000140160410 f   yourgame:file.cpp.obj
 0001:0015fbf0       ?_Do_rep@?$_Matcher@PEBDDV?$regex_traits@D@std@@PEBD@std@@AEAA_NPEAV_Node_rep@2@_NH@Z 0000000140160bf0 f   yourgame:file.cpp.obj
 0001:001603e0       ??4?$_Tgt_state_t@PEBD@std@@QEAAAEAV01@AEBV01@@Z 00000001401613e0 f   yourgame:file.cpp.obj
 0001:001605a0       ??0?$_Tgt_state_t@PEBD@std@@QEAA@AEBV01@@Z 00000001401615a0 f   yourgame:file.cpp.obj
 0001:00160740       ?_Do_rep0@?$_Matcher@PEBDDV?$regex_traits@D@std@@PEBD@std@@AEAA_NPEAV_Node_rep@2@_N@Z 0000000140161740 f   yourgame:file.cpp.obj
 0001:00160d20       ?_Clear_and_reserve_geometric@?$vector@U_Grp_t@?$_Tgt_state_t@PEBD@std@@V?$allocator@U_Grp_t@?$_Tgt_state_t@PEBD@std@@@3@@std@@AEAAX_K@Z 0000000140161d20 f   yourgame:file.cpp.obj
 0001:00160e60       ??$_Format_sed@PEBDV?$allocator@V?$sub_match@PEBD@std@@@std@@PEBDV?$back_insert_iterator@V?$basic_string@DU?$char_traits@D@std@@V?$allocator@D@2@@std@@@2@@std@@YA?AV?$back_insert_iterator@V?$basic_string@DU?$char_traits@D@std@@V?$allocator@D@2@@std@@@0@AEBV?$match_results@PEBDV?$allocator@V?$sub_match@PEBD@std@@@std@@@0@V10@PEBD2W4match_flag_type@regex_constants@0@@Z 0000000140161e60 f   yourgame:file.cpp.obj
 0001:001610b0       ??$_Format_default@PEBDV?$allocator@V?$sub_match@PEBD@std@@@std@@PEBDV?$back_insert_iterator@V?$basic_string@DU?$char_traits@D@std@@V?$allocator@D@2@@std@@@2@@std@@YA?AV?$back_insert_iterator@V?$basic_string@DU?$char_traits@D@std@@V?$allocator@D@2@@std@@@0@AEBV?$match_results@PEBDV?$allocator@V?$sub_match@PEBD@std@@@std@@@0@V10@PEBD2W4match_flag_type@regex_constants@0@@Z 00000001401620b0 f   yourgame:file.cpp.obj
 0001:001615e0       ??$_Sort_unchecked@PEAV?$basic_string@DU?$char_traits@D@std@@V?$allocator@D@2@@std@@U?$less@X@2@@std@@YAXPEAV?$basic_string@DU?$char_traits@D@std@@V?$allocator@D@2@@0@0_JU?$less@X@0@@Z 00000001401625e0 f   yourgame:file.cpp.obj
 0001:001618e0       ??$_Insertion_sort_unchecked@PEAV?$basic_string@DU?$char_traits@D@std@@V?$allocator@D@2@@std@@U?$less@X@2@@std@@YAPEAV?$basic_string@DU?$char_traits@D@std@@V?$allocator@D@2@@0@QEAV10@0U?$less@X@0@@Z 00000001401628e0 f   yourgame:file.cpp.obj
 0001:00161d20       ??$_Partition_by_median_guess_unchecked@PEAV?$basic_string@DU?$char_traits@D@std@@V?$allocator@D@2@@std@@U?$less@X@2@@std@@YA?AU?$pair@PEAV?$basic_string@DU?$char_traits@D@std@@V?$allocator@D@2@@std@@PEAV12@@0@PEAV?$basic_string@DU?$char_traits@D@std@@V?$allocator@D@2@@0@0U?$less@X@0@@Z 0000000140162d20 f   yourgame:file.cpp.obj
 0001:001623d0       ??$_Pop_heap_hole_by_index@PEAV?$basic_string@DU?$char_traits@D@std@@V?$allocator@D@2@@std@@V12@U?$less@X@2@@std@@YAXPEAV?$basic_string@DU?$char_traits@D@std@@V?$allocator@D@2@@0@_J1$$QEAV10@U?$less@X@0@@Z 00000001401633d0 f   yourgame:file.cpp.obj
 0001:00162650       ??$_Push_heap_by_index@PEAV?$basic_string@DU?$char_traits@D@std@@V?$allocator@D@2@@std@@V12@U?$less@X@2@@std@@YAXPEAV?$basic_string@DU?$char_traits@D@std@@V?$allocator@D@2@@0@_J1$$QEAV10@U?$less@X@0@@Z 0000000140163650 f   yourgame:file.cpp.obj
 0001:00162840       ??$_Med3_unchecked@PEAV?$basic_string@DU?$char_traits@D@std@@V?$allocator@D@2@@std@@U?$less@X@2@@std@@YAXPEAV?$basic_string@DU?$char_traits@D@std@@V?$allocator@D@2@@0@00U?$less@X@0@@Z 0000000140163840 f   yourgame:file.cpp.obj
 0001:00162a80       ?convertToString@LevelHelper@el@@SAPEBDW4Level@2@@Z 0000000140163a80 f   yourgame:easylogging++.obj
 0001:00162b40       ?convertFromString@LevelHelper@el@@SA?AW4Level@2@PEBD@Z 0000000140163b40 f   yourgame:easylogging++.obj
 0001:00162bf0       ?cStringCaseEq@Str@utils@base@el@@SA_NPEBD0@Z 0000000140163bf0 f   yourgame:easylogging++.obj
 0001:00162c60       ?forEachLevel@LevelHelper@el@@SAXPEAIAEBV?$function@$$A6A_NXZ@std@@@Z 0000000140163c60 f   yourgame:easylogging++.obj
 0001:00162cc0       ?convertToString@ConfigurationTypeHelper@el@@SAPEBDW4ConfigurationType@2@@Z 0000000140163cc0 f   yourgame:easylogging++.obj
 0001:00162d90       ?convertFromString@ConfigurationTypeHelper@el@@SA?AW4ConfigurationType@2@PEBD@Z 0000000140163d90 f   yourgame:easylogging++.obj
 0001:00162e40       ??0Configuration@el@@QEAA@AEBV01@@Z 0000000140163e40 f   yourgame:easylogging++.obj
 0001:00162f70       ??4Configuration@el@@QEAAAEAV01@AEBV01@@Z 0000000140163f70 f   yourgame:easylogging++.obj
 0001:00163000       ??0Configuration@el@@QEAA@W4Level@1@W4ConfigurationType@1@AEBV?$basic_string@DU?$char_traits@D@std@@V?$allocator@D@2@@std@@@Z 0000000140164000 f   yourgame:easylogging++.obj
 0001:00163120       ?log@Configuration@el@@UEBAXAEAV?$basic_ostream@DU?$char_traits@D@std@@@std@@@Z 0000000140164120 f   yourgame:easylogging++.obj
 0001:00163300       ??0Predicate@Configuration@el@@QEAA@W4Level@2@W4ConfigurationType@2@@Z 0000000140164300 f   yourgame:easylogging++.obj
 0001:00163320       ??RPredicate@Configuration@el@@QEBA_NPEBV12@@Z 0000000140164320 f   yourgame:easylogging++.obj
 0001:00163350       ??0Configurations@el@@QEAA@XZ 0000000140164350 f   yourgame:easylogging++.obj
 0001:00163390       ??0Configurations@el@@QEAA@AEBV?$basic_string@DU?$char_traits@D@std@@V?$allocator@D@2@@std@@_NPEAV01@@Z 0000000140164390 f   yourgame:easylogging++.obj
 0001:001634f0       ?parseFromFile@Configurations@el@@QEAA_NAEBV?$basic_string@DU?$char_traits@D@std@@V?$allocator@D@2@@std@@PEAV12@@Z 00000001401644f0 f   yourgame:easylogging++.obj
 0001:00163a50       ?setRemainingToDefault@Configurations@el@@QEAAXXZ 0000000140164a50 f   yourgame:easylogging++.obj
 0001:00164830       ?pathExists@File@utils@base@el@@SA_NPEBD_N@Z 0000000140165830 f   yourgame:easylogging++.obj
 0001:00164870       ??0?$basic_stringstream@DU?$char_traits@D@std@@V?$allocator@D@2@@std@@QEAA@XZ 0000000140165870 f   yourgame:easylogging++.obj
 0001:001649e0       ?str@?$basic_stringstream@DU?$char_traits@D@std@@V?$allocator@D@2@@std@@QEBA?AV?$basic_string@DU?$char_traits@D@std@@V?$allocator@D@2@@2@XZ 00000001401659e0 f   yourgame:easylogging++.obj
 0001:00164ab0       ??$endl@DU?$char_traits@D@std@@@std@@YAAEAV?$basic_ostream@DU?$char_traits@D@std@@@0@AEAV10@@Z 0000000140165ab0 f   yourgame:easylogging++.obj
 0001:00164b10       ??_D?$basic_stringstream@DU?$char_traits@D@std@@V?$allocator@D@2@@std@@QEAAXXZ 0000000140165b10 f   yourgame:easylogging++.obj
 0001:00164c10       ?parseFromFile@Parser@Configurations@el@@SA_NAEBV?$basic_string@DU?$char_traits@D@std@@V?$allocator@D@2@@std@@PEAV23@1@Z 0000000140165c10 f   yourgame:easylogging++.obj
 0001:00165aa0       ?parseFromText@Configurations@el@@QEAA_NAEBV?$basic_string@DU?$char_traits@D@std@@V?$allocator@D@2@@std@@PEAV12@@Z 0000000140166aa0 f   yourgame:easylogging++.obj
 0001:00165ae0       ?parseFromText@Parser@Configurations@el@@SA_NAEBV?$basic_string@DU?$char_traits@D@std@@V?$allocator@D@2@@std@@PEAV23@1@Z 0000000140166ae0 f   yourgame:easylogging++.obj
 0001:001664c0       ?setFromBase@Configurations@el@@QEAAXPEAV12@@Z 00000001401674c0 f   yourgame:easylogging++.obj
 0001:00166540       ?set@Configurations@el@@QEAAXPEAVConfiguration@2@@Z 0000000140167540 f   yourgame:easylogging++.obj
 0001:00166580       ?hasConfiguration@Configurations@el@@QEAA_NW4ConfigurationType@2@@Z 0000000140167580 f   yourgame:easylogging++.obj
 0001:00166670       ?hasConfiguration@Configurations@el@@QEAA_NW4Level@2@W4ConfigurationType@2@@Z 0000000140167670 f   yourgame:easylogging++.obj
 0001:00166700       ?set@Configurations@el@@QEAAXW4Level@2@W4ConfigurationType@2@AEBV?$basic_string@DU?$char_traits@D@std@@V?$allocator@D@2@@std@@@Z 0000000140167700 f   yourgame:easylogging++.obj
 0001:00166810       ?unsafeSet@Configurations@el@@AEAAXW4Level@2@W4ConfigurationType@2@AEBV?$basic_string@DU?$char_traits@D@std@@V?$allocator@D@2@@std@@@Z 0000000140167810 f   yourgame:easylogging++.obj
 0001:00166a10       ?unsafeSetGlobally@Configurations@el@@AEAAXW4ConfigurationType@2@AEBV?$basic_string@DU?$char_traits@D@std@@V?$allocator@D@2@@std@@_N@Z 0000000140167a10 f   yourgame:easylogging++.obj
 0001:00166b10       ?setToDefault@Configurations@el@@QEAAXXZ 0000000140167b10 f   yourgame:easylogging++.obj
 0001:00167610       ?setGlobally@Configurations@el@@AEAAXW4ConfigurationType@2@AEBV?$basic_string@DU?$char_traits@D@std@@V?$allocator@D@2@@std@@_N@Z 0000000140168610 f   yourgame:easylogging++.obj
 0001:001677d0       ?unsafeSetIfNotExist@Configurations@el@@AEAAXW4Level@2@W4ConfigurationType@2@AEBV?$basic_string@DU?$char_traits@D@std@@V?$allocator@D@2@@std@@@Z 00000001401687d0 f   yourgame:easylogging++.obj
 0001:00167870       ?parseLine@Parser@Configurations@el@@CA_NPEAV?$basic_string@DU?$char_traits@D@std@@V?$allocator@D@2@@std@@00PEAW4Level@3@PEAV23@@Z 0000000140168870 f   yourgame:easylogging++.obj
 0001:00169080       ??0?$basic_stringstream@DU?$char_traits@D@std@@V?$allocator@D@2@@std@@QEAA@AEBV?$basic_string@DU?$char_traits@D@std@@V?$allocator@D@2@@1@H@Z 000000014016a080 f   yourgame:easylogging++.obj
 0001:00169240       ?ignoreComments@Parser@Configurations@el@@CAXPEAV?$basic_string@DU?$char_traits@D@std@@V?$allocator@D@2@@std@@@Z 000000014016a240 f   yourgame:easylogging++.obj
 0001:001696b0       ?substr@?$basic_string@DU?$char_traits@D@std@@V?$allocator@D@2@@std@@QEBA?AV12@_K0@Z 000000014016a6b0 f   yourgame:easylogging++.obj
 0001:001697f0       ??4?$basic_string@DU?$char_traits@D@std@@V?$allocator@D@2@@std@@QEAAAEAV01@$$QEAV01@@Z 000000014016a7f0 f   yourgame:easylogging++.obj
 0001:001698a0       ?isLevel@Parser@Configurations@el@@CA_NAEBV?$basic_string@DU?$char_traits@D@std@@V?$allocator@D@2@@std@@@Z 000000014016a8a0 f   yourgame:easylogging++.obj
 0001:001698d0       ?startsWith@Str@utils@base@el@@SA_NAEBV?$basic_string@DU?$char_traits@D@std@@V?$allocator@D@2@@std@@0@Z 000000014016a8d0 f   yourgame:easylogging++.obj
 0001:00169920       ?isComment@Parser@Configurations@el@@CA_NAEBV?$basic_string@DU?$char_traits@D@std@@V?$allocator@D@2@@std@@@Z 000000014016a920 f   yourgame:easylogging++.obj
 0001:001699a0       ?trim@Str@utils@base@el@@SAAEAV?$basic_string@DU?$char_traits@D@std@@V?$allocator@D@2@@std@@AEAV56@@Z 000000014016a9a0 f   yourgame:easylogging++.obj
 0001:00169ae0       ?toUpper@Str@utils@base@el@@SAAEAV?$basic_string@DU?$char_traits@D@std@@V?$allocator@D@2@@std@@AEAV56@@Z 000000014016aae0 f   yourgame:easylogging++.obj
 0001:00169b50       ?convertToColoredOutput@LogBuilder@el@@QEAAXPEAV?$basic_string@DU?$char_traits@D@std@@V?$allocator@D@2@@std@@W4Level@2@@Z 000000014016ab50 f   yourgame:easylogging++.obj
 0001:0016a700       ??0Logger@el@@QEAA@AEBV?$basic_string@DU?$char_traits@D@std@@V?$allocator@D@2@@std@@PEAV?$unordered_map@V?$basic_string@DU?$char_traits@D@std@@V?$allocator@D@2@@std@@V?$shared_ptr@V?$basic_fstream@DU?$char_traits@D@std@@@std@@@2@U?$hash@V?$basic_string@DU?$char_traits@D@std@@V?$allocator@D@2@@std@@@2@U?$equal_to@V?$basic_string@DU?$char_traits@D@std@@V?$allocator@D@2@@std@@@2@V?$allocator@U?$pair@$$CBV?$basic_string@DU?$char_traits@D@std@@V?$allocator@D@2@@std@@V?$shared_ptr@V?$basic_fstream@DU?$char_traits@D@std@@@std@@@2@@std@@@2@@3@@Z 000000014016b700 f   yourgame:easylogging++.obj
 0001:0016aaf0       ?initUnflushedCount@Logger@el@@AEAAXXZ 000000014016baf0 f   yourgame:easylogging++.obj
 0001:0016aca0       ??0Logger@el@@QEAA@AEBV?$basic_string@DU?$char_traits@D@std@@V?$allocator@D@2@@std@@AEBVConfigurations@1@PEAV?$unordered_map@V?$basic_string@DU?$char_traits@D@std@@V?$allocator@D@2@@std@@V?$shared_ptr@V?$basic_fstream@DU?$char_traits@D@std@@@std@@@2@U?$hash@V?$basic_string@DU?$char_traits@D@std@@V?$allocator@D@2@@std@@@2@U?$equal_to@V?$basic_string@DU?$char_traits@D@std@@V?$allocator@D@2@@std@@@2@V?$allocator@U?$pair@$$CBV?$basic_string@DU?$char_traits@D@std@@V?$allocator@D@2@@std@@V?$shared_ptr@V?$basic_fstream@DU?$char_traits@D@std@@@std@@@2@@std@@@2@@3@@Z 000000014016bca0 f   yourgame:easylogging++.obj
 0001:0016b0a0       ?configure@Logger@el@@QEAAXAEBVConfigurations@2@@Z 000000014016c0a0 f   yourgame:easylogging++.obj
 0001:0016b3f0       ??0Logger@el@@QEAA@AEBV01@@Z 000000014016c3f0 f   yourgame:easylogging++.obj
 0001:0016b9a0       ??4Logger@el@@QEAAAEAV01@AEBV01@@Z 000000014016c9a0 f   yourgame:easylogging++.obj
 0001:0016bc50       ?flush@Logger@el@@QEAAXXZ  000000014016cc50 f   yourgame:easylogging++.obj
 0001:0016bd20       ??0TypedConfigurations@base@el@@QEAA@PEAVConfigurations@2@PEAV?$unordered_map@V?$basic_string@DU?$char_traits@D@std@@V?$allocator@D@2@@std@@V?$shared_ptr@V?$basic_fstream@DU?$char_traits@D@std@@@std@@@2@U?$hash@V?$basic_string@DU?$char_traits@D@std@@V?$allocator@D@2@@std@@@2@U?$equal_to@V?$basic_string@DU?$char_traits@D@std@@V?$allocator@D@2@@std@@@2@V?$allocator@U?$pair@$$CBV?$basic_string@DU?$char_traits@D@std@@V?$allocator@D@2@@std@@V?$shared_ptr@V?$basic_fstream@DU?$char_traits@D@std@@@std@@@2@@std@@@2@@std@@@Z 000000014016cd20 f   yourgame:easylogging++.obj
 0001:0016c4d0       ?resolveLoggerFormatSpec@Logger@el@@AEBAXXZ 000000014016d4d0 f   yourgame:easylogging++.obj
 0001:0016c5a0       ?reconfigure@Logger@el@@QEAAXXZ 000000014016d5a0 f   yourgame:easylogging++.obj
 0001:0016c5d0       ?isValidId@Logger@el@@SA_NAEBV?$basic_string@DU?$char_traits@D@std@@V?$allocator@D@2@@std@@@Z 000000014016d5d0 f   yourgame:easylogging++.obj
 0001:0016c640       ?contains@Str@utils@base@el@@SA_NPEBDD@Z 000000014016d640 f   yourgame:easylogging++.obj
 0001:0016c670       ?flush@Logger@el@@QEAAXW4Level@2@PEAV?$basic_fstream@DU?$char_traits@D@std@@@std@@@Z 000000014016d670 f   yourgame:easylogging++.obj
 0001:0016c810       ?toFile@TypedConfigurations@base@el@@QEAA_NW4Level@3@@Z 000000014016d810 f   yourgame:easylogging++.obj
 0001:0016c860       ?fileStream@TypedConfigurations@base@el@@QEAAPEAV?$basic_fstream@DU?$char_traits@D@std@@@std@@W4Level@3@@Z 000000014016d860 f   yourgame:easylogging++.obj
 0001:0016c8b0       ?newFileStream@File@utils@base@el@@SAPEAV?$basic_fstream@DU?$char_traits@D@std@@@std@@AEBV?$basic_string@DU?$char_traits@D@std@@V?$allocator@D@2@@6@@Z 000000014016d8b0 f   yourgame:easylogging++.obj
 0001:0016c950       ??0?$basic_fstream@DU?$char_traits@D@std@@@std@@QEAA@PEBDHH@Z 000000014016d950 f   yourgame:easylogging++.obj
 0001:0016cb80       ?getSizeOfFile@File@utils@base@el@@SA_KPEAV?$basic_fstream@DU?$char_traits@D@std@@@std@@@Z 000000014016db80 f   yourgame:easylogging++.obj
 0001:0016cbf0       ?createPath@File@utils@base@el@@SA_NAEBV?$basic_string@DU?$char_traits@D@std@@V?$allocator@D@2@@std@@@Z 000000014016dbf0 f   yourgame:easylogging++.obj
 0001:0016ce90       ?extractPathFromFilename@File@utils@base@el@@SA?AV?$basic_string@DU?$char_traits@D@std@@V?$allocator@D@2@@std@@AEBV56@PEBD@Z 000000014016de90 f   yourgame:easylogging++.obj
 0001:0016d410       ??$?8DU?$char_traits@D@std@@V?$allocator@D@1@@std@@YA_NAEBV?$basic_string@DU?$char_traits@D@std@@V?$allocator@D@2@@0@QEBD@Z 000000014016e410 f   yourgame:easylogging++.obj
 0001:0016d470       ?buildStrippedFilename@File@utils@base@el@@SAXPEBDQEAD_K@Z 000000014016e470 f   yourgame:easylogging++.obj
 0001:0016d4f0       ?buildBaseFilename@File@utils@base@el@@SAXAEBV?$basic_string@DU?$char_traits@D@std@@V?$allocator@D@2@@std@@QEAD_KPEBD@Z 000000014016e4f0 f   yourgame:easylogging++.obj
 0001:0016d720       ?wildCardMatch@Str@utils@base@el@@SA_NPEBD0@Z 000000014016e720 f   yourgame:easylogging++.obj
 0001:0016d7c0       ?ltrim@Str@utils@base@el@@SAAEAV?$basic_string@DU?$char_traits@D@std@@V?$allocator@D@2@@std@@AEAV56@@Z 000000014016e7c0 f   yourgame:easylogging++.obj
 0001:0016d880       ?rtrim@Str@utils@base@el@@SAAEAV?$basic_string@DU?$char_traits@D@std@@V?$allocator@D@2@@std@@AEAV56@@Z 000000014016e880 f   yourgame:easylogging++.obj
 0001:0016d950       ?endsWith@Str@utils@base@el@@SA_NAEBV?$basic_string@DU?$char_traits@D@std@@V?$allocator@D@2@@std@@0@Z 000000014016e950 f   yourgame:easylogging++.obj
 0001:0016d9a0       ?replaceAll@Str@utils@base@el@@SAAEAV?$basic_string@DU?$char_traits@D@std@@V?$allocator@D@2@@std@@AEAV56@DD@Z 000000014016e9a0 f   yourgame:easylogging++.obj
 0001:0016dd60       ?replaceAll@Str@utils@base@el@@SAAEAV?$basic_string@DU?$char_traits@D@std@@V?$allocator@D@2@@std@@AEAV56@AEBV56@1@Z 000000014016ed60 f   yourgame:easylogging++.obj
 0001:0016e010       ?replaceFirstWithEscape@Str@utils@base@el@@SAXAEAV?$basic_string@DU?$char_traits@D@std@@V?$allocator@D@2@@std@@AEBV56@1@Z 000000014016f010 f   yourgame:easylogging++.obj
 0001:0016e360       ?cStringEq@Str@utils@base@el@@SA_NPEBD0@Z 000000014016f360 f   yourgame:easylogging++.obj
 0001:0016e3a0       ?convertAndAddToBuff@Str@utils@base@el@@SAPEAD_KHPEADPEBD_N@Z 000000014016f3a0 f   yourgame:easylogging++.obj
 0001:0016e550       ?addToBuff@Str@utils@base@el@@SAPEADPEBDPEAD0@Z 000000014016f550 f   yourgame:easylogging++.obj
 0001:0016e5a0       ?clearBuff@Str@utils@base@el@@SAPEADQEAD_K@Z 000000014016f5a0 f   yourgame:easylogging++.obj
 0001:0016e5e0       ?wcharPtrToCharPtr@Str@utils@base@el@@SAPEADPEB_W@Z 000000014016f5e0 f   yourgame:easylogging++.obj
 0001:0016e690       ?getWindowsEnvironmentVariable@OS@utils@base@el@@SAPEBDPEBD@Z 000000014016f690 f   yourgame:easylogging++.obj
 0001:0016e6d0       ?getBashOutput@OS@utils@base@el@@SA?BV?$basic_string@DU?$char_traits@D@std@@V?$allocator@D@2@@std@@PEBD@Z 000000014016f6d0 f   yourgame:easylogging++.obj
 0001:0016e700       ?getEnvironmentVariable@OS@utils@base@el@@SA?AV?$basic_string@DU?$char_traits@D@std@@V?$allocator@D@2@@std@@PEBD00@Z 000000014016f700 f   yourgame:easylogging++.obj
 0001:0016e930       ?currentUser@OS@utils@base@el@@SA?AV?$basic_string@DU?$char_traits@D@std@@V?$allocator@D@2@@std@@XZ 000000014016f930 f   yourgame:easylogging++.obj
 0001:0016e970       ?currentHost@OS@utils@base@el@@SA?AV?$basic_string@DU?$char_traits@D@std@@V?$allocator@D@2@@std@@XZ 000000014016f970 f   yourgame:easylogging++.obj
 0001:0016e9b0       ?termSupportsColor@OS@utils@base@el@@SA_NXZ 000000014016f9b0 f   yourgame:easylogging++.obj
 0001:0016ebd0       ?gettimeofday@DateTime@utils@base@el@@SAXPEAUtimeval@@@Z 000000014016fbd0 f   yourgame:easylogging++.obj
 0001:0016ecb0       ?getDateTime@DateTime@utils@base@el@@SA?AV?$basic_string@DU?$char_traits@D@std@@V?$allocator@D@2@@std@@PEBDPEBVSubsecondPrecision@34@@Z 000000014016fcb0 f   yourgame:easylogging++.obj
 0001:0016edb0       ?timevalToString@DateTime@utils@base@el@@SA?AV?$basic_string@DU?$char_traits@D@std@@V?$allocator@D@2@@std@@Utimeval@@PEBDPEBVSubsecondPrecision@34@@Z 000000014016fdb0 f   yourgame:easylogging++.obj
 0001:0016ef90       ?buildTimeInfo@DateTime@utils@base@el@@SAPEAUtm@@PEAUtimeval@@PEAU5@@Z 000000014016ff90 f   yourgame:easylogging++.obj
 0001:0016f000       ?parseFormat@DateTime@utils@base@el@@CAPEADPEAD_KPEBDPEBUtm@@1PEBVSubsecondPrecision@34@@Z 0000000140170000 f   yourgame:easylogging++.obj
 0001:0016ff10       ?formatTime@DateTime@utils@base@el@@SA?AV?$basic_string@DU?$char_traits@D@std@@V?$allocator@D@2@@std@@_KW4TimestampUnit@34@@Z 0000000140170f10 f   yourgame:easylogging++.obj
 0001:00170420       ?getTimeDifference@DateTime@utils@base@el@@SA_KAEBUtimeval@@0W4TimestampUnit@34@@Z 0000000140171420 f   yourgame:easylogging++.obj
 0001:001704a0       ?setArgs@CommandLineArgs@utils@base@el@@QEAAXHPEAPEAD@Z 00000001401714a0 f   yourgame:easylogging++.obj
 0001:00170ff0       ?hasParamWithValue@CommandLineArgs@utils@base@el@@QEBA_NPEBD@Z 0000000140171ff0 f   yourgame:easylogging++.obj
 0001:001712e0       ?hasParam@CommandLineArgs@utils@base@el@@QEBA_NPEBD@Z 00000001401722e0 f   yourgame:easylogging++.obj
 0001:00171500       ?getParamValue@CommandLineArgs@utils@base@el@@QEBAPEBDPEBD@Z 0000000140172500 f   yourgame:easylogging++.obj
 0001:00171830       ?empty@CommandLineArgs@utils@base@el@@QEBA_NXZ 0000000140172830 f   yourgame:easylogging++.obj
 0001:00171860       ?size@CommandLineArgs@utils@base@el@@QEBA_KXZ 0000000140172860 f   yourgame:easylogging++.obj
 0001:00171880       ??6utils@base@el@@YAAEAV?$basic_ostream@DU?$char_traits@D@std@@@std@@AEAV34@AEBVCommandLineArgs@012@@Z 0000000140172880 f   yourgame:easylogging++.obj
 0001:00171940       ?init@SubsecondPrecision@base@el@@AEAAXH@Z 0000000140172940 f   yourgame:easylogging++.obj
 0001:00171990       ??0LogFormat@base@el@@QEAA@XZ 0000000140172990 f   yourgame:easylogging++.obj
 0001:00171a60       ??0LogFormat@base@el@@QEAA@W4Level@2@AEBV?$basic_string@DU?$char_traits@D@std@@V?$allocator@D@2@@std@@@Z 0000000140172a60 f   yourgame:easylogging++.obj
 0001:00171c10       ?parseFromFormat@LogFormat@base@el@@QEAAXAEBV?$basic_string@DU?$char_traits@D@std@@V?$allocator@D@2@@std@@@Z 0000000140172c10 f   yourgame:easylogging++.obj
 0001:001720b0       ??0LogFormat@base@el@@QEAA@AEBV012@@Z 00000001401730b0 f   yourgame:easylogging++.obj
 0001:00172560       ??0LogFormat@base@el@@QEAA@$$QEAV012@@Z 0000000140173560 f   yourgame:easylogging++.obj
 0001:001728d0       ??4LogFormat@base@el@@QEAAAEAV012@AEBV012@@Z 00000001401738d0 f   yourgame:easylogging++.obj
 0001:00172a80       ??8LogFormat@base@el@@QEAA_NAEBV012@@Z 0000000140173a80 f   yourgame:easylogging++.obj
 0001:00172d60       ?updateDateFormat@LogFormat@base@el@@MEAAX_KAEAV?$basic_string@DU?$char_traits@D@std@@V?$allocator@D@2@@std@@@Z 0000000140173d60 f   yourgame:easylogging++.obj
 0001:00173350       ?updateFormatSpec@LogFormat@base@el@@MEAAXXZ 0000000140174350 f   yourgame:easylogging++.obj
 0001:00174240       ?build@TypedConfigurations@base@el@@AEAAXPEAVConfigurations@3@@Z 0000000140175240 f   yourgame:easylogging++.obj
 0001:001751a0       ??0TypedConfigurations@base@el@@QEAA@AEBV012@@Z 00000001401761a0 f   yourgame:easylogging++.obj
 0001:00175950       ?enabled@TypedConfigurations@base@el@@QEAA_NW4Level@3@@Z 0000000140176950 f   yourgame:easylogging++.obj
 0001:001759a0       ?filename@TypedConfigurations@base@el@@QEAAAEBV?$basic_string@DU?$char_traits@D@std@@V?$allocator@D@2@@std@@W4Level@3@@Z 00000001401769a0 f   yourgame:easylogging++.obj
 0001:001759f0       ?toStandardOutput@TypedConfigurations@base@el@@QEAA_NW4Level@3@@Z 00000001401769f0 f   yourgame:easylogging++.obj
 0001:00175a40       ?logFormat@TypedConfigurations@base@el@@QEAAAEBVLogFormat@23@W4Level@3@@Z 0000000140176a40 f   yourgame:easylogging++.obj
 0001:00175a90       ?subsecondPrecision@TypedConfigurations@base@el@@QEAAAEBVSubsecondPrecision@23@W4Level@3@@Z 0000000140176a90 f   yourgame:easylogging++.obj
 0001:00175ae0       ?millisecondsWidth@TypedConfigurations@base@el@@QEAAAEBVSubsecondPrecision@23@W4Level@3@@Z 0000000140176ae0 f   yourgame:easylogging++.obj
 0001:00175b30       ?performanceTracking@TypedConfigurations@base@el@@QEAA_NW4Level@3@@Z 0000000140176b30 f   yourgame:easylogging++.obj
 0001:00175b80       ?maxLogFileSize@TypedConfigurations@base@el@@QEAA_KW4Level@3@@Z 0000000140176b80 f   yourgame:easylogging++.obj
 0001:00175bd0       ?logFlushThreshold@TypedConfigurations@base@el@@QEAA_KW4Level@3@@Z 0000000140176bd0 f   yourgame:easylogging++.obj
 0001:00175c20       ??$setValue@_N@TypedConfigurations@base@el@@AEAAXW4Level@2@AEB_NPEAV?$unordered_map@W4Level@el@@_NU?$hash@W4Level@el@@@std@@U?$equal_to@W4Level@el@@@4@V?$allocator@U?$pair@$$CBW4Level@el@@_N@std@@@4@@std@@_N@Z 0000000140176c20 f   yourgame:easylogging++.obj
 0001:00175f10       ??$setValue@VLogFormat@base@el@@@TypedConfigurations@base@el@@AEAAXW4Level@2@AEBVLogFormat@12@PEAV?$unordered_map@W4Level@el@@VLogFormat@base@2@U?$hash@W4Level@el@@@std@@U?$equal_to@W4Level@el@@@6@V?$allocator@U?$pair@$$CBW4Level@el@@VLogFormat@base@2@@std@@@6@@std@@_N@Z 0000000140176f10 f   yourgame:easylogging++.obj
 0001:00176170       ??1LogFormat@base@el@@UEAA@XZ 0000000140177170 f   yourgame:easylogging++.obj
 0001:00176390       ??$setValue@VSubsecondPrecision@base@el@@@TypedConfigurations@base@el@@AEAAXW4Level@2@AEBVSubsecondPrecision@12@PEAV?$unordered_map@W4Level@el@@VSubsecondPrecision@base@2@U?$hash@W4Level@el@@@std@@U?$equal_to@W4Level@el@@@6@V?$allocator@U?$pair@$$CBW4Level@el@@VSubsecondPrecision@base@2@@std@@@6@@std@@_N@Z 0000000140177390 f   yourgame:easylogging++.obj
 0001:00176570       ?getULong@TypedConfigurations@base@el@@AEAAKV?$basic_string@DU?$char_traits@D@std@@V?$allocator@D@2@@std@@@Z 0000000140177570 f   yourgame:easylogging++.obj
 0001:00176b90       ??$setValue@_K@TypedConfigurations@base@el@@AEAAXW4Level@2@AEB_KPEAV?$unordered_map@W4Level@el@@_KU?$hash@W4Level@el@@@std@@U?$equal_to@W4Level@el@@@4@V?$allocator@U?$pair@$$CBW4Level@el@@_K@std@@@4@@std@@_N@Z 0000000140177b90 f   yourgame:easylogging++.obj
 0001:00176d70       ?insertFile@TypedConfigurations@base@el@@AEAAXW4Level@3@AEBV?$basic_string@DU?$char_traits@D@std@@V?$allocator@D@2@@std@@@Z 0000000140177d70 f   yourgame:easylogging++.obj
 0001:001778d0       ?unsafeValidateFileRolling@TypedConfigurations@base@el@@AEAA_NW4Level@3@AEBV?$function@$$A6AXPEBD_K@Z@std@@@Z 00000001401788d0 f   yourgame:easylogging++.obj
 0001:00177bd0       ?resolveFilename@TypedConfigurations@base@el@@AEAA?AV?$basic_string@DU?$char_traits@D@std@@V?$allocator@D@2@@std@@AEBV45@@Z 0000000140178bd0 f   yourgame:easylogging++.obj
 0001:00178950       ??$unsafeGetConfigByRef@V?$shared_ptr@V?$basic_fstream@DU?$char_traits@D@std@@@std@@@std@@@TypedConfigurations@base@el@@AEAAAEAV?$shared_ptr@V?$basic_fstream@DU?$char_traits@D@std@@@std@@@std@@W4Level@2@PEAV?$unordered_map@W4Level@el@@V?$shared_ptr@V?$basic_fstream@DU?$char_traits@D@std@@@std@@@std@@U?$hash@W4Level@el@@@4@U?$equal_to@W4Level@el@@@4@V?$allocator@U?$pair@$$CBW4Level@el@@V?$shared_ptr@V?$basic_fstream@DU?$char_traits@D@std@@@std@@@std@@@std@@@4@@4@PEBD@Z 0000000140179950 f   yourgame:easylogging++.obj
 0001:00178a50       ??$unsafeGetConfigByVal@_K@TypedConfigurations@base@el@@AEAA_KW4Level@2@PEBV?$unordered_map@W4Level@el@@_KU?$hash@W4Level@el@@@std@@U?$equal_to@W4Level@el@@@4@V?$allocator@U?$pair@$$CBW4Level@el@@_K@std@@@4@@std@@PEBD@Z 0000000140179a50 f   yourgame:easylogging++.obj
 0001:00178b50       ??$unsafeGetConfigByRef@V?$basic_string@DU?$char_traits@D@std@@V?$allocator@D@2@@std@@@TypedConfigurations@base@el@@AEAAAEAV?$basic_string@DU?$char_traits@D@std@@V?$allocator@D@2@@std@@W4Level@2@PEAV?$unordered_map@W4Level@el@@V?$basic_string@DU?$char_traits@D@std@@V?$allocator@D@2@@std@@U?$hash@W4Level@el@@@4@U?$equal_to@W4Level@el@@@4@V?$allocator@U?$pair@$$CBW4Level@el@@V?$basic_string@DU?$char_traits@D@std@@V?$allocator@D@2@@std@@@std@@@4@@4@PEBD@Z 0000000140179b50 f   yourgame:easylogging++.obj
 0001:00178c50       ?close@?$basic_fstream@DU?$char_traits@D@std@@@std@@QEAAXXZ 0000000140179c50 f   yourgame:easylogging++.obj
 0001:00178d90       ?validateEveryN@RegisteredHitCounters@base@el@@QEAA_NPEBDK_K@Z 0000000140179d90 f   yourgame:easylogging++.obj
 0001:00178ef0       ?validateAfterN@RegisteredHitCounters@base@el@@QEAA_NPEBDK_K@Z 0000000140179ef0 f   yourgame:easylogging++.obj
 0001:00179000       ?validateNTimes@RegisteredHitCounters@base@el@@QEAA_NPEBDK_K@Z 000000014017a000 f   yourgame:easylogging++.obj
 0001:00179110       ??0RegisteredLoggers@base@el@@QEAA@AEBV?$shared_ptr@VLogBuilder@el@@@std@@@Z 000000014017a110 f   yourgame:easylogging++.obj
 0001:00179400       ?get@RegisteredLoggers@base@el@@QEAAPEAVLogger@3@AEBV?$basic_string@DU?$char_traits@D@std@@V?$allocator@D@2@@std@@_N@Z 000000014017a400 f   yourgame:easylogging++.obj
 0001:00179b50       ?get@?$Registry@VLogger@el@@V?$basic_string@DU?$char_traits@D@std@@V?$allocator@D@2@@std@@@utils@base@el@@IEAAPEAVLogger@4@AEBV?$basic_string@DU?$char_traits@D@std@@V?$allocator@D@2@@std@@@Z 000000014017ab50 f   yourgame:easylogging++.obj
 0001:00179cd0       ??$?0$$CBV?$basic_string@DU?$char_traits@D@std@@V?$allocator@D@2@@std@@V?$shared_ptr@VLoggerRegistrationCallback@el@@@1@$0A@@?$pair@V?$basic_string@DU?$char_traits@D@std@@V?$allocator@D@2@@std@@V?$shared_ptr@VLoggerRegistrationCallback@el@@@2@@std@@QEAA@AEBU?$pair@$$CBV?$basic_string@DU?$char_traits@D@std@@V?$allocator@D@2@@std@@V?$shared_ptr@VLoggerRegistrationCallback@el@@@2@@1@@Z 000000014017acd0 f   yourgame:easylogging++.obj
 0001:00179e10       ?remove@RegisteredLoggers@base@el@@QEAA_NAEBV?$basic_string@DU?$char_traits@D@std@@V?$allocator@D@2@@std@@@Z 000000014017ae10 f   yourgame:easylogging++.obj
 0001:00179ed0       ?unsafeFlushAll@RegisteredLoggers@base@el@@AEAAXXZ 000000014017aed0 f   yourgame:easylogging++.obj
 0001:00179f40       ??0VRegistry@base@el@@QEAA@GPEAI@Z 000000014017af40 f   yourgame:easylogging++.obj
 0001:0017a030       ?setLevel@VRegistry@base@el@@QEAAXG@Z 000000014017b030 f   yourgame:easylogging++.obj
 0001:0017a070       ?setModules@VRegistry@base@el@@QEAAXPEBD@Z 000000014017b070 f   yourgame:easylogging++.obj
 0001:0017bca0       ?allowed@VRegistry@base@el@@QEAA_NGPEBD@Z 000000014017cca0 f   yourgame:easylogging++.obj
 0001:0017bf40       ?setFromArgs@VRegistry@base@el@@QEAAXPEBVCommandLineArgs@utils@23@@Z 000000014017cf40 f   yourgame:easylogging++.obj
 0001:0017c0d0       ??0Storage@base@el@@QEAA@AEBV?$shared_ptr@VLogBuilder@el@@@std@@@Z 000000014017d0d0 f   yourgame:easylogging++.obj
 0001:0017c7a0       ??1Storage@base@el@@UEAA@XZ 000000014017d7a0 f   yourgame:easylogging++.obj
 0001:0017cab0       ??1CommandLineArgs@utils@base@el@@UEAA@XZ 000000014017dab0 f   yourgame:easylogging++.obj
 0001:0017cc40       ?hasCustomFormatSpecifier@Storage@base@el@@QEAA_NPEBD@Z 000000014017dc40 f   yourgame:easylogging++.obj
 0001:0017ccb0       ?installCustomFormatSpecifier@Storage@base@el@@QEAAXAEBVCustomFormatSpecifier@3@@Z 000000014017dcb0 f   yourgame:easylogging++.obj
 0001:0017cd70       ?uninstallCustomFormatSpecifier@Storage@base@el@@QEAA_NPEBD@Z 000000014017dd70 f   yourgame:easylogging++.obj
 0001:0017cec0       ?setApplicationArguments@Storage@base@el@@AEAAXHPEAPEAD@Z 000000014017dec0 f   yourgame:easylogging++.obj
 0001:0017d360       ?handle@LogDispatchCallback@el@@MEAAXPEBVLogDispatchData@2@@Z 000000014017e360 f   yourgame:easylogging++.obj
 0001:0017d370       ?fileHandle@LogDispatchCallback@el@@IEAAAEAVNoMutex@internal@threading@base@2@PEBVLogDispatchData@2@@Z 000000014017e370 f   yourgame:easylogging++.obj
 0001:0017d500       ?handle@DefaultLogDispatchCallback@base@el@@MEAAXPEBVLogDispatchData@3@@Z 000000014017e500 f   yourgame:easylogging++.obj
 0001:0017d5d0       ?dispatch@DefaultLogDispatchCallback@base@el@@AEAAX$$QEAV?$basic_string@DU?$char_traits@D@std@@V?$allocator@D@2@@std@@@Z 000000014017e5d0 f   yourgame:easylogging++.obj
 0001:0017d8b0       ?build@DefaultLogBuilder@base@el@@UEBA?AV?$basic_string@DU?$char_traits@D@std@@V?$allocator@D@2@@std@@PEBVLogMessage@3@_N@Z 000000014017e8b0 f   yourgame:easylogging++.obj
 0001:0017f2c0       ?getThreadName@Storage@base@el@@QEAA?AV?$basic_string@DU?$char_traits@D@std@@V?$allocator@D@2@@std@@AEBV45@@Z 00000001401802c0 f   yourgame:easylogging++.obj
 0001:0017f5c0       ?dispatch@LogDispatcher@base@el@@QEAAXXZ 00000001401805c0 f   yourgame:easylogging++.obj
 0001:0017f7b0       ??$?0$$CBV?$basic_string@DU?$char_traits@D@std@@V?$allocator@D@2@@std@@V?$shared_ptr@VLogDispatchCallback@el@@@1@$0A@@?$pair@V?$basic_string@DU?$char_traits@D@std@@V?$allocator@D@2@@std@@V?$shared_ptr@VLogDispatchCallback@el@@@2@@std@@QEAA@AEBU?$pair@$$CBV?$basic_string@DU?$char_traits@D@std@@V?$allocator@D@2@@std@@V?$shared_ptr@VLogDispatchCallback@el@@@2@@1@@Z 00000001401807b0 f   yourgame:easylogging++.obj
 0001:0017f8f0       ?initialize@MessageBuilder@base@el@@QEAAXPEAVLogger@3@@Z 00000001401808f0 f   yourgame:easylogging++.obj
 0001:0017f930       ??6MessageBuilder@base@el@@QEAAAEAV012@PEB_W@Z 0000000140180930 f   yourgame:easylogging++.obj
 0001:0017fa60       ?construct@Writer@base@el@@QEAAAEAV123@PEAVLogger@3@_N@Z 0000000140180a60 f   yourgame:easylogging++.obj
 0001:0017fad0       ?initializeLogger@Writer@base@el@@IEAAXAEBV?$basic_string@DU?$char_traits@D@std@@V?$allocator@D@2@@std@@_N1@Z 0000000140180ad0 f   yourgame:easylogging++.obj
 0001:00180090       ?construct@Writer@base@el@@QEAAAEAV123@HPEBDZZ 0000000140181090 f   yourgame:easylogging++.obj
 0001:00180530       ?processDispatch@Writer@base@el@@IEAAXXZ 0000000140181530 f   yourgame:easylogging++.obj
 0001:00180970       ?triggerDispatch@Writer@base@el@@IEAAXXZ 0000000140181970 f   yourgame:easylogging++.obj
 0001:00181430       ??0LogMessage@el@@QEAA@W4Level@1@AEBV?$basic_string@DU?$char_traits@D@std@@V?$allocator@D@2@@std@@K1GPEAVLogger@1@@Z 0000000140182430 f   yourgame:easylogging++.obj
 0001:001816e0       ??1LogMessage@el@@QEAA@XZ  00000001401826e0 f   yourgame:easylogging++.obj
 0001:00181810       ??1PErrorWriter@base@el@@UEAA@XZ 0000000140182810 f   yourgame:easylogging++.obj
 0001:00181920       ?getLogger@Loggers@el@@SAPEAVLogger@2@AEBV?$basic_string@DU?$char_traits@D@std@@V?$allocator@D@2@@std@@_N@Z 0000000140182920 f   yourgame:easylogging++.obj
 0001:00181960       ?setDefaultLogBuilder@Loggers@el@@SAXAEAV?$shared_ptr@VLogBuilder@el@@@std@@@Z 0000000140182960 f   yourgame:easylogging++.obj
 0001:001819e0       ?unregisterLogger@Loggers@el@@SA_NAEBV?$basic_string@DU?$char_traits@D@std@@V?$allocator@D@2@@std@@@Z 00000001401829e0 f   yourgame:easylogging++.obj
 0001:00181a20       ?hasLogger@Loggers@el@@SA_NAEBV?$basic_string@DU?$char_traits@D@std@@V?$allocator@D@2@@std@@@Z 0000000140182a20 f   yourgame:easylogging++.obj
 0001:00181a70       ?reconfigureLogger@Loggers@el@@SAPEAVLogger@2@PEAV32@AEBVConfigurations@2@@Z 0000000140182a70 f   yourgame:easylogging++.obj
 0001:00181aa0       ?reconfigureLogger@Loggers@el@@SAPEAVLogger@2@AEBV?$basic_string@DU?$char_traits@D@std@@V?$allocator@D@2@@std@@AEBVConfigurations@2@@Z 0000000140182aa0 f   yourgame:easylogging++.obj
 0001:00181b00       ?reconfigureLogger@Loggers@el@@SAPEAVLogger@2@AEBV?$basic_string@DU?$char_traits@D@std@@V?$allocator@D@2@@std@@W4ConfigurationType@2@0@Z 0000000140182b00 f   yourgame:easylogging++.obj
 0001:00181c60       ?reconfigureAllLoggers@Loggers@el@@SAXAEBVConfigurations@2@@Z 0000000140182c60 f   yourgame:easylogging++.obj
 0001:00181d40       ?reconfigureAllLoggers@Loggers@el@@SAXW4Level@2@W4ConfigurationType@2@AEBV?$basic_string@DU?$char_traits@D@std@@V?$allocator@D@2@@std@@@Z 0000000140182d40 f   yourgame:easylogging++.obj
 0001:00181e50       ?setDefaultConfigurations@Loggers@el@@SAXAEBVConfigurations@2@_N@Z 0000000140182e50 f   yourgame:easylogging++.obj
 0001:00181fb0       ?defaultConfigurations@Loggers@el@@SAPEBVConfigurations@2@XZ 0000000140182fb0 f   yourgame:easylogging++.obj
 0001:00181fe0       ?logStreamsReference@Loggers@el@@SAPEBV?$unordered_map@V?$basic_string@DU?$char_traits@D@std@@V?$allocator@D@2@@std@@V?$shared_ptr@V?$basic_fstream@DU?$char_traits@D@std@@@std@@@2@U?$hash@V?$basic_string@DU?$char_traits@D@std@@V?$allocator@D@2@@std@@@2@U?$equal_to@V?$basic_string@DU?$char_traits@D@std@@V?$allocator@D@2@@std@@@2@V?$allocator@U?$pair@$$CBV?$basic_string@DU?$char_traits@D@std@@V?$allocator@D@2@@std@@V?$shared_ptr@V?$basic_fstream@DU?$char_traits@D@std@@@std@@@2@@std@@@2@@std@@XZ 0000000140182fe0 f   yourgame:easylogging++.obj
 0001:00182010       ?defaultTypedConfigurations@Loggers@el@@SA?AVTypedConfigurations@base@2@XZ 0000000140183010 f   yourgame:easylogging++.obj
 0001:00182060       ?populateAllLoggerIds@Loggers@el@@SAPEAV?$vector@V?$basic_string@DU?$char_traits@D@std@@V?$allocator@D@2@@std@@V?$allocator@V?$basic_string@DU?$char_traits@D@std@@V?$allocator@D@2@@std@@@2@@std@@PEAV34@@Z 0000000140183060 f   yourgame:easylogging++.obj
 0001:00182290       ?configureFromGlobal@Loggers@el@@SAXPEBD@Z 0000000140183290 f   yourgame:easylogging++.obj
 0001:00183790       ?configureFromArg@Loggers@el@@SA_NPEBD@Z 0000000140184790 f   yourgame:easylogging++.obj
 0001:00183800       ?flushAll@Loggers@el@@SAXXZ 0000000140184800 f   yourgame:easylogging++.obj
 0001:00183880       ?setVerboseLevel@Loggers@el@@SAXG@Z 0000000140184880 f   yourgame:easylogging++.obj
 0001:001838d0       ?verboseLevel@Loggers@el@@SAGXZ 00000001401848d0 f   yourgame:easylogging++.obj
 0001:00183900       ?setVModules@Loggers@el@@SAXPEBD@Z 0000000140184900 f   yourgame:easylogging++.obj
 0001:00183940       ?clearVModules@Loggers@el@@SAXXZ 0000000140184940 f   yourgame:easylogging++.obj
 0001:00183990       ?version@VersionInfo@el@@SA?BV?$basic_string@DU?$char_traits@D@std@@V?$allocator@D@2@@std@@XZ 0000000140184990 f   yourgame:easylogging++.obj
 0001:001839d0       ?releaseDate@VersionInfo@el@@SA?BV?$basic_string@DU?$char_traits@D@std@@V?$allocator@D@2@@std@@XZ 00000001401849d0 f   yourgame:easylogging++.obj
 0001:00183a30       ??_GConfiguration@el@@UEAAPEAXI@Z 0000000140184a30 f   yourgame:easylogging++.obj
 0001:00183ae0       ?acquireLock@ThreadSafe@threading@base@el@@UEAAXXZ 0000000140184ae0 f   yourgame:easylogging++.obj
 0001:00183af0       ?releaseLock@ThreadSafe@threading@base@el@@UEAAXXZ 0000000140184af0 f   yourgame:easylogging++.obj
 0001:00183b00       ?lock@ThreadSafe@threading@base@el@@UEAAAEAVNoMutex@internal@234@XZ 0000000140184b00 f   yourgame:easylogging++.obj
 0001:00183b20       ??_GConfigurations@el@@UEAAPEAXI@Z 0000000140184b20 f   yourgame:easylogging++.obj
 0001:00183be0       ?begin@?$AbstractRegistry@VConfiguration@el@@V?$vector@PEAVConfiguration@el@@V?$allocator@PEAVConfiguration@el@@@std@@@std@@@utils@base@el@@UEAA?AV?$_Vector_iterator@V?$_Vector_val@U?$_Simple_types@PEAVConfiguration@el@@@std@@@std@@@std@@XZ 0000000140184be0 f   yourgame:easylogging++.obj
 0001:00183c00       ?end@?$AbstractRegistry@VConfiguration@el@@V?$vector@PEAVConfiguration@el@@V?$allocator@PEAVConfiguration@el@@@std@@@std@@@utils@base@el@@UEAA?AV?$_Vector_iterator@V?$_Vector_val@U?$_Simple_types@PEAVConfiguration@el@@@std@@@std@@@std@@XZ 0000000140184c00 f   yourgame:easylogging++.obj
 0001:00183c20       ?cbegin@?$AbstractRegistry@VConfiguration@el@@V?$vector@PEAVConfiguration@el@@V?$allocator@PEAVConfiguration@el@@@std@@@std@@@utils@base@el@@UEBA?AV?$_Vector_const_iterator@V?$_Vector_val@U?$_Simple_types@PEAVConfiguration@el@@@std@@@std@@@std@@XZ 0000000140184c20 f   yourgame:easylogging++.obj
 0001:00183c40       ?cend@?$AbstractRegistry@VConfiguration@el@@V?$vector@PEAVConfiguration@el@@V?$allocator@PEAVConfiguration@el@@@std@@@std@@@utils@base@el@@UEBA?AV?$_Vector_const_iterator@V?$_Vector_val@U?$_Simple_types@PEAVConfiguration@el@@@std@@@std@@@std@@XZ 0000000140184c40 f   yourgame:easylogging++.obj
 0001:00183c60       ?empty@?$AbstractRegistry@VConfiguration@el@@V?$vector@PEAVConfiguration@el@@V?$allocator@PEAVConfiguration@el@@@std@@@std@@@utils@base@el@@UEBA_NXZ 0000000140184c60 f   yourgame:easylogging++.obj
 0001:00183c80       ?size@?$AbstractRegistry@VConfiguration@el@@V?$vector@PEAVConfiguration@el@@V?$allocator@PEAVConfiguration@el@@@std@@@std@@@utils@base@el@@UEBA_KXZ 0000000140184c80 f   yourgame:easylogging++.obj
 0001:00183ca0       ?list@?$AbstractRegistry@VConfiguration@el@@V?$vector@PEAVConfiguration@el@@V?$allocator@PEAVConfiguration@el@@@std@@@std@@@utils@base@el@@UEBAAEBV?$vector@PEAVConfiguration@el@@V?$allocator@PEAVConfiguration@el@@@std@@@std@@XZ 0000000140184ca0 f   yourgame:easylogging++.obj
 0001:00183cc0       ?list@?$AbstractRegistry@VConfiguration@el@@V?$vector@PEAVConfiguration@el@@V?$allocator@PEAVConfiguration@el@@@std@@@std@@@utils@base@el@@UEAAAEAV?$vector@PEAVConfiguration@el@@V?$allocator@PEAVConfiguration@el@@@std@@@std@@XZ 0000000140184cc0 f   yourgame:easylogging++.obj
 0001:00183ce0       ?unregisterAll@?$RegistryWithPred@VConfiguration@el@@VPredicate@12@@utils@base@el@@MEAAXXZ 0000000140184ce0 f   yourgame:easylogging++.obj
 0001:00183d60       ?deepCopy@?$RegistryWithPred@VConfiguration@el@@VPredicate@12@@utils@base@el@@EEAAXAEBV?$AbstractRegistry@VConfiguration@el@@V?$vector@PEAVConfiguration@el@@V?$allocator@PEAVConfiguration@el@@@std@@@std@@@234@@Z 0000000140184d60 f   yourgame:easylogging++.obj
 0001:00183e00       ?unregister@?$RegistryWithPred@VConfiguration@el@@VPredicate@12@@utils@base@el@@MEAAXAEAPEAVConfiguration@4@@Z 0000000140184e00 f   yourgame:easylogging++.obj
 0001:00183f20       ?registerNew@?$RegistryWithPred@VConfiguration@el@@VPredicate@12@@utils@base@el@@MEAAXPEAVConfiguration@4@@Z 0000000140184f20 f   yourgame:easylogging++.obj
 0001:00183fa0       ??_GLogger@el@@UEAAPEAXI@Z 0000000140184fa0 f   yourgame:easylogging++.obj
 0001:00183fe0       ??_ELogger@el@@WBA@EAAPEAXI@Z 0000000140184fe0 f   yourgame:easylogging++.obj
 0001:00184020       ?log@Logger@el@@UEBAXAEAV?$basic_ostream@DU?$char_traits@D@std@@@std@@@Z 0000000140185020 f   yourgame:easylogging++.obj
 0001:00184060       ??_GLogFormat@base@el@@UEAAPEAXI@Z 0000000140185060 f   yourgame:easylogging++.obj
 0001:001840a0       ?log@LogFormat@base@el@@UEBAXAEAV?$basic_ostream@DU?$char_traits@D@std@@@std@@@Z 00000001401850a0 f   yourgame:easylogging++.obj
 0001:001840e0       ??_GTypedConfigurations@base@el@@UEAAPEAXI@Z 00000001401850e0 f   yourgame:easylogging++.obj
 0001:00184120       ??_GRegisteredLoggers@base@el@@UEAAPEAXI@Z 0000000140185120 f   yourgame:easylogging++.obj
 0001:00184160       ?begin@?$AbstractRegistry@VLogger@el@@V?$unordered_map@V?$basic_string@DU?$char_traits@D@std@@V?$allocator@D@2@@std@@PEAVLogger@el@@U?$hash@V?$basic_string@DU?$char_traits@D@std@@V?$allocator@D@2@@std@@@2@U?$equal_to@V?$basic_string@DU?$char_traits@D@std@@V?$allocator@D@2@@std@@@2@V?$allocator@U?$pair@$$CBV?$basic_string@DU?$char_traits@D@std@@V?$allocator@D@2@@std@@PEAVLogger@el@@@std@@@2@@std@@@utils@base@el@@UEAA?AV?$_List_iterator@V?$_List_val@U?$_List_simple_types@U?$pair@$$CBV?$basic_string@DU?$char_traits@D@std@@V?$allocator@D@2@@std@@PEAVLogger@el@@@std@@@std@@@std@@@std@@XZ 0000000140185160 f   yourgame:easylogging++.obj
 0001:00184180       ?end@?$AbstractRegistry@VLogger@el@@V?$unordered_map@V?$basic_string@DU?$char_traits@D@std@@V?$allocator@D@2@@std@@PEAVLogger@el@@U?$hash@V?$basic_string@DU?$char_traits@D@std@@V?$allocator@D@2@@std@@@2@U?$equal_to@V?$basic_string@DU?$char_traits@D@std@@V?$allocator@D@2@@std@@@2@V?$allocator@U?$pair@$$CBV?$basic_string@DU?$char_traits@D@std@@V?$allocator@D@2@@std@@PEAVLogger@el@@@std@@@2@@std@@@utils@base@el@@UEAA?AV?$_List_iterator@V?$_List_val@U?$_List_simple_types@U?$pair@$$CBV?$basic_string@DU?$char_traits@D@std@@V?$allocator@D@2@@std@@PEAVLogger@el@@@std@@@std@@@std@@@std@@XZ 0000000140185180 f   yourgame:easylogging++.obj
 0001:001841a0       ?cbegin@?$AbstractRegistry@VLogger@el@@V?$unordered_map@V?$basic_string@DU?$char_traits@D@std@@V?$allocator@D@2@@std@@PEAVLogger@el@@U?$hash@V?$basic_string@DU?$char_traits@D@std@@V?$allocator@D@2@@std@@@2@U?$equal_to@V?$basic_string@DU?$char_traits@D@std@@V?$allocator@D@2@@std@@@2@V?$allocator@U?$pair@$$CBV?$basic_string@DU?$char_traits@D@std@@V?$allocator@D@2@@std@@PEAVLogger@el@@@std@@@2@@std@@@utils@base@el@@UEBA?AV?$_List_const_iterator@V?$_List_val@U?$_List_simple_types@U?$pair@$$CBV?$basic_string@DU?$char_traits@D@std@@V?$allocator@D@2@@std@@PEAVLogger@el@@@std@@@std@@@std@@@std@@XZ 00000001401851a0 f   yourgame:easylogging++.obj
 0001:001841c0       ?cend@?$AbstractRegistry@VLogger@el@@V?$unordered_map@V?$basic_string@DU?$char_traits@D@std@@V?$allocator@D@2@@std@@PEAVLogger@el@@U?$hash@V?$basic_string@DU?$char_traits@D@std@@V?$allocator@D@2@@std@@@2@U?$equal_to@V?$basic_string@DU?$char_traits@D@std@@V?$allocator@D@2@@std@@@2@V?$allocator@U?$pair@$$CBV?$basic_string@DU?$char_traits@D@std@@V?$allocator@D@2@@std@@PEAVLogger@el@@@std@@@2@@std@@@utils@base@el@@UEBA?AV?$_List_const_iterator@V?$_List_val@U?$_List_simple_types@U?$pair@$$CBV?$basic_string@DU?$char_traits@D@std@@V?$allocator@D@2@@std@@PEAVLogger@el@@@std@@@std@@@std@@@std@@XZ 00000001401851c0 f   yourgame:easylogging++.obj
 0001:001841e0       ?empty@?$AbstractRegistry@VLogger@el@@V?$unordered_map@V?$basic_string@DU?$char_traits@D@std@@V?$allocator@D@2@@std@@PEAVLogger@el@@U?$hash@V?$basic_string@DU?$char_traits@D@std@@V?$allocator@D@2@@std@@@2@U?$equal_to@V?$basic_string@DU?$char_traits@D@std@@V?$allocator@D@2@@std@@@2@V?$allocator@U?$pair@$$CBV?$basic_string@DU?$char_traits@D@std@@V?$allocator@D@2@@std@@PEAVLogger@el@@@std@@@2@@std@@@utils@base@el@@UEBA_NXZ 00000001401851e0 f   yourgame:easylogging++.obj
 0001:00184200       ?size@?$AbstractRegistry@VLogger@el@@V?$unordered_map@V?$basic_string@DU?$char_traits@D@std@@V?$allocator@D@2@@std@@PEAVLogger@el@@U?$hash@V?$basic_string@DU?$char_traits@D@std@@V?$allocator@D@2@@std@@@2@U?$equal_to@V?$basic_string@DU?$char_traits@D@std@@V?$allocator@D@2@@std@@@2@V?$allocator@U?$pair@$$CBV?$basic_string@DU?$char_traits@D@std@@V?$allocator@D@2@@std@@PEAVLogger@el@@@std@@@2@@std@@@utils@base@el@@UEBA_KXZ 0000000140185200 f   yourgame:easylogging++.obj
 0001:00184220       ?list@?$AbstractRegistry@VLogger@el@@V?$unordered_map@V?$basic_string@DU?$char_traits@D@std@@V?$allocator@D@2@@std@@PEAVLogger@el@@U?$hash@V?$basic_string@DU?$char_traits@D@std@@V?$allocator@D@2@@std@@@2@U?$equal_to@V?$basic_string@DU?$char_traits@D@std@@V?$allocator@D@2@@std@@@2@V?$allocator@U?$pair@$$CBV?$basic_string@DU?$char_traits@D@std@@V?$allocator@D@2@@std@@PEAVLogger@el@@@std@@@2@@std@@@utils@base@el@@UEBAAEBV?$unordered_map@V?$basic_string@DU?$char_traits@D@std@@V?$allocator@D@2@@std@@PEAVLogger@el@@U?$hash@V?$basic_string@DU?$char_traits@D@std@@V?$allocator@D@2@@std@@@2@U?$equal_to@V?$basic_string@DU?$char_traits@D@std@@V?$allocator@D@2@@std@@@2@V?$allocator@U?$pair@$$CBV?$basic_string@DU?$char_traits@D@std@@V?$allocator@D@2@@std@@PEAVLogger@el@@@std@@@2@@std@@XZ 0000000140185220 f   yourgame:easylogging++.obj
 0001:00184240       ?list@?$AbstractRegistry@VLogger@el@@V?$unordered_map@V?$basic_string@DU?$char_traits@D@std@@V?$allocator@D@2@@std@@PEAVLogger@el@@U?$hash@V?$basic_string@DU?$char_traits@D@std@@V?$allocator@D@2@@std@@@2@U?$equal_to@V?$basic_string@DU?$char_traits@D@std@@V?$allocator@D@2@@std@@@2@V?$allocator@U?$pair@$$CBV?$basic_string@DU?$char_traits@D@std@@V?$allocator@D@2@@std@@PEAVLogger@el@@@std@@@2@@std@@@utils@base@el@@UEAAAEAV?$unordered_map@V?$basic_string@DU?$char_traits@D@std@@V?$allocator@D@2@@std@@PEAVLogger@el@@U?$hash@V?$basic_string@DU?$char_traits@D@std@@V?$allocator@D@2@@std@@@2@U?$equal_to@V?$basic_string@DU?$char_traits@D@std@@V?$allocator@D@2@@std@@@2@V?$allocator@U?$pair@$$CBV?$basic_string@DU?$char_traits@D@std@@V?$allocator@D@2@@std@@PEAVLogger@el@@@std@@@2@@std@@XZ 0000000140185240 f   yourgame:easylogging++.obj
 0001:00184260       ?unregisterAll@?$Registry@VLogger@el@@V?$basic_string@DU?$char_traits@D@std@@V?$allocator@D@2@@std@@@utils@base@el@@MEAAXXZ 0000000140185260 f   yourgame:easylogging++.obj
 0001:001842e0       ?deepCopy@?$Registry@VLogger@el@@V?$basic_string@DU?$char_traits@D@std@@V?$allocator@D@2@@std@@@utils@base@el@@EEAAXAEBV?$AbstractRegistry@VLogger@el@@V?$unordered_map@V?$basic_string@DU?$char_traits@D@std@@V?$allocator@D@2@@std@@PEAVLogger@el@@U?$hash@V?$basic_string@DU?$char_traits@D@std@@V?$allocator@D@2@@std@@@2@U?$equal_to@V?$basic_string@DU?$char_traits@D@std@@V?$allocator@D@2@@std@@@2@V?$allocator@U?$pair@$$CBV?$basic_string@DU?$char_traits@D@std@@V?$allocator@D@2@@std@@PEAVLogger@el@@@std@@@2@@std@@@234@@Z 00000001401852e0 f   yourgame:easylogging++.obj
 0001:001843e0       ?registerNew@?$Registry@VLogger@el@@V?$basic_string@DU?$char_traits@D@std@@V?$allocator@D@2@@std@@@utils@base@el@@MEAAXAEBV?$basic_string@DU?$char_traits@D@std@@V?$allocator@D@2@@std@@PEAVLogger@4@@Z 00000001401853e0 f   yourgame:easylogging++.obj
 0001:001845c0       ??_GVRegistry@base@el@@UEAAPEAXI@Z 00000001401855c0 f   yourgame:easylogging++.obj
 0001:00184680       ??_GStorage@base@el@@UEAAPEAXI@Z 0000000140185680 f   yourgame:easylogging++.obj
 0001:001846c0       ??_GPErrorWriter@base@el@@UEAAPEAXI@Z 00000001401856c0 f   yourgame:easylogging++.obj
 0001:00184700       ??_GLoggable@el@@UEAAPEAXI@Z 0000000140185700 f   yourgame:easylogging++.obj
 0001:00184710       ??_GThreadSafe@threading@base@el@@MEAAPEAXI@Z 0000000140185710 f   yourgame:easylogging++.obj
 0001:00184750       ??$emplace@U?$pair@W4Level@el@@V?$basic_string@DU?$char_traits@D@std@@V?$allocator@D@2@@std@@@std@@@?$_Hash@V?$_Umap_traits@W4Level@el@@V?$basic_string@DU?$char_traits@D@std@@V?$allocator@D@2@@std@@V?$_Uhash_compare@W4Level@el@@U?$hash@W4Level@el@@@std@@U?$equal_to@W4Level@el@@@4@@4@V?$allocator@U?$pair@$$CBW4Level@el@@V?$basic_string@DU?$char_traits@D@std@@V?$allocator@D@2@@std@@@std@@@4@$0A@@std@@@std@@QEAA?AU?$pair@V?$_List_iterator@V?$_List_val@U?$_List_simple_types@U?$pair@$$CBW4Level@el@@V?$basic_string@DU?$char_traits@D@std@@V?$allocator@D@2@@std@@@std@@@std@@@std@@@std@@_N@1@$$QEAU?$pair@W4Level@el@@V?$basic_string@DU?$char_traits@D@std@@V?$allocator@D@2@@std@@@1@@Z 0000000140185750 f   yourgame:easylogging++.obj
 0001:00184a20       ?_Forced_rehash@?$_Hash@V?$_Umap_traits@W4Level@el@@V?$basic_string@DU?$char_traits@D@std@@V?$allocator@D@2@@std@@V?$_Uhash_compare@W4Level@el@@U?$hash@W4Level@el@@@std@@U?$equal_to@W4Level@el@@@4@@4@V?$allocator@U?$pair@$$CBW4Level@el@@V?$basic_string@DU?$char_traits@D@std@@V?$allocator@D@2@@std@@@std@@@4@$0A@@std@@@std@@IEAAX_K@Z 0000000140185a20 f   yourgame:easylogging++.obj
 0001:00184c00       ?_Assign_grow@?$_Hash_vec@V?$allocator@V?$_List_unchecked_iterator@V?$_List_val@U?$_List_simple_types@U?$pair@$$CBW4Level@el@@V?$basic_string@DU?$char_traits@D@std@@V?$allocator@D@2@@std@@@std@@@std@@@std@@@std@@@std@@@std@@QEAAX_KV?$_List_unchecked_iterator@V?$_List_val@U?$_List_simple_types@U?$pair@$$CBW4Level@el@@V?$basic_string@DU?$char_traits@D@std@@V?$allocator@D@2@@std@@@std@@@std@@@std@@@2@@Z 0000000140185c00 f   yourgame:easylogging++.obj
 0001:00184e00       ??$emplace@U?$pair@W4Level@el@@V?$shared_ptr@V?$basic_fstream@DU?$char_traits@D@std@@@std@@@std@@@std@@@?$_Hash@V?$_Umap_traits@W4Level@el@@V?$shared_ptr@V?$basic_fstream@DU?$char_traits@D@std@@@std@@@std@@V?$_Uhash_compare@W4Level@el@@U?$hash@W4Level@el@@@std@@U?$equal_to@W4Level@el@@@4@@4@V?$allocator@U?$pair@$$CBW4Level@el@@V?$shared_ptr@V?$basic_fstream@DU?$char_traits@D@std@@@std@@@std@@@std@@@4@$0A@@std@@@std@@QEAA?AU?$pair@V?$_List_iterator@V?$_List_val@U?$_List_simple_types@U?$pair@$$CBW4Level@el@@V?$shared_ptr@V?$basic_fstream@DU?$char_traits@D@std@@@std@@@std@@@std@@@std@@@std@@@std@@_N@1@$$QEAU?$pair@W4Level@el@@V?$shared_ptr@V?$basic_fstream@DU?$char_traits@D@std@@@std@@@std@@@1@@Z 0000000140185e00 f   yourgame:easylogging++.obj
 0001:001850c0       ?_Forced_rehash@?$_Hash@V?$_Umap_traits@W4Level@el@@V?$shared_ptr@V?$basic_fstream@DU?$char_traits@D@std@@@std@@@std@@V?$_Uhash_compare@W4Level@el@@U?$hash@W4Level@el@@@std@@U?$equal_to@W4Level@el@@@4@@4@V?$allocator@U?$pair@$$CBW4Level@el@@V?$shared_ptr@V?$basic_fstream@DU?$char_traits@D@std@@@std@@@std@@@std@@@4@$0A@@std@@@std@@IEAAX_K@Z 00000001401860c0 f   yourgame:easylogging++.obj
 0001:001852e0       ?_Assign_grow@?$_Hash_vec@V?$allocator@V?$_List_unchecked_iterator@V?$_List_val@U?$_List_simple_types@U?$pair@$$CBW4Level@el@@V?$shared_ptr@V?$basic_fstream@DU?$char_traits@D@std@@@std@@@std@@@std@@@std@@@std@@@std@@@std@@@std@@QEAAX_KV?$_List_unchecked_iterator@V?$_List_val@U?$_List_simple_types@U?$pair@$$CBW4Level@el@@V?$shared_ptr@V?$basic_fstream@DU?$char_traits@D@std@@@std@@@std@@@std@@@std@@@std@@@2@@Z 00000001401862e0 f   yourgame:easylogging++.obj
 0001:001854e0       ??1_Clear_guard@?$_Hash@V?$_Umap_traits@W4Level@el@@V?$shared_ptr@V?$basic_fstream@DU?$char_traits@D@std@@@std@@@std@@V?$_Uhash_compare@W4Level@el@@U?$hash@W4Level@el@@@std@@U?$equal_to@W4Level@el@@@4@@4@V?$allocator@U?$pair@$$CBW4Level@el@@V?$shared_ptr@V?$basic_fstream@DU?$char_traits@D@std@@@std@@@std@@@std@@@4@$0A@@std@@@std@@QEAA@XZ 00000001401864e0 f   yourgame:easylogging++.obj
 0001:00185610       ?_Destroy@?$_Ref_count@V?$basic_fstream@DU?$char_traits@D@std@@@std@@@std@@EEAAXXZ 0000000140186610 f   yourgame:easylogging++.obj
 0001:00185650       ?_Delete_this@?$_Ref_count@V?$basic_fstream@DU?$char_traits@D@std@@@std@@@std@@EEAAXXZ 0000000140186650 f   yourgame:easylogging++.obj
 0001:00185680       ??_G?$_Ref_count@V?$basic_fstream@DU?$char_traits@D@std@@@std@@@std@@UEAAPEAXI@Z 0000000140186680 f   yourgame:easylogging++.obj
 0001:001856b0       ?_Get_deleter@_Ref_count_base@std@@UEBAPEAXAEBVtype_info@@@Z 00000001401866b0 f   yourgame:easylogging++.obj
 0001:001856c0       ??$emplace@U?$pair@V?$basic_string@DU?$char_traits@D@std@@V?$allocator@D@2@@std@@V?$shared_ptr@V?$basic_fstream@DU?$char_traits@D@std@@@std@@@2@@std@@@?$_Hash@V?$_Umap_traits@V?$basic_string@DU?$char_traits@D@std@@V?$allocator@D@2@@std@@V?$shared_ptr@V?$basic_fstream@DU?$char_traits@D@std@@@std@@@2@V?$_Uhash_compare@V?$basic_string@DU?$char_traits@D@std@@V?$allocator@D@2@@std@@U?$hash@V?$basic_string@DU?$char_traits@D@std@@V?$allocator@D@2@@std@@@2@U?$equal_to@V?$basic_string@DU?$char_traits@D@std@@V?$allocator@D@2@@std@@@2@@2@V?$allocator@U?$pair@$$CBV?$basic_string@DU?$char_traits@D@std@@V?$allocator@D@2@@std@@V?$shared_ptr@V?$basic_fstream@DU?$char_traits@D@std@@@std@@@2@@std@@@2@$0A@@std@@@std@@QEAA?AU?$pair@V?$_List_iterator@V?$_List_val@U?$_List_simple_types@U?$pair@$$CBV?$basic_string@DU?$char_traits@D@std@@V?$allocator@D@2@@std@@V?$shared_ptr@V?$basic_fstream@DU?$char_traits@D@std@@@std@@@2@@std@@@std@@@std@@@std@@_N@1@$$QEAU?$pair@V?$basic_string@DU?$char_traits@D@std@@V?$allocator@D@2@@std@@V?$shared_ptr@V?$basic_fstream@DU?$char_traits@D@std@@@std@@@2@@1@@Z 00000001401866c0 f   yourgame:easylogging++.obj
 0001:00185b10       ??1?$_List_node_emplace_op2@V?$allocator@U?$_List_node@U?$pair@$$CBV?$basic_string@DU?$char_traits@D@std@@V?$allocator@D@2@@std@@V?$shared_ptr@V?$basic_fstream@DU?$char_traits@D@std@@@std@@@2@@std@@PEAX@std@@@std@@@std@@QEAA@XZ 0000000140186b10 f   yourgame:easylogging++.obj
 0001:00185be0       ?_Forced_rehash@?$_Hash@V?$_Umap_traits@V?$basic_string@DU?$char_traits@D@std@@V?$allocator@D@2@@std@@V?$shared_ptr@V?$basic_fstream@DU?$char_traits@D@std@@@std@@@2@V?$_Uhash_compare@V?$basic_string@DU?$char_traits@D@std@@V?$allocator@D@2@@std@@U?$hash@V?$basic_string@DU?$char_traits@D@std@@V?$allocator@D@2@@std@@@2@U?$equal_to@V?$basic_string@DU?$char_traits@D@std@@V?$allocator@D@2@@std@@@2@@2@V?$allocator@U?$pair@$$CBV?$basic_string@DU?$char_traits@D@std@@V?$allocator@D@2@@std@@V?$shared_ptr@V?$basic_fstream@DU?$char_traits@D@std@@@std@@@2@@std@@@2@$0A@@std@@@std@@IEAAX_K@Z 0000000140186be0 f   yourgame:easylogging++.obj
 0001:00185f30       ?_Assign_grow@?$_Hash_vec@V?$allocator@V?$_List_unchecked_iterator@V?$_List_val@U?$_List_simple_types@U?$pair@$$CBV?$basic_string@DU?$char_traits@D@std@@V?$allocator@D@2@@std@@V?$shared_ptr@V?$basic_fstream@DU?$char_traits@D@std@@@std@@@2@@std@@@std@@@std@@@std@@@std@@@std@@QEAAX_KV?$_List_unchecked_iterator@V?$_List_val@U?$_List_simple_types@U?$pair@$$CBV?$basic_string@DU?$char_traits@D@std@@V?$allocator@D@2@@std@@V?$shared_ptr@V?$basic_fstream@DU?$char_traits@D@std@@@std@@@2@@std@@@std@@@std@@@2@@Z 0000000140186f30 f   yourgame:easylogging++.obj
 0001:00186130       ??$_Free_non_head@V?$allocator@U?$_List_node@U?$pair@$$CBV?$basic_string@DU?$char_traits@D@std@@V?$allocator@D@2@@std@@V?$shared_ptr@V?$basic_fstream@DU?$char_traits@D@std@@@std@@@2@@std@@PEAX@std@@@std@@@?$_List_node@U?$pair@$$CBV?$basic_string@DU?$char_traits@D@std@@V?$allocator@D@2@@std@@V?$shared_ptr@V?$basic_fstream@DU?$char_traits@D@std@@@std@@@2@@std@@PEAX@std@@SAXAEAV?$allocator@U?$_List_node@U?$pair@$$CBV?$basic_string@DU?$char_traits@D@std@@V?$allocator@D@2@@std@@V?$shared_ptr@V?$basic_fstream@DU?$char_traits@D@std@@@std@@@2@@std@@PEAX@std@@@1@PEAU01@@Z 0000000140187130 f   yourgame:easylogging++.obj
 0001:00186200       ??_GHitCounter@base@el@@UEAAPEAXI@Z 0000000140187200 f   yourgame:easylogging++.obj
 0001:00186240       ??$_Erase@V?$basic_string@DU?$char_traits@D@std@@V?$allocator@D@2@@std@@@?$_Hash@V?$_Umap_traits@V?$basic_string@DU?$char_traits@D@std@@V?$allocator@D@2@@std@@PEAVLogger@el@@V?$_Uhash_compare@V?$basic_string@DU?$char_traits@D@std@@V?$allocator@D@2@@std@@U?$hash@V?$basic_string@DU?$char_traits@D@std@@V?$allocator@D@2@@std@@@2@U?$equal_to@V?$basic_string@DU?$char_traits@D@std@@V?$allocator@D@2@@std@@@2@@2@V?$allocator@U?$pair@$$CBV?$basic_string@DU?$char_traits@D@std@@V?$allocator@D@2@@std@@PEAVLogger@el@@@std@@@2@$0A@@std@@@std@@AEAA_KAEBV?$basic_string@DU?$char_traits@D@std@@V?$allocator@D@2@@1@@Z 0000000140187240 f   yourgame:easylogging++.obj
 0001:00187560       ??$emplace@U?$pair@V?$basic_string@DU?$char_traits@D@std@@V?$allocator@D@2@@std@@G@std@@@?$_Hash@V?$_Umap_traits@V?$basic_string@DU?$char_traits@D@std@@V?$allocator@D@2@@std@@GV?$_Uhash_compare@V?$basic_string@DU?$char_traits@D@std@@V?$allocator@D@2@@std@@U?$hash@V?$basic_string@DU?$char_traits@D@std@@V?$allocator@D@2@@std@@@2@U?$equal_to@V?$basic_string@DU?$char_traits@D@std@@V?$allocator@D@2@@std@@@2@@2@V?$allocator@U?$pair@$$CBV?$basic_string@DU?$char_traits@D@std@@V?$allocator@D@2@@std@@G@std@@@2@$0A@@std@@@std@@QEAA?AU?$pair@V?$_List_iterator@V?$_List_val@U?$_List_simple_types@U?$pair@$$CBV?$basic_string@DU?$char_traits@D@std@@V?$allocator@D@2@@std@@G@std@@@std@@@std@@@std@@_N@1@$$QEAU?$pair@V?$basic_string@DU?$char_traits@D@std@@V?$allocator@D@2@@std@@G@1@@Z 0000000140188560 f   yourgame:easylogging++.obj
 0001:00187950       ?_Forced_rehash@?$_Hash@V?$_Umap_traits@V?$basic_string@DU?$char_traits@D@std@@V?$allocator@D@2@@std@@GV?$_Uhash_compare@V?$basic_string@DU?$char_traits@D@std@@V?$allocator@D@2@@std@@U?$hash@V?$basic_string@DU?$char_traits@D@std@@V?$allocator@D@2@@std@@@2@U?$equal_to@V?$basic_string@DU?$char_traits@D@std@@V?$allocator@D@2@@std@@@2@@2@V?$allocator@U?$pair@$$CBV?$basic_string@DU?$char_traits@D@std@@V?$allocator@D@2@@std@@G@std@@@2@$0A@@std@@@std@@IEAAX_K@Z 0000000140188950 f   yourgame:easylogging++.obj
 0001:00187ca0       ?_Assign_grow@?$_Hash_vec@V?$allocator@V?$_List_unchecked_iterator@V?$_List_val@U?$_List_simple_types@U?$pair@$$CBV?$basic_string@DU?$char_traits@D@std@@V?$allocator@D@2@@std@@G@std@@@std@@@std@@@std@@@std@@@std@@QEAAX_KV?$_List_unchecked_iterator@V?$_List_val@U?$_List_simple_types@U?$pair@$$CBV?$basic_string@DU?$char_traits@D@std@@V?$allocator@D@2@@std@@G@std@@@std@@@std@@@2@@Z 0000000140188ca0 f   yourgame:easylogging++.obj
 0001:00187ea0       ?clear@?$_Hash@V?$_Umap_traits@V?$basic_string@DU?$char_traits@D@std@@V?$allocator@D@2@@std@@GV?$_Uhash_compare@V?$basic_string@DU?$char_traits@D@std@@V?$allocator@D@2@@std@@U?$hash@V?$basic_string@DU?$char_traits@D@std@@V?$allocator@D@2@@std@@@2@U?$equal_to@V?$basic_string@DU?$char_traits@D@std@@V?$allocator@D@2@@std@@@2@@2@V?$allocator@U?$pair@$$CBV?$basic_string@DU?$char_traits@D@std@@V?$allocator@D@2@@std@@G@std@@@2@$0A@@std@@@std@@QEAAXXZ 0000000140188ea0 f   yourgame:easylogging++.obj
 0001:00188010       ?_Unchecked_erase@?$_Hash@V?$_Umap_traits@V?$basic_string@DU?$char_traits@D@std@@V?$allocator@D@2@@std@@GV?$_Uhash_compare@V?$basic_string@DU?$char_traits@D@std@@V?$allocator@D@2@@std@@U?$hash@V?$basic_string@DU?$char_traits@D@std@@V?$allocator@D@2@@std@@@2@U?$equal_to@V?$basic_string@DU?$char_traits@D@std@@V?$allocator@D@2@@std@@@2@@2@V?$allocator@U?$pair@$$CBV?$basic_string@DU?$char_traits@D@std@@V?$allocator@D@2@@std@@G@std@@@2@$0A@@std@@@std@@AEAAPEAU?$_List_node@U?$pair@$$CBV?$basic_string@DU?$char_traits@D@std@@V?$allocator@D@2@@std@@G@std@@PEAX@2@PEAU32@QEAU32@@Z 0000000140189010 f   yourgame:easylogging++.obj
 0001:00188390       ??_GRegisteredHitCounters@base@el@@UEAAPEAXI@Z 0000000140189390 f   yourgame:easylogging++.obj
 0001:001883d0       ?begin@?$AbstractRegistry@VHitCounter@base@el@@V?$vector@PEAVHitCounter@base@el@@V?$allocator@PEAVHitCounter@base@el@@@std@@@std@@@utils@base@el@@UEAA?AV?$_Vector_iterator@V?$_Vector_val@U?$_Simple_types@PEAVHitCounter@base@el@@@std@@@std@@@std@@XZ 00000001401893d0 f   yourgame:easylogging++.obj
 0001:001883f0       ?end@?$AbstractRegistry@VHitCounter@base@el@@V?$vector@PEAVHitCounter@base@el@@V?$allocator@PEAVHitCounter@base@el@@@std@@@std@@@utils@base@el@@UEAA?AV?$_Vector_iterator@V?$_Vector_val@U?$_Simple_types@PEAVHitCounter@base@el@@@std@@@std@@@std@@XZ 00000001401893f0 f   yourgame:easylogging++.obj
 0001:00188410       ?cbegin@?$AbstractRegistry@VHitCounter@base@el@@V?$vector@PEAVHitCounter@base@el@@V?$allocator@PEAVHitCounter@base@el@@@std@@@std@@@utils@base@el@@UEBA?AV?$_Vector_const_iterator@V?$_Vector_val@U?$_Simple_types@PEAVHitCounter@base@el@@@std@@@std@@@std@@XZ 0000000140189410 f   yourgame:easylogging++.obj
 0001:00188430       ?cend@?$AbstractRegistry@VHitCounter@base@el@@V?$vector@PEAVHitCounter@base@el@@V?$allocator@PEAVHitCounter@base@el@@@std@@@std@@@utils@base@el@@UEBA?AV?$_Vector_const_iterator@V?$_Vector_val@U?$_Simple_types@PEAVHitCounter@base@el@@@std@@@std@@@std@@XZ 0000000140189430 f   yourgame:easylogging++.obj
 0001:00188450       ?empty@?$AbstractRegistry@VHitCounter@base@el@@V?$vector@PEAVHitCounter@base@el@@V?$allocator@PEAVHitCounter@base@el@@@std@@@std@@@utils@base@el@@UEBA_NXZ 0000000140189450 f   yourgame:easylogging++.obj
 0001:00188470       ?size@?$AbstractRegistry@VHitCounter@base@el@@V?$vector@PEAVHitCounter@base@el@@V?$allocator@PEAVHitCounter@base@el@@@std@@@std@@@utils@base@el@@UEBA_KXZ 0000000140189470 f   yourgame:easylogging++.obj
 0001:00188490       ?list@?$AbstractRegistry@VHitCounter@base@el@@V?$vector@PEAVHitCounter@base@el@@V?$allocator@PEAVHitCounter@base@el@@@std@@@std@@@utils@base@el@@UEBAAEBV?$vector@PEAVHitCounter@base@el@@V?$allocator@PEAVHitCounter@base@el@@@std@@@std@@XZ 0000000140189490 f   yourgame:easylogging++.obj
 0001:001884b0       ?list@?$AbstractRegistry@VHitCounter@base@el@@V?$vector@PEAVHitCounter@base@el@@V?$allocator@PEAVHitCounter@base@el@@@std@@@std@@@utils@base@el@@UEAAAEAV?$vector@PEAVHitCounter@base@el@@V?$allocator@PEAVHitCounter@base@el@@@std@@@std@@XZ 00000001401894b0 f   yourgame:easylogging++.obj
 0001:001884d0       ?unregisterAll@?$RegistryWithPred@VHitCounter@base@el@@VPredicate@123@@utils@base@el@@MEAAXXZ 00000001401894d0 f   yourgame:easylogging++.obj
 0001:00188550       ?deepCopy@?$RegistryWithPred@VHitCounter@base@el@@VPredicate@123@@utils@base@el@@EEAAXAEBV?$AbstractRegistry@VHitCounter@base@el@@V?$vector@PEAVHitCounter@base@el@@V?$allocator@PEAVHitCounter@base@el@@@std@@@std@@@234@@Z 0000000140189550 f   yourgame:easylogging++.obj
 0001:00188600       ?unregister@?$RegistryWithPred@VHitCounter@base@el@@VPredicate@123@@utils@base@el@@MEAAXAEAPEAVHitCounter@34@@Z 0000000140189600 f   yourgame:easylogging++.obj
 0001:00188720       ?registerNew@?$RegistryWithPred@VHitCounter@base@el@@VPredicate@123@@utils@base@el@@MEAAXPEAVHitCounter@34@@Z 0000000140189720 f   yourgame:easylogging++.obj
 0001:001887a0       ??_G?$RegistryWithPred@VHitCounter@base@el@@VPredicate@123@@utils@base@el@@UEAAPEAXI@Z 00000001401897a0 f   yourgame:easylogging++.obj
 0001:001887e0       ??_G?$AbstractRegistry@VHitCounter@base@el@@V?$vector@PEAVHitCounter@base@el@@V?$allocator@PEAVHitCounter@base@el@@@std@@@std@@@utils@base@el@@UEAAPEAXI@Z 00000001401897e0 f   yourgame:easylogging++.obj
 0001:001887f0       ??1?$RegistryWithPred@VHitCounter@base@el@@VPredicate@123@@utils@base@el@@UEAA@XZ 00000001401897f0 f   yourgame:easylogging++.obj
 0001:001888f0       ??$_Emplace_reallocate@AEBQEAVHitCounter@base@el@@@?$vector@PEAVHitCounter@base@el@@V?$allocator@PEAVHitCounter@base@el@@@std@@@std@@AEAAPEAPEAVHitCounter@base@el@@QEAPEAV234@AEBQEAV234@@Z 00000001401898f0 f   yourgame:easylogging++.obj
 0001:00188aa0       ??_GCommandLineArgs@utils@base@el@@UEAAPEAXI@Z 0000000140189aa0 f   yourgame:easylogging++.obj
 0001:00188ae0       ??$_Freenode@V?$allocator@U?$_List_node@U?$pair@$$CBV?$basic_string@DU?$char_traits@D@std@@V?$allocator@D@2@@std@@V12@@std@@PEAX@std@@@std@@@?$_List_node@U?$pair@$$CBV?$basic_string@DU?$char_traits@D@std@@V?$allocator@D@2@@std@@V12@@std@@PEAX@std@@SAXAEAV?$allocator@U?$_List_node@U?$pair@$$CBV?$basic_string@DU?$char_traits@D@std@@V?$allocator@D@2@@std@@V12@@std@@PEAX@std@@@1@PEAU01@@Z 0000000140189ae0 f   yourgame:easylogging++.obj
 0001:00188ba0       ??$_Free_non_head@V?$allocator@U?$_List_node@U?$pair@$$CBV?$basic_string@DU?$char_traits@D@std@@V?$allocator@D@2@@std@@V?$shared_ptr@VPerformanceTrackingCallback@el@@@2@@std@@PEAX@std@@@std@@@?$_List_node@U?$pair@$$CBV?$basic_string@DU?$char_traits@D@std@@V?$allocator@D@2@@std@@V?$shared_ptr@VPerformanceTrackingCallback@el@@@2@@std@@PEAX@std@@SAXAEAV?$allocator@U?$_List_node@U?$pair@$$CBV?$basic_string@DU?$char_traits@D@std@@V?$allocator@D@2@@std@@V?$shared_ptr@VPerformanceTrackingCallback@el@@@2@@std@@PEAX@std@@@1@PEAU01@@Z 0000000140189ba0 f   yourgame:easylogging++.obj
 0001:00188c70       ??$_Free_non_head@V?$allocator@U?$_List_node@U?$pair@$$CBV?$basic_string@DU?$char_traits@D@std@@V?$allocator@D@2@@std@@V?$shared_ptr@VLogDispatchCallback@el@@@2@@std@@PEAX@std@@@std@@@?$_List_node@U?$pair@$$CBV?$basic_string@DU?$char_traits@D@std@@V?$allocator@D@2@@std@@V?$shared_ptr@VLogDispatchCallback@el@@@2@@std@@PEAX@std@@SAXAEAV?$allocator@U?$_List_node@U?$pair@$$CBV?$basic_string@DU?$char_traits@D@std@@V?$allocator@D@2@@std@@V?$shared_ptr@VLogDispatchCallback@el@@@2@@std@@PEAX@std@@@1@PEAU01@@Z 0000000140189c70 f   yourgame:easylogging++.obj
 0001:00188d40       ??1?$RegistryWithPred@VConfiguration@el@@VPredicate@12@@utils@base@el@@UEAA@XZ 0000000140189d40 f   yourgame:easylogging++.obj
 0001:00188e40       ??_G?$RegistryWithPred@VConfiguration@el@@VPredicate@12@@utils@base@el@@UEAAPEAXI@Z 0000000140189e40 f   yourgame:easylogging++.obj
 0001:00188e80       ??_G?$AbstractRegistry@VConfiguration@el@@V?$vector@PEAVConfiguration@el@@V?$allocator@PEAVConfiguration@el@@@std@@@std@@@utils@base@el@@UEAAPEAXI@Z 0000000140189e80 f   yourgame:easylogging++.obj
 0001:00188e90       ?_Assign_grow@?$_Hash_vec@V?$allocator@V?$_List_unchecked_iterator@V?$_List_val@U?$_List_simple_types@U?$pair@$$CBV?$basic_string@DU?$char_traits@D@std@@V?$allocator@D@2@@std@@V12@@std@@@std@@@std@@@std@@@std@@@std@@QEAAX_KV?$_List_unchecked_iterator@V?$_List_val@U?$_List_simple_types@U?$pair@$$CBV?$basic_string@DU?$char_traits@D@std@@V?$allocator@D@2@@std@@V12@@std@@@std@@@std@@@2@@Z 0000000140189e90 f   yourgame:easylogging++.obj
 0001:00189090       ??_G?$NoScopedLock@VNoMutex@internal@threading@base@el@@@internal@threading@base@el@@UEAAPEAXI@Z 000000014018a090 f   yourgame:easylogging++.obj
 0001:00189240       ?_Xran@?$_String_val@U?$_Simple_types@D@std@@@std@@SAXXZ 000000014018a240 f   yourgame:easylogging++.obj
 0001:00189490       ?_Assign_grow@?$_Hash_vec@V?$allocator@V?$_List_unchecked_iterator@V?$_List_val@U?$_List_simple_types@U?$pair@$$CBW4Level@el@@I@std@@@std@@@std@@@std@@@std@@@std@@QEAAX_KV?$_List_unchecked_iterator@V?$_List_val@U?$_List_simple_types@U?$pair@$$CBW4Level@el@@I@std@@@std@@@std@@@2@@Z 000000014018a490 f   yourgame:easylogging++.obj
 0001:00189690       ??$_Assign_cast@AEAU?$pair@W4Level@el@@I@std@@V?$_List_unchecked_const_iterator@V?$_List_val@U?$_List_simple_types@U?$pair@$$CBW4Level@el@@I@std@@@std@@@std@@U_Iterator_base0@2@@2@@?$list@U?$pair@$$CBW4Level@el@@I@std@@V?$allocator@U?$pair@$$CBW4Level@el@@I@std@@@2@@std@@AEAAXV?$_List_unchecked_const_iterator@V?$_List_val@U?$_List_simple_types@U?$pair@$$CBW4Level@el@@I@std@@@std@@@std@@U_Iterator_base0@2@@1@V21@@Z 000000014018a690 f   yourgame:easylogging++.obj
 0001:001897c0       ?_Forced_rehash@?$_Hash@V?$_Umap_traits@W4Level@el@@IV?$_Uhash_compare@W4Level@el@@U?$hash@W4Level@el@@@std@@U?$equal_to@W4Level@el@@@4@@std@@V?$allocator@U?$pair@$$CBW4Level@el@@I@std@@@4@$0A@@std@@@std@@IEAAX_K@Z 000000014018a7c0 f   yourgame:easylogging++.obj
 0001:001899a0       ?_Xrange@?$vector@PEAVConfiguration@el@@V?$allocator@PEAVConfiguration@el@@@std@@@std@@CAXXZ 000000014018a9a0 f   yourgame:easylogging++.obj
 0001:00189c20       ??$emplace@U?$pair@W4Level@el@@H@std@@@?$_Hash@V?$_Umap_traits@W4Level@el@@IV?$_Uhash_compare@W4Level@el@@U?$hash@W4Level@el@@@std@@U?$equal_to@W4Level@el@@@4@@std@@V?$allocator@U?$pair@$$CBW4Level@el@@I@std@@@4@$0A@@std@@@std@@QEAA?AU?$pair@V?$_List_iterator@V?$_List_val@U?$_List_simple_types@U?$pair@$$CBW4Level@el@@I@std@@@std@@@std@@@std@@_N@1@$$QEAU?$pair@W4Level@el@@H@1@@Z 000000014018ac20 f   yourgame:easylogging++.obj
 0001:0018a070       ??_E?$basic_fstream@DU?$char_traits@D@std@@@std@@$4PPPPPPPM@A@EAAPEAXI@Z 000000014018b070 f   yourgame:easylogging++.obj
 0001:0018a1c0       ??$_Reallocate_grow_by@V<lambda_1>@?0??replace@?$basic_string@DU?$char_traits@D@std@@V?$allocator@D@2@@std@@QEAAAEAV34@_K_KQEBD0@Z@_K_KPEBD_K@?$basic_string@DU?$char_traits@D@std@@V?$allocator@D@2@@std@@AEAAAEAV01@_KV<lambda_1>@?0??replace@01@QEAAAEAV01@0_KQEBD0@Z@11PEBD1@Z 000000014018b1c0 f   yourgame:easylogging++.obj
 0001:0018a400       ?_Unchecked_erase@?$_Hash@V?$_Umap_traits@V?$basic_string@DU?$char_traits@D@std@@V?$allocator@D@2@@std@@V12@V?$_Uhash_compare@V?$basic_string@DU?$char_traits@D@std@@V?$allocator@D@2@@std@@U?$hash@V?$basic_string@DU?$char_traits@D@std@@V?$allocator@D@2@@std@@@2@U?$equal_to@V?$basic_string@DU?$char_traits@D@std@@V?$allocator@D@2@@std@@@2@@2@V?$allocator@U?$pair@$$CBV?$basic_string@DU?$char_traits@D@std@@V?$allocator@D@2@@std@@V12@@std@@@2@$0A@@std@@@std@@AEAAPEAU?$_List_node@U?$pair@$$CBV?$basic_string@DU?$char_traits@D@std@@V?$allocator@D@2@@std@@V12@@std@@PEAX@2@PEAU32@QEAU32@@Z 000000014018b400 f   yourgame:easylogging++.obj
 0001:0018a720       ??$emplace@U?$pair@V?$basic_string@DU?$char_traits@D@std@@V?$allocator@D@2@@std@@V12@@std@@@?$_Hash@V?$_Umap_traits@V?$basic_string@DU?$char_traits@D@std@@V?$allocator@D@2@@std@@V12@V?$_Uhash_compare@V?$basic_string@DU?$char_traits@D@std@@V?$allocator@D@2@@std@@U?$hash@V?$basic_string@DU?$char_traits@D@std@@V?$allocator@D@2@@std@@@2@U?$equal_to@V?$basic_string@DU?$char_traits@D@std@@V?$allocator@D@2@@std@@@2@@2@V?$allocator@U?$pair@$$CBV?$basic_string@DU?$char_traits@D@std@@V?$allocator@D@2@@std@@V12@@std@@@2@$0A@@std@@@std@@QEAA?AU?$pair@V?$_List_iterator@V?$_List_val@U?$_List_simple_types@U?$pair@$$CBV?$basic_string@DU?$char_traits@D@std@@V?$allocator@D@2@@std@@V12@@std@@@std@@@std@@@std@@_N@1@$$QEAU?$pair@V?$basic_string@DU?$char_traits@D@std@@V?$allocator@D@2@@std@@V12@@1@@Z 000000014018b720 f   yourgame:easylogging++.obj
 0001:0018ab80       ??1?$_List_node_emplace_op2@V?$allocator@U?$_List_node@U?$pair@$$CBV?$basic_string@DU?$char_traits@D@std@@V?$allocator@D@2@@std@@V12@@std@@PEAX@std@@@std@@@std@@QEAA@XZ 000000014018bb80 f   yourgame:easylogging++.obj
 0001:0018ac70       ?_Forced_rehash@?$_Hash@V?$_Umap_traits@V?$basic_string@DU?$char_traits@D@std@@V?$allocator@D@2@@std@@V12@V?$_Uhash_compare@V?$basic_string@DU?$char_traits@D@std@@V?$allocator@D@2@@std@@U?$hash@V?$basic_string@DU?$char_traits@D@std@@V?$allocator@D@2@@std@@@2@U?$equal_to@V?$basic_string@DU?$char_traits@D@std@@V?$allocator@D@2@@std@@@2@@2@V?$allocator@U?$pair@$$CBV?$basic_string@DU?$char_traits@D@std@@V?$allocator@D@2@@std@@V12@@std@@@2@$0A@@std@@@std@@IEAAX_K@Z 000000014018bc70 f   yourgame:easylogging++.obj
 0001:0018afc0       ?_Assign_grow@?$_Hash_vec@V?$allocator@V?$_List_unchecked_iterator@V?$_List_val@U?$_List_simple_types@U?$pair@$$CBW4Level@el@@_N@std@@@std@@@std@@@std@@@std@@@std@@QEAAX_KV?$_List_unchecked_iterator@V?$_List_val@U?$_List_simple_types@U?$pair@$$CBW4Level@el@@_N@std@@@std@@@std@@@2@@Z 000000014018bfc0 f   yourgame:easylogging++.obj
 0001:0018b1c0       ?_Assign_grow@?$_Hash_vec@V?$allocator@V?$_List_unchecked_iterator@V?$_List_val@U?$_List_simple_types@U?$pair@$$CBW4Level@el@@VLogFormat@base@2@@std@@@std@@@std@@@std@@@std@@@std@@QEAAX_KV?$_List_unchecked_iterator@V?$_List_val@U?$_List_simple_types@U?$pair@$$CBW4Level@el@@VLogFormat@base@2@@std@@@std@@@std@@@2@@Z 000000014018c1c0 f   yourgame:easylogging++.obj
 0001:0018b3c0       ?_Assign_grow@?$_Hash_vec@V?$allocator@V?$_List_unchecked_iterator@V?$_List_val@U?$_List_simple_types@U?$pair@$$CBW4Level@el@@VSubsecondPrecision@base@2@@std@@@std@@@std@@@std@@@std@@@std@@QEAAX_KV?$_List_unchecked_iterator@V?$_List_val@U?$_List_simple_types@U?$pair@$$CBW4Level@el@@VSubsecondPrecision@base@2@@std@@@std@@@std@@@2@@Z 000000014018c3c0 f   yourgame:easylogging++.obj
 0001:0018b5c0       ?_Assign_grow@?$_Hash_vec@V?$allocator@V?$_List_unchecked_iterator@V?$_List_val@U?$_List_simple_types@U?$pair@$$CBW4Level@el@@_K@std@@@std@@@std@@@std@@@std@@@std@@QEAAX_KV?$_List_unchecked_iterator@V?$_List_val@U?$_List_simple_types@U?$pair@$$CBW4Level@el@@_K@std@@@std@@@std@@@2@@Z 000000014018c5c0 f   yourgame:easylogging++.obj
 0001:0018b7c0       ??$unsafeGetConfigByVal@_N@TypedConfigurations@base@el@@AEAA_NW4Level@2@PEBV?$unordered_map@W4Level@el@@_NU?$hash@W4Level@el@@@std@@U?$equal_to@W4Level@el@@@4@V?$allocator@U?$pair@$$CBW4Level@el@@_N@std@@@4@@std@@PEBD@Z 000000014018c7c0 f   yourgame:easylogging++.obj
 0001:0018b8c0       ??$unsafeGetConfigByRef@VLogFormat@base@el@@@TypedConfigurations@base@el@@AEAAAEAVLogFormat@12@W4Level@2@PEAV?$unordered_map@W4Level@el@@VLogFormat@base@2@U?$hash@W4Level@el@@@std@@U?$equal_to@W4Level@el@@@6@V?$allocator@U?$pair@$$CBW4Level@el@@VLogFormat@base@2@@std@@@6@@std@@PEBD@Z 000000014018c8c0 f   yourgame:easylogging++.obj
 0001:0018b9c0       ??$unsafeGetConfigByRef@VSubsecondPrecision@base@el@@@TypedConfigurations@base@el@@AEAAAEAVSubsecondPrecision@12@W4Level@2@PEAV?$unordered_map@W4Level@el@@VSubsecondPrecision@base@2@U?$hash@W4Level@el@@@std@@U?$equal_to@W4Level@el@@@6@V?$allocator@U?$pair@$$CBW4Level@el@@VSubsecondPrecision@base@2@@std@@@6@@std@@PEBD@Z 000000014018c9c0 f   yourgame:easylogging++.obj
 0001:0018bac0       ??$emplace@U?$pair@W4Level@el@@_N@std@@@?$_Hash@V?$_Umap_traits@W4Level@el@@_NV?$_Uhash_compare@W4Level@el@@U?$hash@W4Level@el@@@std@@U?$equal_to@W4Level@el@@@4@@std@@V?$allocator@U?$pair@$$CBW4Level@el@@_N@std@@@4@$0A@@std@@@std@@QEAA?AU?$pair@V?$_List_iterator@V?$_List_val@U?$_List_simple_types@U?$pair@$$CBW4Level@el@@_N@std@@@std@@@std@@@std@@_N@1@$$QEAU?$pair@W4Level@el@@_N@1@@Z 000000014018cac0 f   yourgame:easylogging++.obj
 0001:0018bd70       ?_Forced_rehash@?$_Hash@V?$_Umap_traits@W4Level@el@@_NV?$_Uhash_compare@W4Level@el@@U?$hash@W4Level@el@@@std@@U?$equal_to@W4Level@el@@@4@@std@@V?$allocator@U?$pair@$$CBW4Level@el@@_N@std@@@4@$0A@@std@@@std@@IEAAX_K@Z 000000014018cd70 f   yourgame:easylogging++.obj
 0001:0018bf50       ??$emplace@U?$pair@W4Level@el@@VLogFormat@base@2@@std@@@?$_Hash@V?$_Umap_traits@W4Level@el@@VLogFormat@base@2@V?$_Uhash_compare@W4Level@el@@U?$hash@W4Level@el@@@std@@U?$equal_to@W4Level@el@@@4@@std@@V?$allocator@U?$pair@$$CBW4Level@el@@VLogFormat@base@2@@std@@@6@$0A@@std@@@std@@QEAA?AU?$pair@V?$_List_iterator@V?$_List_val@U?$_List_simple_types@U?$pair@$$CBW4Level@el@@VLogFormat@base@2@@std@@@std@@@std@@@std@@_N@1@$$QEAU?$pair@W4Level@el@@VLogFormat@base@2@@1@@Z 000000014018cf50 f   yourgame:easylogging++.obj
 0001:0018c200       ?_Forced_rehash@?$_Hash@V?$_Umap_traits@W4Level@el@@VLogFormat@base@2@V?$_Uhash_compare@W4Level@el@@U?$hash@W4Level@el@@@std@@U?$equal_to@W4Level@el@@@4@@std@@V?$allocator@U?$pair@$$CBW4Level@el@@VLogFormat@base@2@@std@@@6@$0A@@std@@@std@@IEAAX_K@Z 000000014018d200 f   yourgame:easylogging++.obj
 0001:0018c3e0       ??$emplace@U?$pair@W4Level@el@@VSubsecondPrecision@base@2@@std@@@?$_Hash@V?$_Umap_traits@W4Level@el@@VSubsecondPrecision@base@2@V?$_Uhash_compare@W4Level@el@@U?$hash@W4Level@el@@@std@@U?$equal_to@W4Level@el@@@4@@std@@V?$allocator@U?$pair@$$CBW4Level@el@@VSubsecondPrecision@base@2@@std@@@6@$0A@@std@@@std@@QEAA?AU?$pair@V?$_List_iterator@V?$_List_val@U?$_List_simple_types@U?$pair@$$CBW4Level@el@@VSubsecondPrecision@base@2@@std@@@std@@@std@@@std@@_N@1@$$QEAU?$pair@W4Level@el@@VSubsecondPrecision@base@2@@1@@Z 000000014018d3e0 f   yourgame:easylogging++.obj
 0001:0018c690       ?_Forced_rehash@?$_Hash@V?$_Umap_traits@W4Level@el@@VSubsecondPrecision@base@2@V?$_Uhash_compare@W4Level@el@@U?$hash@W4Level@el@@@std@@U?$equal_to@W4Level@el@@@4@@std@@V?$allocator@U?$pair@$$CBW4Level@el@@VSubsecondPrecision@base@2@@std@@@6@$0A@@std@@@std@@IEAAX_K@Z 000000014018d690 f   yourgame:easylogging++.obj
 0001:0018c870       ??$emplace@U?$pair@W4Level@el@@_K@std@@@?$_Hash@V?$_Umap_traits@W4Level@el@@_KV?$_Uhash_compare@W4Level@el@@U?$hash@W4Level@el@@@std@@U?$equal_to@W4Level@el@@@4@@std@@V?$allocator@U?$pair@$$CBW4Level@el@@_K@std@@@4@$0A@@std@@@std@@QEAA?AU?$pair@V?$_List_iterator@V?$_List_val@U?$_List_simple_types@U?$pair@$$CBW4Level@el@@_K@std@@@std@@@std@@@std@@_N@1@$$QEAU?$pair@W4Level@el@@_K@1@@Z 000000014018d870 f   yourgame:easylogging++.obj
 0001:0018cb20       ?_Forced_rehash@?$_Hash@V?$_Umap_traits@W4Level@el@@_KV?$_Uhash_compare@W4Level@el@@U?$hash@W4Level@el@@@std@@U?$equal_to@W4Level@el@@@4@@std@@V?$allocator@U?$pair@$$CBW4Level@el@@_K@std@@@4@$0A@@std@@@std@@IEAAX_K@Z 000000014018db20 f   yourgame:easylogging++.obj
 0001:0018cd00       ??$_Emplace_reallocate@AEBQEAVConfiguration@el@@@?$vector@PEAVConfiguration@el@@V?$allocator@PEAVConfiguration@el@@@std@@@std@@AEAAPEAPEAVConfiguration@el@@QEAPEAV23@AEBQEAV23@@Z 000000014018dd00 f   yourgame:easylogging++.obj
 0001:0018ceb0       ?_Copy@?$_Func_impl_no_alloc@P6AXPEBD_K@ZXPEBD_K@std@@EEBAPEAV?$_Func_base@XPEBD_K@2@PEAX@Z 000000014018deb0 f   yourgame:easylogging++.obj
 0001:0018cee0       ?_Move@?$_Func_impl_no_alloc@P6AXPEBD_K@ZXPEBD_K@std@@EEAAPEAV?$_Func_base@XPEBD_K@2@PEAX@Z 000000014018dee0 f   yourgame:easylogging++.obj
 0001:0018cf10       ?_Do_call@?$_Func_impl_no_alloc@P6AXPEBD_K@ZXPEBD_K@std@@EEAAX$$QEAPEBD$$QEA_K@Z 000000014018df10 f   yourgame:easylogging++.obj
 0001:0018cf40       ?_Target_type@?$_Func_impl_no_alloc@P6AXPEBD_K@ZXPEBD_K@std@@EEBAAEBVtype_info@@XZ 000000014018df40 f   yourgame:easylogging++.obj
 0001:0018cf60       ?_Delete_this@?$_Func_impl_no_alloc@P6AXPEBD_K@ZXPEBD_K@std@@EEAAX_N@Z 000000014018df60 f   yourgame:easylogging++.obj
 0001:0018cf90       ?_Get@?$_Func_impl_no_alloc@P6AXPEBD_K@ZXPEBD_K@std@@EEBAPEBXXZ 000000014018df90 f   yourgame:easylogging++.obj
 0001:0018cfb0       ??_G?$Registry@VLogger@el@@V?$basic_string@DU?$char_traits@D@std@@V?$allocator@D@2@@std@@@utils@base@el@@UEAAPEAXI@Z 000000014018dfb0 f   yourgame:easylogging++.obj
 0001:0018cff0       ??_G?$AbstractRegistry@VLogger@el@@V?$unordered_map@V?$basic_string@DU?$char_traits@D@std@@V?$allocator@D@2@@std@@PEAVLogger@el@@U?$hash@V?$basic_string@DU?$char_traits@D@std@@V?$allocator@D@2@@std@@@2@U?$equal_to@V?$basic_string@DU?$char_traits@D@std@@V?$allocator@D@2@@std@@@2@V?$allocator@U?$pair@$$CBV?$basic_string@DU?$char_traits@D@std@@V?$allocator@D@2@@std@@PEAVLogger@el@@@std@@@2@@std@@@utils@base@el@@UEAAPEAXI@Z 000000014018dff0 f   yourgame:easylogging++.obj
 0001:0018d000       ?_Assign_grow@?$_Hash_vec@V?$allocator@V?$_List_unchecked_iterator@V?$_List_val@U?$_List_simple_types@U?$pair@$$CBV?$basic_string@DU?$char_traits@D@std@@V?$allocator@D@2@@std@@PEAVLogger@el@@@std@@@std@@@std@@@std@@@std@@@std@@QEAAX_KV?$_List_unchecked_iterator@V?$_List_val@U?$_List_simple_types@U?$pair@$$CBV?$basic_string@DU?$char_traits@D@std@@V?$allocator@D@2@@std@@PEAVLogger@el@@@std@@@std@@@std@@@2@@Z 000000014018e000 f   yourgame:easylogging++.obj
 0001:0018d200       ??1?$Registry@VLogger@el@@V?$basic_string@DU?$char_traits@D@std@@V?$allocator@D@2@@std@@@utils@base@el@@UEAA@XZ 000000014018e200 f   yourgame:easylogging++.obj
 0001:0018d310       ?_Tidy@?$list@U?$pair@$$CBV?$basic_string@DU?$char_traits@D@std@@V?$allocator@D@2@@std@@PEAVLogger@el@@@std@@V?$allocator@U?$pair@$$CBV?$basic_string@DU?$char_traits@D@std@@V?$allocator@D@2@@std@@PEAVLogger@el@@@std@@@2@@std@@AEAAXXZ 000000014018e310 f   yourgame:easylogging++.obj
 0001:0018d3c0       ?_Assign_grow@?$_Hash_vec@V?$allocator@V?$_List_unchecked_iterator@V?$_List_val@U?$_List_simple_types@U?$pair@$$CBV?$basic_string@DU?$char_traits@D@std@@V?$allocator@D@2@@std@@V?$shared_ptr@VLogDispatchCallback@el@@@2@@std@@@std@@@std@@@std@@@std@@@std@@QEAAX_KV?$_List_unchecked_iterator@V?$_List_val@U?$_List_simple_types@U?$pair@$$CBV?$basic_string@DU?$char_traits@D@std@@V?$allocator@D@2@@std@@V?$shared_ptr@VLogDispatchCallback@el@@@2@@std@@@std@@@std@@@2@@Z 000000014018e3c0 f   yourgame:easylogging++.obj
 0001:0018d5c0       ??$installCallback@VDefaultLogDispatchCallback@base@el@@V?$shared_ptr@VLogDispatchCallback@el@@@std@@@Utils@utils@base@el@@SA_NAEBV?$basic_string@DU?$char_traits@D@std@@V?$allocator@D@2@@std@@PEAV?$unordered_map@V?$basic_string@DU?$char_traits@D@std@@V?$allocator@D@2@@std@@V?$shared_ptr@VLogDispatchCallback@el@@@2@U?$hash@V?$basic_string@DU?$char_traits@D@std@@V?$allocator@D@2@@std@@@2@U?$equal_to@V?$basic_string@DU?$char_traits@D@std@@V?$allocator@D@2@@std@@@2@V?$allocator@U?$pair@$$CBV?$basic_string@DU?$char_traits@D@std@@V?$allocator@D@2@@std@@V?$shared_ptr@VLogDispatchCallback@el@@@2@@std@@@2@@5@@Z 000000014018e5c0 f   yourgame:easylogging++.obj
 0001:0018d9d0       ??$emplace@U?$pair@V?$basic_string@DU?$char_traits@D@std@@V?$allocator@D@2@@std@@V?$shared_ptr@VLogDispatchCallback@el@@@2@@std@@@?$_Hash@V?$_Umap_traits@V?$basic_string@DU?$char_traits@D@std@@V?$allocator@D@2@@std@@V?$shared_ptr@VLogDispatchCallback@el@@@2@V?$_Uhash_compare@V?$basic_string@DU?$char_traits@D@std@@V?$allocator@D@2@@std@@U?$hash@V?$basic_string@DU?$char_traits@D@std@@V?$allocator@D@2@@std@@@2@U?$equal_to@V?$basic_string@DU?$char_traits@D@std@@V?$allocator@D@2@@std@@@2@@2@V?$allocator@U?$pair@$$CBV?$basic_string@DU?$char_traits@D@std@@V?$allocator@D@2@@std@@V?$shared_ptr@VLogDispatchCallback@el@@@2@@std@@@2@$0A@@std@@@std@@QEAA?AU?$pair@V?$_List_iterator@V?$_List_val@U?$_List_simple_types@U?$pair@$$CBV?$basic_string@DU?$char_traits@D@std@@V?$allocator@D@2@@std@@V?$shared_ptr@VLogDispatchCallback@el@@@2@@std@@@std@@@std@@@std@@_N@1@$$QEAU?$pair@V?$basic_string@DU?$char_traits@D@std@@V?$allocator@D@2@@std@@V?$shared_ptr@VLogDispatchCallback@el@@@2@@1@@Z 000000014018e9d0 f   yourgame:easylogging++.obj
 0001:0018de20       ??1?$_List_node_emplace_op2@V?$allocator@U?$_List_node@U?$pair@$$CBV?$basic_string@DU?$char_traits@D@std@@V?$allocator@D@2@@std@@V?$shared_ptr@VLogDispatchCallback@el@@@2@@std@@PEAX@std@@@std@@@std@@QEAA@XZ 000000014018ee20 f   yourgame:easylogging++.obj
 0001:0018def0       ?_Forced_rehash@?$_Hash@V?$_Umap_traits@V?$basic_string@DU?$char_traits@D@std@@V?$allocator@D@2@@std@@V?$shared_ptr@VLogDispatchCallback@el@@@2@V?$_Uhash_compare@V?$basic_string@DU?$char_traits@D@std@@V?$allocator@D@2@@std@@U?$hash@V?$basic_string@DU?$char_traits@D@std@@V?$allocator@D@2@@std@@@2@U?$equal_to@V?$basic_string@DU?$char_traits@D@std@@V?$allocator@D@2@@std@@@2@@2@V?$allocator@U?$pair@$$CBV?$basic_string@DU?$char_traits@D@std@@V?$allocator@D@2@@std@@V?$shared_ptr@VLogDispatchCallback@el@@@2@@std@@@2@$0A@@std@@@std@@IEAAX_K@Z 000000014018eef0 f   yourgame:easylogging++.obj
 0001:0018e240       ??_GDefaultLogDispatchCallback@base@el@@UEAAPEAXI@Z 000000014018f240 f   yourgame:easylogging++.obj
 0001:0018e310       ??_GLogDispatchCallback@el@@UEAAPEAXI@Z 000000014018f310 f   yourgame:easylogging++.obj
 0001:0018e3e0       ??_G?$Callback@VLogDispatchData@el@@@el@@UEAAPEAXI@Z 000000014018f3e0 f   yourgame:easylogging++.obj
 0001:0018e3f0       ??$_Free_non_head@V?$allocator@U?$_List_node@U?$pair@$$CBV?$basic_string@DU?$char_traits@D@std@@V?$allocator@D@2@@std@@V?$unique_ptr@VNoMutex@internal@threading@base@el@@U?$default_delete@VNoMutex@internal@threading@base@el@@@std@@@2@@std@@PEAX@std@@@std@@@?$_List_node@U?$pair@$$CBV?$basic_string@DU?$char_traits@D@std@@V?$allocator@D@2@@std@@V?$unique_ptr@VNoMutex@internal@threading@base@el@@U?$default_delete@VNoMutex@internal@threading@base@el@@@std@@@2@@std@@PEAX@std@@SAXAEAV?$allocator@U?$_List_node@U?$pair@$$CBV?$basic_string@DU?$char_traits@D@std@@V?$allocator@D@2@@std@@V?$unique_ptr@VNoMutex@internal@threading@base@el@@U?$default_delete@VNoMutex@internal@threading@base@el@@@std@@@2@@std@@PEAX@std@@@1@PEAU01@@Z 000000014018f3f0 f   yourgame:easylogging++.obj
 0001:0018e4b0       ?_Destroy@?$_Ref_count@VDefaultLogDispatchCallback@base@el@@@std@@EEAAXXZ 000000014018f4b0 f   yourgame:easylogging++.obj
 0001:0018e4e0       ?_Delete_this@?$_Ref_count@VDefaultLogDispatchCallback@base@el@@@std@@EEAAXXZ 000000014018f4e0 f   yourgame:easylogging++.obj
 0001:0018e510       ??_G?$_Ref_count@VDefaultLogDispatchCallback@base@el@@@std@@UEAAPEAXI@Z 000000014018f510 f   yourgame:easylogging++.obj
 0001:0018e540       ??$_Emplace_reallocate@AEBVCustomFormatSpecifier@el@@@?$vector@VCustomFormatSpecifier@el@@V?$allocator@VCustomFormatSpecifier@el@@@std@@@std@@AEAAPEAVCustomFormatSpecifier@el@@QEAV23@AEBV23@@Z 000000014018f540 f   yourgame:easylogging++.obj
 0001:0018e8e0       ?_Xrange@?$vector@V?$basic_string@DU?$char_traits@D@std@@V?$allocator@D@2@@std@@V?$allocator@V?$basic_string@DU?$char_traits@D@std@@V?$allocator@D@2@@std@@@2@@std@@CAXXZ 000000014018f8e0 f   yourgame:easylogging++.obj
 0001:0018e910       ??1Logger@el@@UEAA@XZ      000000014018f910 f   yourgame:easylogging++.obj
 0001:0018ec70       ??1TypedConfigurations@base@el@@UEAA@XZ 000000014018fc70 f   yourgame:easylogging++.obj
 0001:0018f270       ?_Tidy@?$list@U?$pair@$$CBW4Level@el@@V?$basic_string@DU?$char_traits@D@std@@V?$allocator@D@2@@std@@@std@@V?$allocator@U?$pair@$$CBW4Level@el@@V?$basic_string@DU?$char_traits@D@std@@V?$allocator@D@2@@std@@@std@@@2@@std@@AEAAXXZ 0000000140190270 f   yourgame:easylogging++.obj
 0001:0018f320       ??1RegisteredLoggers@base@el@@UEAA@XZ 0000000140190320 f   yourgame:easylogging++.obj
 0001:0018f550       ??$_Free_non_head@V?$allocator@U?$_List_node@U?$pair@$$CBV?$basic_string@DU?$char_traits@D@std@@V?$allocator@D@2@@std@@V?$shared_ptr@VLoggerRegistrationCallback@el@@@2@@std@@PEAX@std@@@std@@@?$_List_node@U?$pair@$$CBV?$basic_string@DU?$char_traits@D@std@@V?$allocator@D@2@@std@@V?$shared_ptr@VLoggerRegistrationCallback@el@@@2@@std@@PEAX@std@@SAXAEAV?$allocator@U?$_List_node@U?$pair@$$CBV?$basic_string@DU?$char_traits@D@std@@V?$allocator@D@2@@std@@V?$shared_ptr@VLoggerRegistrationCallback@el@@@2@@std@@PEAX@std@@@1@PEAU01@@Z 0000000140190550 f   yourgame:easylogging++.obj
 0001:0018f620       ?clear@?$_Hash@V?$_Umap_traits@V?$basic_string@DU?$char_traits@D@std@@V?$allocator@D@2@@std@@PEAVLogger@el@@V?$_Uhash_compare@V?$basic_string@DU?$char_traits@D@std@@V?$allocator@D@2@@std@@U?$hash@V?$basic_string@DU?$char_traits@D@std@@V?$allocator@D@2@@std@@@2@U?$equal_to@V?$basic_string@DU?$char_traits@D@std@@V?$allocator@D@2@@std@@@2@@2@V?$allocator@U?$pair@$$CBV?$basic_string@DU?$char_traits@D@std@@V?$allocator@D@2@@std@@PEAVLogger@el@@@std@@@2@$0A@@std@@@std@@QEAAXXZ 0000000140190620 f   yourgame:easylogging++.obj
 0001:0018f790       ?_Unchecked_erase@?$_Hash@V?$_Umap_traits@V?$basic_string@DU?$char_traits@D@std@@V?$allocator@D@2@@std@@PEAVLogger@el@@V?$_Uhash_compare@V?$basic_string@DU?$char_traits@D@std@@V?$allocator@D@2@@std@@U?$hash@V?$basic_string@DU?$char_traits@D@std@@V?$allocator@D@2@@std@@@2@U?$equal_to@V?$basic_string@DU?$char_traits@D@std@@V?$allocator@D@2@@std@@@2@@2@V?$allocator@U?$pair@$$CBV?$basic_string@DU?$char_traits@D@std@@V?$allocator@D@2@@std@@PEAVLogger@el@@@std@@@2@$0A@@std@@@std@@AEAAPEAU?$_List_node@U?$pair@$$CBV?$basic_string@DU?$char_traits@D@std@@V?$allocator@D@2@@std@@PEAVLogger@el@@@std@@PEAX@2@PEAU32@QEAU32@@Z 0000000140190790 f   yourgame:easylogging++.obj
 0001:0018fb10       ??$emplace@U?$pair@V?$basic_string@DU?$char_traits@D@std@@V?$allocator@D@2@@std@@PEAVLogger@el@@@std@@@?$_Hash@V?$_Umap_traits@V?$basic_string@DU?$char_traits@D@std@@V?$allocator@D@2@@std@@PEAVLogger@el@@V?$_Uhash_compare@V?$basic_string@DU?$char_traits@D@std@@V?$allocator@D@2@@std@@U?$hash@V?$basic_string@DU?$char_traits@D@std@@V?$allocator@D@2@@std@@@2@U?$equal_to@V?$basic_string@DU?$char_traits@D@std@@V?$allocator@D@2@@std@@@2@@2@V?$allocator@U?$pair@$$CBV?$basic_string@DU?$char_traits@D@std@@V?$allocator@D@2@@std@@PEAVLogger@el@@@std@@@2@$0A@@std@@@std@@QEAA?AU?$pair@V?$_List_iterator@V?$_List_val@U?$_List_simple_types@U?$pair@$$CBV?$basic_string@DU?$char_traits@D@std@@V?$allocator@D@2@@std@@PEAVLogger@el@@@std@@@std@@@std@@@std@@_N@1@$$QEAU?$pair@V?$basic_string@DU?$char_traits@D@std@@V?$allocator@D@2@@std@@PEAVLogger@el@@@1@@Z 0000000140190b10 f   yourgame:easylogging++.obj
 0001:0018ff00       ?_Forced_rehash@?$_Hash@V?$_Umap_traits@V?$basic_string@DU?$char_traits@D@std@@V?$allocator@D@2@@std@@PEAVLogger@el@@V?$_Uhash_compare@V?$basic_string@DU?$char_traits@D@std@@V?$allocator@D@2@@std@@U?$hash@V?$basic_string@DU?$char_traits@D@std@@V?$allocator@D@2@@std@@@2@U?$equal_to@V?$basic_string@DU?$char_traits@D@std@@V?$allocator@D@2@@std@@@2@@2@V?$allocator@U?$pair@$$CBV?$basic_string@DU?$char_traits@D@std@@V?$allocator@D@2@@std@@PEAVLogger@el@@@std@@@2@$0A@@std@@@std@@IEAAX_K@Z 0000000140190f00 f   yourgame:easylogging++.obj
 0001:00190250       ?_Tidy@?$list@U?$pair@$$CBV?$basic_string@DU?$char_traits@D@std@@V?$allocator@D@2@@std@@G@std@@V?$allocator@U?$pair@$$CBV?$basic_string@DU?$char_traits@D@std@@V?$allocator@D@2@@std@@G@std@@@2@@std@@AEAAXXZ 0000000140191250 f   yourgame:easylogging++.obj
 0001:00190300       ??1TextureAtlas@gl@yourgame@@QEAA@XZ 0000000140191300 f   yourgame:textureatlas.obj
 0001:00190410       ?pushTexture@TextureAtlas@gl@yourgame@@QEAAXPEAVTexture@23@@Z 0000000140191410 f   yourgame:textureatlas.obj
 0001:00190480       ?pushCoords@TextureAtlas@gl@yourgame@@QEAAXV?$basic_string@DU?$char_traits@D@std@@V?$allocator@D@2@@std@@MMMM@Z 0000000140191480 f   yourgame:textureatlas.obj
 0001:00190b70       ?getCoords@TextureAtlas@gl@yourgame@@QEBA?AU?$pair@PEAVTexture@gl@yourgame@@V?$array@M$03@std@@@std@@V?$basic_string@DU?$char_traits@D@std@@V?$allocator@D@2@@5@@Z 0000000140191b70 f   yourgame:textureatlas.obj
 0001:00190c30       ?getCoords@TextureAtlas@gl@yourgame@@QEBA?AU?$pair@PEAVTexture@gl@yourgame@@V?$array@M$03@std@@@std@@V?$basic_string@DU?$char_traits@D@std@@V?$allocator@D@2@@5@H@Z 0000000140191c30 f   yourgame:textureatlas.obj
 0001:00190f10       ?getSeqFrames@TextureAtlas@gl@yourgame@@QEBAHV?$basic_string@DU?$char_traits@D@std@@V?$allocator@D@2@@std@@@Z 0000000140191f10 f   yourgame:textureatlas.obj
 0001:00190fb0       ?getSequenceNames@TextureAtlas@gl@yourgame@@QEBA?AV?$vector@V?$basic_string@DU?$char_traits@D@std@@V?$allocator@D@2@@std@@V?$allocator@V?$basic_string@DU?$char_traits@D@std@@V?$allocator@D@2@@std@@@2@@std@@XZ 0000000140191fb0 f   yourgame:textureatlas.obj
 0001:00191190       ?texture@TextureAtlas@gl@yourgame@@QEBAPEAVTexture@23@H@Z 0000000140192190 f   yourgame:textureatlas.obj
 0001:001911d0       ??$_Erase_tree@V?$allocator@U?$_Tree_node@U?$pair@$$CBV?$basic_string@DU?$char_traits@D@std@@V?$allocator@D@2@@std@@USequence@TextureAtlas@gl@yourgame@@@std@@PEAX@std@@@std@@@?$_Tree_val@U?$_Tree_simple_types@U?$pair@$$CBV?$basic_string@DU?$char_traits@D@std@@V?$allocator@D@2@@std@@USequence@TextureAtlas@gl@yourgame@@@std@@@std@@@std@@QEAAXAEAV?$allocator@U?$_Tree_node@U?$pair@$$CBV?$basic_string@DU?$char_traits@D@std@@V?$allocator@D@2@@std@@USequence@TextureAtlas@gl@yourgame@@@std@@PEAX@std@@@1@PEAU?$_Tree_node@U?$pair@$$CBV?$basic_string@DU?$char_traits@D@std@@V?$allocator@D@2@@std@@USequence@TextureAtlas@gl@yourgame@@@std@@PEAX@1@@Z 00000001401921d0 f   yourgame:textureatlas.obj
 0001:00191250       ??$_Freenode@V?$allocator@U?$_Tree_node@U?$pair@$$CBV?$basic_string@DU?$char_traits@D@std@@V?$allocator@D@2@@std@@USequence@TextureAtlas@gl@yourgame@@@std@@PEAX@std@@@std@@@?$_Tree_node@U?$pair@$$CBV?$basic_string@DU?$char_traits@D@std@@V?$allocator@D@2@@std@@USequence@TextureAtlas@gl@yourgame@@@std@@PEAX@std@@SAXAEAV?$allocator@U?$_Tree_node@U?$pair@$$CBV?$basic_string@DU?$char_traits@D@std@@V?$allocator@D@2@@std@@USequence@TextureAtlas@gl@yourgame@@@std@@PEAX@std@@@1@PEAU01@@Z 0000000140192250 f   yourgame:textureatlas.obj
 0001:001912f0       ??$_Erase_tree@V?$allocator@U?$_Tree_node@U?$pair@$$CBHV?$basic_string@DU?$char_traits@D@std@@V?$allocator@D@2@@std@@@std@@PEAX@std@@@std@@@?$_Tree_val@U?$_Tree_simple_types@U?$pair@$$CBHV?$basic_string@DU?$char_traits@D@std@@V?$allocator@D@2@@std@@@std@@@std@@@std@@QEAAXAEAV?$allocator@U?$_Tree_node@U?$pair@$$CBHV?$basic_string@DU?$char_traits@D@std@@V?$allocator@D@2@@std@@@std@@PEAX@std@@@1@PEAU?$_Tree_node@U?$pair@$$CBHV?$basic_string@DU?$char_traits@D@std@@V?$allocator@D@2@@std@@@std@@PEAX@1@@Z 00000001401922f0 f   yourgame:textureatlas.obj
 0001:001913b0       ??$_Erase_tree@V?$allocator@U?$_Tree_node@U?$pair@$$CBV?$basic_string@DU?$char_traits@D@std@@V?$allocator@D@2@@std@@UCoords@TextureAtlas@gl@yourgame@@@std@@PEAX@std@@@std@@@?$_Tree_val@U?$_Tree_simple_types@U?$pair@$$CBV?$basic_string@DU?$char_traits@D@std@@V?$allocator@D@2@@std@@UCoords@TextureAtlas@gl@yourgame@@@std@@@std@@@std@@QEAAXAEAV?$allocator@U?$_Tree_node@U?$pair@$$CBV?$basic_string@DU?$char_traits@D@std@@V?$allocator@D@2@@std@@UCoords@TextureAtlas@gl@yourgame@@@std@@PEAX@std@@@1@PEAU?$_Tree_node@U?$pair@$$CBV?$basic_string@DU?$char_traits@D@std@@V?$allocator@D@2@@std@@UCoords@TextureAtlas@gl@yourgame@@@std@@PEAX@1@@Z 00000001401923b0 f   yourgame:textureatlas.obj
 0001:00191470       ??$_Emplace_reallocate@AEBQEAVTexture@gl@yourgame@@@?$vector@PEAVTexture@gl@yourgame@@V?$allocator@PEAVTexture@gl@yourgame@@@std@@@std@@AEAAPEAPEAVTexture@gl@yourgame@@QEAPEAV234@AEBQEAV234@@Z 0000000140192470 f   yourgame:textureatlas.obj
 0001:00191620       ??$_Try_emplace@AEBV?$basic_string@DU?$char_traits@D@std@@V?$allocator@D@2@@std@@$$V@?$map@V?$basic_string@DU?$char_traits@D@std@@V?$allocator@D@2@@std@@UCoords@TextureAtlas@gl@yourgame@@U?$less@V?$basic_string@DU?$char_traits@D@std@@V?$allocator@D@2@@std@@@2@V?$allocator@U?$pair@$$CBV?$basic_string@DU?$char_traits@D@std@@V?$allocator@D@2@@std@@UCoords@TextureAtlas@gl@yourgame@@@std@@@2@@std@@AEAA?AU?$pair@PEAU?$_Tree_node@U?$pair@$$CBV?$basic_string@DU?$char_traits@D@std@@V?$allocator@D@2@@std@@UCoords@TextureAtlas@gl@yourgame@@@std@@PEAX@std@@_N@1@AEBV?$basic_string@DU?$char_traits@D@std@@V?$allocator@D@2@@1@@Z 0000000140192620 f   yourgame:textureatlas.obj
 0001:00191850       ?_Insert_node@?$_Tree_val@U?$_Tree_simple_types@U?$pair@$$CBV?$basic_string@DU?$char_traits@D@std@@V?$allocator@D@2@@std@@UCoords@TextureAtlas@gl@yourgame@@@std@@@std@@@std@@QEAAPEAU?$_Tree_node@U?$pair@$$CBV?$basic_string@DU?$char_traits@D@std@@V?$allocator@D@2@@std@@UCoords@TextureAtlas@gl@yourgame@@@std@@PEAX@2@U?$_Tree_id@PEAU?$_Tree_node@U?$pair@$$CBV?$basic_string@DU?$char_traits@D@std@@V?$allocator@D@2@@std@@UCoords@TextureAtlas@gl@yourgame@@@std@@PEAX@std@@@2@QEAU32@@Z 0000000140192850 f   yourgame:textureatlas.obj
 0001:00191ab0       ??$?0V?$tuple@AEBV?$basic_string@DU?$char_traits@D@std@@V?$allocator@D@2@@std@@@std@@V?$tuple@$$V@1@$0A@$$Z$S@?$pair@$$CBV?$basic_string@DU?$char_traits@D@std@@V?$allocator@D@2@@std@@UCoords@TextureAtlas@gl@yourgame@@@std@@QEAA@AEAV?$tuple@AEBV?$basic_string@DU?$char_traits@D@std@@V?$allocator@D@2@@std@@@1@AEAV?$tuple@$$V@1@U?$integer_sequence@_K$0A@@1@U?$integer_sequence@_K$S@1@@Z 0000000140192ab0 f   yourgame:textureatlas.obj
 0001:00191bc0       ??$_Try_emplace@V?$basic_string@DU?$char_traits@D@std@@V?$allocator@D@2@@std@@$$V@?$map@V?$basic_string@DU?$char_traits@D@std@@V?$allocator@D@2@@std@@USequence@TextureAtlas@gl@yourgame@@U?$less@V?$basic_string@DU?$char_traits@D@std@@V?$allocator@D@2@@std@@@2@V?$allocator@U?$pair@$$CBV?$basic_string@DU?$char_traits@D@std@@V?$allocator@D@2@@std@@USequence@TextureAtlas@gl@yourgame@@@std@@@2@@std@@AEAA?AU?$pair@PEAU?$_Tree_node@U?$pair@$$CBV?$basic_string@DU?$char_traits@D@std@@V?$allocator@D@2@@std@@USequence@TextureAtlas@gl@yourgame@@@std@@PEAX@std@@_N@1@$$QEAV?$basic_string@DU?$char_traits@D@std@@V?$allocator@D@2@@1@@Z 0000000140192bc0 f   yourgame:textureatlas.obj
 0001:00191e30       ??1?$_Tree_temp_node@V?$allocator@U?$_Tree_node@U?$pair@$$CBV?$basic_string@DU?$char_traits@D@std@@V?$allocator@D@2@@std@@USequence@TextureAtlas@gl@yourgame@@@std@@PEAX@std@@@std@@@std@@QEAA@XZ 0000000140192e30 f   yourgame:textureatlas.obj
 0001:00191f00       ?_Insert_node@?$_Tree_val@U?$_Tree_simple_types@U?$pair@$$CBV?$basic_string@DU?$char_traits@D@std@@V?$allocator@D@2@@std@@USequence@TextureAtlas@gl@yourgame@@@std@@@std@@@std@@QEAAPEAU?$_Tree_node@U?$pair@$$CBV?$basic_string@DU?$char_traits@D@std@@V?$allocator@D@2@@std@@USequence@TextureAtlas@gl@yourgame@@@std@@PEAX@2@U?$_Tree_id@PEAU?$_Tree_node@U?$pair@$$CBV?$basic_string@DU?$char_traits@D@std@@V?$allocator@D@2@@std@@USequence@TextureAtlas@gl@yourgame@@@std@@PEAX@std@@@2@QEAU32@@Z 0000000140192f00 f   yourgame:textureatlas.obj
 0001:00192160       ??$_Try_emplace@AEBH$$V@?$map@HV?$basic_string@DU?$char_traits@D@std@@V?$allocator@D@2@@std@@U?$less@H@2@V?$allocator@U?$pair@$$CBHV?$basic_string@DU?$char_traits@D@std@@V?$allocator@D@2@@std@@@std@@@2@@std@@AEAA?AU?$pair@PEAU?$_Tree_node@U?$pair@$$CBHV?$basic_string@DU?$char_traits@D@std@@V?$allocator@D@2@@std@@@std@@PEAX@std@@_N@1@AEBH@Z 0000000140193160 f   yourgame:textureatlas.obj
 0001:001922c0       ?_Insert_node@?$_Tree_val@U?$_Tree_simple_types@U?$pair@$$CBHV?$basic_string@DU?$char_traits@D@std@@V?$allocator@D@2@@std@@@std@@@std@@@std@@QEAAPEAU?$_Tree_node@U?$pair@$$CBHV?$basic_string@DU?$char_traits@D@std@@V?$allocator@D@2@@std@@@std@@PEAX@2@U?$_Tree_id@PEAU?$_Tree_node@U?$pair@$$CBHV?$basic_string@DU?$char_traits@D@std@@V?$allocator@D@2@@std@@@std@@PEAX@std@@@2@QEAU32@@Z 00000001401932c0 f   yourgame:textureatlas.obj
 0001:00192520       ??$_Find@V?$basic_string@DU?$char_traits@D@std@@V?$allocator@D@2@@std@@@?$_Tree@V?$_Tmap_traits@V?$basic_string@DU?$char_traits@D@std@@V?$allocator@D@2@@std@@UCoords@TextureAtlas@gl@yourgame@@U?$less@V?$basic_string@DU?$char_traits@D@std@@V?$allocator@D@2@@std@@@2@V?$allocator@U?$pair@$$CBV?$basic_string@DU?$char_traits@D@std@@V?$allocator@D@2@@std@@UCoords@TextureAtlas@gl@yourgame@@@std@@@2@$0A@@std@@@std@@AEBAPEAU?$_Tree_node@U?$pair@$$CBV?$basic_string@DU?$char_traits@D@std@@V?$allocator@D@2@@std@@UCoords@TextureAtlas@gl@yourgame@@@std@@PEAX@1@AEBV?$basic_string@DU?$char_traits@D@std@@V?$allocator@D@2@@1@@Z 0000000140193520 f   yourgame:textureatlas.obj
 0001:00192660       ??$_Find@V?$basic_string@DU?$char_traits@D@std@@V?$allocator@D@2@@std@@@?$_Tree@V?$_Tmap_traits@V?$basic_string@DU?$char_traits@D@std@@V?$allocator@D@2@@std@@USequence@TextureAtlas@gl@yourgame@@U?$less@V?$basic_string@DU?$char_traits@D@std@@V?$allocator@D@2@@std@@@2@V?$allocator@U?$pair@$$CBV?$basic_string@DU?$char_traits@D@std@@V?$allocator@D@2@@std@@USequence@TextureAtlas@gl@yourgame@@@std@@@2@$0A@@std@@@std@@AEBAPEAU?$_Tree_node@U?$pair@$$CBV?$basic_string@DU?$char_traits@D@std@@V?$allocator@D@2@@std@@USequence@TextureAtlas@gl@yourgame@@@std@@PEAX@1@AEBV?$basic_string@DU?$char_traits@D@std@@V?$allocator@D@2@@1@@Z 0000000140193660 f   yourgame:textureatlas.obj
 0001:001927a0       ?_Xrange@?$vector@PEAVTexture@gl@yourgame@@V?$allocator@PEAVTexture@gl@yourgame@@@std@@@std@@CAXXZ 00000001401937a0 f   yourgame:textureatlas.obj
 0001:00192820       ?init@log@yourgame_internal@@YAXHQEAPEAD@Z 0000000140193820 f   yourgame:log.obj
 0001:00192860       ??_GDefaultLogBuilder@base@el@@UEAAPEAXI@Z 0000000140193860 f   yourgame:log.obj
 0001:001928a0       ??_GLogBuilder@el@@UEAAPEAXI@Z 00000001401938a0 f   yourgame:log.obj
 0001:001928b0       ?_Destroy@?$_Ref_count@VDefaultLogBuilder@base@el@@@std@@EEAAXXZ 00000001401938b0 f   yourgame:log.obj
 0001:001928e0       ?_Delete_this@?$_Ref_count@VDefaultLogBuilder@base@el@@@std@@EEAAXXZ 00000001401938e0 f   yourgame:log.obj
 0001:00192910       ??_G?$_Ref_count@VDefaultLogBuilder@base@el@@@std@@UEAAPEAXI@Z 0000000140193910 f   yourgame:log.obj
 0001:00192940       ?_Destroy@?$_Ref_count@VStorage@base@el@@@std@@EEAAXXZ 0000000140193940 f   yourgame:log.obj
 0001:00192970       ?_Delete_this@?$_Ref_count@VStorage@base@el@@@std@@EEAAXXZ 0000000140193970 f   yourgame:log.obj
 0001:001929a0       ??_G?$_Ref_count@VStorage@base@el@@@std@@UEAAPEAXI@Z 00000001401939a0 f   yourgame:log.obj
 0001:00192b00       ?make@Buffer@gl@yourgame@@SAPEAV123@I_JPEBXI@Z 0000000140193b00 f   yourgame:buffer.obj
 0001:00192c10       ??1Buffer@gl@yourgame@@QEAA@XZ 0000000140193c10 f   yourgame:buffer.obj
 0001:00192c40       ?bind@Buffer@gl@yourgame@@QEAAXXZ 0000000140193c40 f   yourgame:buffer.obj
 0001:00192c70       ?unbindTarget@Buffer@gl@yourgame@@QEAAXXZ 0000000140193c70 f   yourgame:buffer.obj
 0001:00192ca0       ?bufferData@Buffer@gl@yourgame@@QEAA_N_JPEBX@Z 0000000140193ca0 f   yourgame:buffer.obj
 0001:00192d50       ?make@Shape@gl@yourgame@@SAPEAV123@V?$vector@UArrBufferDescr@Shape@gl@yourgame@@V?$allocator@UArrBufferDescr@Shape@gl@yourgame@@@std@@@std@@V?$vector@PEAVBuffer@gl@yourgame@@V?$allocator@PEAVBuffer@gl@yourgame@@@std@@@5@UElemArrBufferDescr@123@PEAVBuffer@23@@Z 0000000140193d50 f   yourgame:shape.obj
 0001:00192f70       ?setElArDescr@Shape@gl@yourgame@@QEAA_NUElemArrBufferDescr@123@@Z 0000000140193f70 f   yourgame:shape.obj
 0001:00192f90       ?addArrBuf@Shape@gl@yourgame@@QEAA_NUArrBufferDescr@123@PEAVBuffer@23@@Z 0000000140193f90 f   yourgame:shape.obj
 0001:00193030       ??1Shape@gl@yourgame@@QEAA@XZ 0000000140194030 f   yourgame:shape.obj
 0001:00193060       ?draw@Shape@gl@yourgame@@QEAAXXZ 0000000140194060 f   yourgame:shape.obj
 0001:001930b0       ?drawInstanced@Shape@gl@yourgame@@QEAAXH@Z 00000001401940b0 f   yourgame:shape.obj
 0001:00193100       _glfw_strdup               0000000140194100 f   glfw3:init.obj
 0001:00193140       _glfw_fminf                0000000140194140 f   glfw3:init.obj
 0001:00193170       _glfw_fmaxf                0000000140194170 f   glfw3:init.obj
 0001:001931a0       _glfwInputError            00000001401941a0 f   glfw3:init.obj
 0001:001934a0       glfwInit                   00000001401944a0 f   glfw3:init.obj
 0001:00193700       glfwTerminate              0000000140194700 f   glfw3:init.obj
 0001:00193730       glfwInitHint               0000000140194730 f   glfw3:init.obj
 0001:00193790       glfwGetVersion             0000000140194790 f   glfw3:init.obj
 0001:001937c0       glfwGetVersionString       00000001401947c0 f   glfw3:init.obj
 0001:001937e0       glfwGetError               00000001401947e0 f   glfw3:init.obj
 0001:00193850       glfwSetErrorCallback       0000000140194850 f   glfw3:init.obj
 0001:00193870       _glfwInputWindowFocus      0000000140194870 f   glfw3:window.obj
 0001:00193a10       _glfwInputWindowPos        0000000140194a10 f   glfw3:window.obj
 0001:00193a40       _glfwInputWindowSize       0000000140194a40 f   glfw3:window.obj
 0001:00193a70       _glfwInputWindowIconify    0000000140194a70 f   glfw3:window.obj
 0001:00193aa0       _glfwInputWindowMaximize   0000000140194aa0 f   glfw3:window.obj
 0001:00193ad0       _glfwInputFramebufferSize  0000000140194ad0 f   glfw3:window.obj
 0001:00193b00       _glfwInputWindowContentScale 0000000140194b00 f   glfw3:window.obj
 0001:00193b30       _glfwInputWindowDamage     0000000140194b30 f   glfw3:window.obj
 0001:00193b60       _glfwInputWindowCloseRequest 0000000140194b60 f   glfw3:window.obj
 0001:00193b90       _glfwInputWindowMonitor    0000000140194b90 f   glfw3:window.obj
 0001:00193bb0       glfwCreateWindow           0000000140194bb0 f   glfw3:window.obj
 0001:00193f80       glfwDestroyWindow          0000000140194f80 f   glfw3:window.obj
 0001:00194050       glfwDefaultWindowHints     0000000140195050 f   glfw3:window.obj
 0001:00194140       glfwWindowHint             0000000140195140 f   glfw3:window.obj
 0001:001944d0       glfwWindowHintString       00000001401954d0 f   glfw3:window.obj
 0001:00194550       glfwWindowShouldClose      0000000140195550 f   glfw3:window.obj
 0001:00194590       glfwSetWindowShouldClose   0000000140195590 f   glfw3:window.obj
 0001:001945c0       glfwSetWindowTitle         00000001401955c0 f   glfw3:window.obj
 0001:001945f0       glfwSetWindowIcon          00000001401955f0 f   glfw3:window.obj
 0001:00194620       glfwGetWindowPos           0000000140195620 f   glfw3:window.obj
 0001:00194670       glfwSetWindowPos           0000000140195670 f   glfw3:window.obj
 0001:001946b0       glfwGetWindowSize          00000001401956b0 f   glfw3:window.obj
 0001:00194700       glfwSetWindowSize          0000000140195700 f   glfw3:window.obj
 0001:00194740       glfwSetWindowSizeLimits    0000000140195740 f   glfw3:window.obj
 0001:00194800       glfwSetWindowAspectRatio   0000000140195800 f   glfw3:window.obj
 0001:00194880       glfwGetFramebufferSize     0000000140195880 f   glfw3:window.obj
 0001:001948d0       glfwGetWindowFrameSize     00000001401958d0 f   glfw3:window.obj
 0001:00194940       glfwGetWindowContentScale  0000000140195940 f   glfw3:window.obj
 0001:00194990       glfwGetWindowOpacity       0000000140195990 f   glfw3:window.obj
 0001:001949d0       glfwSetWindowOpacity       00000001401959d0 f   glfw3:window.obj
 0001:00194a30       glfwIconifyWindow          0000000140195a30 f   glfw3:window.obj
 0001:00194a60       glfwRestoreWindow          0000000140195a60 f   glfw3:window.obj
 0001:00194a90       glfwMaximizeWindow         0000000140195a90 f   glfw3:window.obj
 0001:00194ad0       glfwShowWindow             0000000140195ad0 f   glfw3:window.obj
 0001:00194b20       glfwRequestWindowAttention 0000000140195b20 f   glfw3:window.obj
 0001:00194b50       glfwHideWindow             0000000140195b50 f   glfw3:window.obj
 0001:00194b90       glfwFocusWindow            0000000140195b90 f   glfw3:window.obj
 0001:00194bc0       glfwGetWindowAttrib        0000000140195bc0 f   glfw3:window.obj
 0001:00194d60       glfwSetWindowAttrib        0000000140195d60 f   glfw3:window.obj
 0001:00194e40       glfwGetWindowMonitor       0000000140195e40 f   glfw3:window.obj
 0001:00194e80       glfwSetWindowMonitor       0000000140195e80 f   glfw3:window.obj
 0001:00194f20       glfwSetWindowUserPointer   0000000140195f20 f   glfw3:window.obj
 0001:00194f50       glfwGetWindowUserPointer   0000000140195f50 f   glfw3:window.obj
 0001:00194f90       glfwSetWindowPosCallback   0000000140195f90 f   glfw3:window.obj
 0001:00194fd0       glfwSetWindowSizeCallback  0000000140195fd0 f   glfw3:window.obj
 0001:00195010       glfwSetWindowCloseCallback 0000000140196010 f   glfw3:window.obj
 0001:00195050       glfwSetWindowRefreshCallback 0000000140196050 f   glfw3:window.obj
 0001:00195090       glfwSetWindowFocusCallback 0000000140196090 f   glfw3:window.obj
 0001:001950d0       glfwSetWindowIconifyCallback 00000001401960d0 f   glfw3:window.obj
 0001:00195110       glfwSetWindowMaximizeCallback 0000000140196110 f   glfw3:window.obj
 0001:00195150       glfwSetFramebufferSizeCallback 0000000140196150 f   glfw3:window.obj
 0001:00195190       glfwSetWindowContentScaleCallback 0000000140196190 f   glfw3:window.obj
 0001:001951d0       glfwPollEvents             00000001401961d0 f   glfw3:window.obj
 0001:00195200       glfwWaitEvents             0000000140196200 f   glfw3:window.obj
 0001:00195230       glfwWaitEventsTimeout      0000000140196230 f   glfw3:window.obj
 0001:00195290       glfwPostEmptyEvent         0000000140196290 f   glfw3:window.obj
 0001:001952c0       _glfwInputMonitor          00000001401962c0 f   glfw3:monitor.obj
 0001:001954b0       _glfwFreeMonitor           00000001401964b0 f   glfw3:monitor.obj
 0001:00195530       _glfwInputMonitorWindow    0000000140196530 f   glfw3:monitor.obj
 0001:00195550       _glfwAllocMonitor          0000000140196550 f   glfw3:monitor.obj
 0001:001955b0       _glfwFreeGammaArrays       00000001401965b0 f   glfw3:monitor.obj
 0001:001955f0       _glfwAllocGammaArrays      00000001401965f0 f   glfw3:monitor.obj
 0001:00195650       _glfwChooseVideoMode       0000000140196650 f   glfw3:monitor.obj
 0001:00195840       _glfwCompareVideoModes     0000000140196840 f   glfw3:monitor.obj
 0001:001958c0       _glfwSplitBPP              00000001401968c0 f   glfw3:monitor.obj
 0001:00195910       glfwGetMonitors            0000000140196910 f   glfw3:monitor.obj
 0001:00195960       glfwGetPrimaryMonitor      0000000140196960 f   glfw3:monitor.obj
 0001:001959b0       glfwGetMonitorPos          00000001401969b0 f   glfw3:monitor.obj
 0001:00195a00       glfwGetMonitorWorkarea     0000000140196a00 f   glfw3:monitor.obj
 0001:00195a70       glfwGetMonitorPhysicalSize 0000000140196a70 f   glfw3:monitor.obj
 0001:00195ad0       glfwGetMonitorContentScale 0000000140196ad0 f   glfw3:monitor.obj
 0001:00195b20       glfwGetMonitorName         0000000140196b20 f   glfw3:monitor.obj
 0001:00195b60       glfwSetMonitorUserPointer  0000000140196b60 f   glfw3:monitor.obj
 0001:00195b90       glfwGetMonitorUserPointer  0000000140196b90 f   glfw3:monitor.obj
 0001:00195bd0       glfwSetMonitorCallback     0000000140196bd0 f   glfw3:monitor.obj
 0001:00195c10       glfwGetVideoModes          0000000140196c10 f   glfw3:monitor.obj
 0001:00195cd0       glfwGetVideoMode           0000000140196cd0 f   glfw3:monitor.obj
 0001:00195d10       glfwSetGamma               0000000140196d10 f   glfw3:monitor.obj
 0001:00195f10       glfwGetGammaRamp           0000000140196f10 f   glfw3:monitor.obj
 0001:00195f90       glfwSetGammaRamp           0000000140196f90 f   glfw3:monitor.obj
 0001:00196010       _glfwIsValidContextConfig  0000000140197010 f   glfw3:context.obj
 0001:001961e0       _glfwChooseFBConfig        00000001401971e0 f   glfw3:context.obj
 0001:00196420       _glfwRefreshContextAttribs 0000000140197420 f   glfw3:context.obj
 0001:00196970       glfwMakeContextCurrent     0000000140197970 f   glfw3:context.obj
 0001:00196a00       glfwExtensionSupported     0000000140197a00 f   glfw3:context.obj
 0001:00196ba0       _glfwStringInExtensionString 0000000140197ba0 f   glfw3:context.obj
 0001:00196c30       glfwGetCurrentContext      0000000140197c30 f   glfw3:context.obj
 0001:00196c70       glfwSwapBuffers            0000000140197c70 f   glfw3:context.obj
 0001:00196cc0       glfwSwapInterval           0000000140197cc0 f   glfw3:context.obj
 0001:00196d20       glfwGetProcAddress         0000000140197d20 f   glfw3:context.obj
 0001:00196d80       _glfwInputKey              0000000140197d80 f   glfw3:input.obj
 0001:00196e20       _glfwInputChar             0000000140197e20 f   glfw3:input.obj
 0001:00196e90       _glfwInputScroll           0000000140197e90 f   glfw3:input.obj
 0001:00196ec0       _glfwInputMouseClick       0000000140197ec0 f   glfw3:input.obj
 0001:00196f10       _glfwInputCursorPos        0000000140197f10 f   glfw3:input.obj
 0001:00196f70       _glfwInputCursorEnter      0000000140197f70 f   glfw3:input.obj
 0001:00196fa0       _glfwInputDrop             0000000140197fa0 f   glfw3:input.obj
 0001:00196fd0       _glfwInputJoystick         0000000140197fd0 f   glfw3:input.obj
 0001:00197010       _glfwInputJoystickAxis     0000000140198010 f   glfw3:input.obj
 0001:00197030       _glfwInputJoystickButton   0000000140198030 f   glfw3:input.obj
 0001:00197050       _glfwInputJoystickHat      0000000140198050 f   glfw3:input.obj
 0001:001970c0       _glfwAllocJoystick         00000001401980c0 f   glfw3:input.obj
 0001:00197560       _glfwFreeJoystick          0000000140198560 f   glfw3:input.obj
 0001:001975e0       _glfwCenterCursorInContentArea 00000001401985e0 f   glfw3:input.obj
 0001:00197650       glfwGetInputMode           0000000140198650 f   glfw3:input.obj
 0001:001976f0       glfwSetInputMode           00000001401986f0 f   glfw3:input.obj
 0001:00197e50       glfwRawMouseMotionSupported 0000000140198e50 f   glfw3:input.obj
 0001:00197e90       glfwGetKeyName             0000000140198e90 f   glfw3:input.obj
 0001:00197ef0       glfwGetKeyScancode         0000000140198ef0 f   glfw3:input.obj
 0001:00197f50       glfwGetKey                 0000000140198f50 f   glfw3:input.obj
 0001:00197fd0       glfwGetMouseButton         0000000140198fd0 f   glfw3:input.obj
 0001:00198040       glfwGetCursorPos           0000000140199040 f   glfw3:input.obj
 0001:001980c0       glfwSetCursorPos           00000001401990c0 f   glfw3:input.obj
 0001:001981a0       glfwCreateCursor           00000001401991a0 f   glfw3:input.obj
 0001:00198230       glfwDestroyCursor          0000000140199230 f   glfw3:input.obj
 0001:001982f0       glfwCreateStandardCursor   00000001401992f0 f   glfw3:input.obj
 0001:00198390       glfwSetCursor              0000000140199390 f   glfw3:input.obj
 0001:001983d0       glfwSetKeyCallback         00000001401993d0 f   glfw3:input.obj
 0001:00198410       glfwSetCharCallback        0000000140199410 f   glfw3:input.obj
 0001:00198450       glfwSetCharModsCallback    0000000140199450 f   glfw3:input.obj
 0001:00198490       glfwSetMouseButtonCallback 0000000140199490 f   glfw3:input.obj
 0001:001984d0       glfwSetCursorPosCallback   00000001401994d0 f   glfw3:input.obj
 0001:00198510       glfwSetCursorEnterCallback 0000000140199510 f   glfw3:input.obj
 0001:00198550       glfwSetScrollCallback      0000000140199550 f   glfw3:input.obj
 0001:00198590       glfwSetDropCallback        0000000140199590 f   glfw3:input.obj
 0001:001985d0       glfwJoystickPresent        00000001401995d0 f   glfw3:input.obj
 0001:00198650       glfwGetJoystickAxes        0000000140199650 f   glfw3:input.obj
 0001:00198700       glfwGetJoystickButtons     0000000140199700 f   glfw3:input.obj
 0001:001987c0       glfwGetJoystickHats        00000001401997c0 f   glfw3:input.obj
 0001:00198870       glfwGetJoystickName        0000000140199870 f   glfw3:input.obj
 0001:00198900       glfwGetJoystickGUID        0000000140199900 f   glfw3:input.obj
 0001:001989a0       glfwSetJoystickUserPointer 00000001401999a0 f   glfw3:input.obj
 0001:001989f0       glfwGetJoystickUserPointer 00000001401999f0 f   glfw3:input.obj
 0001:00198a50       glfwSetJoystickCallback    0000000140199a50 f   glfw3:input.obj
 0001:00198a90       glfwUpdateGamepadMappings  0000000140199a90 f   glfw3:input.obj
 0001:001994a0       glfwJoystickIsGamepad      000000014019a4a0 f   glfw3:input.obj
 0001:00199540       glfwGetGamepadName         000000014019a540 f   glfw3:input.obj
 0001:001995d0       glfwGetGamepadState        000000014019a5d0 f   glfw3:input.obj
 0001:00199880       glfwSetClipboardString     000000014019a880 f   glfw3:input.obj
 0001:001998c0       glfwGetClipboardString     000000014019a8c0 f   glfw3:input.obj
 0001:00199900       glfwGetTime                000000014019a900 f   glfw3:input.obj
 0001:001999b0       glfwSetTime                000000014019a9b0 f   glfw3:input.obj
 0001:00199a80       glfwGetTimerValue          000000014019aa80 f   glfw3:input.obj
 0001:00199ac0       glfwGetTimerFrequency      000000014019aac0 f   glfw3:input.obj
 0001:00199c40       ?initInput@yourgame_internal_desktop@@YAXPEAUGLFWwindow@@@Z 000000014019ac40 f   yourgame:input.cpp.obj
 0001:00199fe0       ?tickInput@yourgame_internal_desktop@@YAXXZ 000000014019afe0 f   yourgame:input.cpp.obj
 0001:0019a320       ??$_Erase_tree@V?$allocator@U?$_Tree_node@U?$pair@$$CBHW4Source@input@yourgame@@@std@@PEAX@std@@@std@@@?$_Tree_val@U?$_Tree_simple_types@U?$pair@$$CBHW4Source@input@yourgame@@@std@@@std@@@std@@QEAAXAEAV?$allocator@U?$_Tree_node@U?$pair@$$CBHW4Source@input@yourgame@@@std@@PEAX@std@@@1@PEAU?$_Tree_node@U?$pair@$$CBHW4Source@input@yourgame@@@std@@PEAX@1@@Z 000000014019b320 f   yourgame:input.cpp.obj
 0001:0019a3a0       ??$_Erase_tree@V?$allocator@U?$_Tree_node@U?$pair@$$CBHU?$pair@W4Source@input@yourgame@@W4123@@std@@@std@@PEAX@std@@@std@@@?$_Tree_val@U?$_Tree_simple_types@U?$pair@$$CBHU?$pair@W4Source@input@yourgame@@W4123@@std@@@std@@@std@@@std@@QEAAXAEAV?$allocator@U?$_Tree_node@U?$pair@$$CBHU?$pair@W4Source@input@yourgame@@W4123@@std@@@std@@PEAX@std@@@1@PEAU?$_Tree_node@U?$pair@$$CBHU?$pair@W4Source@input@yourgame@@W4123@@std@@@std@@PEAX@1@@Z 000000014019b3a0 f   yourgame:input.cpp.obj
 0001:0019a420       ??$insert@PEBU?$pair@$$CBHW4Source@input@yourgame@@@std@@@?$_Tree@V?$_Tmap_traits@HW4Source@input@yourgame@@U?$less@H@std@@V?$allocator@U?$pair@$$CBHW4Source@input@yourgame@@@std@@@5@$0A@@std@@@std@@QEAAXPEBU?$pair@$$CBHW4Source@input@yourgame@@@1@0@Z 000000014019b420 f   yourgame:input.cpp.obj
 0001:0019a570       ??$_Find_hint@H@?$_Tree@V?$_Tmap_traits@HW4Source@input@yourgame@@U?$less@H@std@@V?$allocator@U?$pair@$$CBHW4Source@input@yourgame@@@std@@@5@$0A@@std@@@std@@IEBA?AU?$_Tree_find_hint_result@PEAU?$_Tree_node@U?$pair@$$CBHW4Source@input@yourgame@@@std@@PEAX@std@@@1@QEAU?$_Tree_node@U?$pair@$$CBHW4Source@input@yourgame@@@std@@PEAX@1@AEBH@Z 000000014019b570 f   yourgame:input.cpp.obj
 0001:0019a780       ?_Insert_node@?$_Tree_val@U?$_Tree_simple_types@U?$pair@$$CBHW4Source@input@yourgame@@@std@@@std@@@std@@QEAAPEAU?$_Tree_node@U?$pair@$$CBHW4Source@input@yourgame@@@std@@PEAX@2@U?$_Tree_id@PEAU?$_Tree_node@U?$pair@$$CBHW4Source@input@yourgame@@@std@@PEAX@std@@@2@QEAU32@@Z 000000014019b780 f   yourgame:input.cpp.obj
 0001:0019a9e0       ??$insert@PEBU?$pair@$$CBHU?$pair@W4Source@input@yourgame@@W4123@@std@@@std@@@?$_Tree@V?$_Tmap_traits@HU?$pair@W4Source@input@yourgame@@W4123@@std@@U?$less@H@2@V?$allocator@U?$pair@$$CBHU?$pair@W4Source@input@yourgame@@W4123@@std@@@std@@@2@$0A@@std@@@std@@QEAAXPEBU?$pair@$$CBHU?$pair@W4Source@input@yourgame@@W4123@@std@@@1@0@Z 000000014019b9e0 f   yourgame:input.cpp.obj
 0001:0019ab30       ??$_Find_hint@H@?$_Tree@V?$_Tmap_traits@HU?$pair@W4Source@input@yourgame@@W4123@@std@@U?$less@H@2@V?$allocator@U?$pair@$$CBHU?$pair@W4Source@input@yourgame@@W4123@@std@@@std@@@2@$0A@@std@@@std@@IEBA?AU?$_Tree_find_hint_result@PEAU?$_Tree_node@U?$pair@$$CBHU?$pair@W4Source@input@yourgame@@W4123@@std@@@std@@PEAX@std@@@1@QEAU?$_Tree_node@U?$pair@$$CBHU?$pair@W4Source@input@yourgame@@W4123@@std@@@std@@PEAX@1@AEBH@Z 000000014019bb30 f   yourgame:input.cpp.obj
 0001:0019ad40       ?_Insert_node@?$_Tree_val@U?$_Tree_simple_types@U?$pair@$$CBHU?$pair@W4Source@input@yourgame@@W4123@@std@@@std@@@std@@@std@@QEAAPEAU?$_Tree_node@U?$pair@$$CBHU?$pair@W4Source@input@yourgame@@W4123@@std@@@std@@PEAX@2@U?$_Tree_id@PEAU?$_Tree_node@U?$pair@$$CBHU?$pair@W4Source@input@yourgame@@W4123@@std@@@std@@PEAX@std@@@2@QEAU32@@Z 000000014019bd40 f   yourgame:input.cpp.obj
 0001:0019b210       ?StyleColorsDark@ImGui@@YAXPEAUImGuiStyle@@@Z 000000014019c210 f   yourgame:imgui_draw.obj
 0001:0019b740       ?StyleColorsClassic@ImGui@@YAXPEAUImGuiStyle@@@Z 000000014019c740 f   yourgame:imgui_draw.obj
 0001:0019bc90       ?StyleColorsLight@ImGui@@YAXPEAUImGuiStyle@@@Z 000000014019cc90 f   yourgame:imgui_draw.obj
 0001:0019c1c0       ??0ImDrawListSharedData@@QEAA@XZ 000000014019d1c0 f   yourgame:imgui_draw.obj
 0001:0019c2f0       ?SetCircleTessellationMaxError@ImDrawListSharedData@@QEAAXM@Z 000000014019d2f0 f   yourgame:imgui_draw.obj
 0001:0019c420       ?_ResetForNewFrame@ImDrawList@@QEAAXXZ 000000014019d420 f   yourgame:imgui_draw.obj
 0001:0019c740       ?_ClearFreeMemory@ImDrawList@@QEAAXXZ 000000014019d740 f   yourgame:imgui_draw.obj
 0001:0019c840       ?ClearFreeMemory@ImDrawListSplitter@@QEAAXXZ 000000014019d840 f   yourgame:imgui_draw.obj
 0001:0019c930       ?CloneOutput@ImDrawList@@QEBAPEAU1@XZ 000000014019d930 f   yourgame:imgui_draw.obj
 0001:0019cbb0       ?AddDrawCmd@ImDrawList@@QEAAXXZ 000000014019dbb0 f   yourgame:imgui_draw.obj
 0001:0019cce0       ?_PopUnusedDrawCmd@ImDrawList@@QEAAXXZ 000000014019dce0 f   yourgame:imgui_draw.obj
 0001:0019cd20       ?AddCallback@ImDrawList@@QEAAXP6AXPEBU1@PEBUImDrawCmd@@@ZPEAX@Z 000000014019dd20 f   yourgame:imgui_draw.obj
 0001:0019cd90       ?_OnChangedClipRect@ImDrawList@@QEAAXXZ 000000014019dd90 f   yourgame:imgui_draw.obj
 0001:0019ce40       ?_OnChangedTextureID@ImDrawList@@QEAAXXZ 000000014019de40 f   yourgame:imgui_draw.obj
 0001:0019cee0       ?_OnChangedVtxOffset@ImDrawList@@QEAAXXZ 000000014019dee0 f   yourgame:imgui_draw.obj
 0001:0019cf30       ?_CalcCircleAutoSegmentCount@ImDrawList@@QEBAHM@Z 000000014019df30 f   yourgame:imgui_draw.obj
 0001:0019cff0       ?PushClipRect@ImDrawList@@QEAAXUImVec2@@0_N@Z 000000014019dff0 f   yourgame:imgui_draw.obj
 0001:0019d1f0       ?PushClipRectFullScreen@ImDrawList@@QEAAXXZ 000000014019e1f0 f   yourgame:imgui_draw.obj
 0001:0019d220       ?PopClipRect@ImDrawList@@QEAAXXZ 000000014019e220 f   yourgame:imgui_draw.obj
 0001:0019d300       ?PushTextureID@ImDrawList@@QEAAXPEAX@Z 000000014019e300 f   yourgame:imgui_draw.obj
 0001:0019d440       ?PopTextureID@ImDrawList@@QEAAXXZ 000000014019e440 f   yourgame:imgui_draw.obj
 0001:0019d500       ?PrimReserve@ImDrawList@@QEAAXHH@Z 000000014019e500 f   yourgame:imgui_draw.obj
 0001:0019d6c0       ?PrimUnreserve@ImDrawList@@QEAAXHH@Z 000000014019e6c0 f   yourgame:imgui_draw.obj
 0001:0019d6f0       ?PrimRect@ImDrawList@@QEAAXAEBUImVec2@@0I@Z 000000014019e6f0 f   yourgame:imgui_draw.obj
 0001:0019d7e0       ?PrimRectUV@ImDrawList@@QEAAXAEBUImVec2@@000I@Z 000000014019e7e0 f   yourgame:imgui_draw.obj
 0001:0019d900       ?PrimQuadUV@ImDrawList@@QEAAXAEBUImVec2@@0000000I@Z 000000014019e900 f   yourgame:imgui_draw.obj
 0001:0019da10       ?AddPolyline@ImDrawList@@QEAAXPEBUImVec2@@HIHM@Z 000000014019ea10 f   yourgame:imgui_draw.obj
 0001:0019e630       ?AddConvexPolyFilled@ImDrawList@@QEAAXPEBUImVec2@@HI@Z 000000014019f630 f   yourgame:imgui_draw.obj
 0001:0019eb50       ?_PathArcToFastEx@ImDrawList@@QEAAXAEBUImVec2@@MHHH@Z 000000014019fb50 f   yourgame:imgui_draw.obj
 0001:0019ef80       ?_PathArcToN@ImDrawList@@QEAAXAEBUImVec2@@MMMH@Z 000000014019ff80 f   yourgame:imgui_draw.obj
 0001:0019f290       ?PathArcToFast@ImDrawList@@QEAAXAEBUImVec2@@MHH@Z 00000001401a0290 f   yourgame:imgui_draw.obj
 0001:0019f390       ?PathArcTo@ImDrawList@@QEAAXAEBUImVec2@@MMMH@Z 00000001401a0390 f   yourgame:imgui_draw.obj
 0001:0019f920       ?ImBezierCubicCalc@@YA?AUImVec2@@AEBU1@000M@Z 00000001401a0920 f   yourgame:imgui_draw.obj
 0001:0019f9c0       ?ImBezierQuadraticCalc@@YA?AUImVec2@@AEBU1@00M@Z 00000001401a09c0 f   yourgame:imgui_draw.obj
 0001:0019fa30       ?PathBezierCubicCurveTo@ImDrawList@@QEAAXAEBUImVec2@@00H@Z 00000001401a0a30 f   yourgame:imgui_draw.obj
 0001:001a0010       ?PathBezierQuadraticCurveTo@ImDrawList@@QEAAXAEBUImVec2@@0H@Z 00000001401a1010 f   yourgame:imgui_draw.obj
 0001:001a0540       ?PathRect@ImDrawList@@QEAAXAEBUImVec2@@0MH@Z 00000001401a1540 f   yourgame:imgui_draw.obj
 0001:001a0a40       ?AddLine@ImDrawList@@QEAAXAEBUImVec2@@0IM@Z 00000001401a1a40 f   yourgame:imgui_draw.obj
 0001:001a0c20       ?AddRect@ImDrawList@@QEAAXAEBUImVec2@@0IMHM@Z 00000001401a1c20 f   yourgame:imgui_draw.obj
 0001:001a0d60       ?AddRectFilled@ImDrawList@@QEAAXAEBUImVec2@@0IMH@Z 00000001401a1d60 f   yourgame:imgui_draw.obj
 0001:001a0ef0       ?AddRectFilledMultiColor@ImDrawList@@QEAAXAEBUImVec2@@0IIII@Z 00000001401a1ef0 f   yourgame:imgui_draw.obj
 0001:001a1090       ?AddQuad@ImDrawList@@QEAAXAEBUImVec2@@000IM@Z 00000001401a2090 f   yourgame:imgui_draw.obj
 0001:001a13b0       ?AddQuadFilled@ImDrawList@@QEAAXAEBUImVec2@@000I@Z 00000001401a23b0 f   yourgame:imgui_draw.obj
 0001:001a16b0       ?AddTriangle@ImDrawList@@QEAAXAEBUImVec2@@00IM@Z 00000001401a26b0 f   yourgame:imgui_draw.obj
 0001:001a1920       ?AddTriangleFilled@ImDrawList@@QEAAXAEBUImVec2@@00I@Z 00000001401a2920 f   yourgame:imgui_draw.obj
 0001:001a1b80       ?AddCircle@ImDrawList@@QEAAXAEBUImVec2@@MIHM@Z 00000001401a2b80 f   yourgame:imgui_draw.obj
 0001:001a1d70       ?AddCircleFilled@ImDrawList@@QEAAXAEBUImVec2@@MIH@Z 00000001401a2d70 f   yourgame:imgui_draw.obj
 0001:001a1f20       ?AddNgon@ImDrawList@@QEAAXAEBUImVec2@@MIHM@Z 00000001401a2f20 f   yourgame:imgui_draw.obj
 0001:001a1ff0       ?AddNgonFilled@ImDrawList@@QEAAXAEBUImVec2@@MIH@Z 00000001401a2ff0 f   yourgame:imgui_draw.obj
 0001:001a2090       ?AddBezierCubic@ImDrawList@@QEAAXAEBUImVec2@@000IMH@Z 00000001401a3090 f   yourgame:imgui_draw.obj
 0001:001a21f0       ?AddBezierQuadratic@ImDrawList@@QEAAXAEBUImVec2@@00IMH@Z 00000001401a31f0 f   yourgame:imgui_draw.obj
 0001:001a2340       ?AddText@ImDrawList@@QEAAXPEBUImFont@@MAEBUImVec2@@IPEBD2MPEBUImVec4@@@Z 00000001401a3340 f   yourgame:imgui_draw.obj
 0001:001a2490       ?RenderText@ImFont@@QEBAXPEAUImDrawList@@MUImVec2@@IAEBUImVec4@@PEBD3M_N@Z 00000001401a3490 f   yourgame:imgui_draw.obj
 0001:001a2c20       ?AddText@ImDrawList@@QEAAXAEBUImVec2@@IPEBD1@Z 00000001401a3c20 f   yourgame:imgui_draw.obj
 0001:001a2d00       ?AddImage@ImDrawList@@QEAAXPEAXAEBUImVec2@@111I@Z 00000001401a3d00 f   yourgame:imgui_draw.obj
 0001:001a3040       ?AddImageQuad@ImDrawList@@QEAAXPEAXAEBUImVec2@@1111111I@Z 00000001401a4040 f   yourgame:imgui_draw.obj
 0001:001a3340       ?AddImageRounded@ImDrawList@@QEAAXPEAXAEBUImVec2@@111IMH@Z 00000001401a4340 f   yourgame:imgui_draw.obj
 0001:001a3ba0       ?ShadeVertsLinearUV@ImGui@@YAXPEAUImDrawList@@HHAEBUImVec2@@111_N@Z 00000001401a4ba0 f   yourgame:imgui_draw.obj
 0001:001a4150       ?Split@ImDrawListSplitter@@QEAAXPEAUImDrawList@@H@Z 00000001401a5150 f   yourgame:imgui_draw.obj
 0001:001a4330       ?Merge@ImDrawListSplitter@@QEAAXPEAUImDrawList@@@Z 00000001401a5330 f   yourgame:imgui_draw.obj
 0001:001a4800       ?SetCurrentChannel@ImDrawListSplitter@@QEAAXPEAUImDrawList@@H@Z 00000001401a5800 f   yourgame:imgui_draw.obj
 0001:001a48f0       ?DeIndexAllBuffers@ImDrawData@@QEAAXXZ 00000001401a58f0 f   yourgame:imgui_draw.obj
 0001:001a4b00       ?ScaleClipRects@ImDrawData@@QEAAXAEBUImVec2@@@Z 00000001401a5b00 f   yourgame:imgui_draw.obj
 0001:001a4b70       ?ShadeVertsLinearColorGradientKeepAlpha@ImGui@@YAXPEAUImDrawList@@HHUImVec2@@1II@Z 00000001401a5b70 f   yourgame:imgui_draw.obj
 0001:001a5020       ??0ImFontConfig@@QEAA@XZ   00000001401a6020 f   yourgame:imgui_draw.obj
 0001:001a5090       ??0ImFontAtlas@@QEAA@XZ    00000001401a6090 f   yourgame:imgui_draw.obj
 0001:001a50e0       ??1ImFontAtlas@@QEAA@XZ    00000001401a60e0 f   yourgame:imgui_draw.obj
 0001:001a5140       ?Clear@ImFontAtlas@@QEAAXXZ 00000001401a6140 f   yourgame:imgui_draw.obj
 0001:001a5200       ?ClearInputData@ImFontAtlas@@QEAAXXZ 00000001401a6200 f   yourgame:imgui_draw.obj
 0001:001a5320       ?ClearTexData@ImFontAtlas@@QEAAXXZ 00000001401a6320 f   yourgame:imgui_draw.obj
 0001:001a5370       ?ClearFonts@ImFontAtlas@@QEAAXXZ 00000001401a6370 f   yourgame:imgui_draw.obj
 0001:001a5400       ?GetTexDataAsAlpha8@ImFontAtlas@@QEAAXPEAPEAEPEAH11@Z 00000001401a6400 f   yourgame:imgui_draw.obj
 0001:001a55e0       ?AddFontDefault@ImFontAtlas@@QEAAPEAUImFont@@PEBUImFontConfig@@@Z 00000001401a65e0 f   yourgame:imgui_draw.obj
 0001:001a57a0       ?Build@ImFontAtlas@@QEAA_NXZ 00000001401a67a0 f   yourgame:imgui_draw.obj
 0001:001a57e0       ?GetTexDataAsRGBA32@ImFontAtlas@@QEAAXPEAPEAEPEAH11@Z 00000001401a67e0 f   yourgame:imgui_draw.obj
 0001:001a5af0       ?AddFont@ImFontAtlas@@QEAAPEAUImFont@@PEBUImFontConfig@@@Z 00000001401a6af0 f   yourgame:imgui_draw.obj
 0001:001a5d90       ??0ImFont@@QEAA@XZ         00000001401a6d90 f   yourgame:imgui_draw.obj
 0001:001a5de0       ?GetGlyphRangesDefault@ImFontAtlas@@QEAAPEBGXZ 00000001401a6de0 f   yourgame:imgui_draw.obj
 0001:001a5e00       ?AddFontFromMemoryCompressedBase85TTF@ImFontAtlas@@QEAAPEAUImFont@@PEBDMPEBUImFontConfig@@PEBG@Z 00000001401a6e00 f   yourgame:imgui_draw.obj
 0001:001a5f60       ?AddFontFromFileTTF@ImFontAtlas@@QEAAPEAUImFont@@PEBDMPEBUImFontConfig@@PEBG@Z 00000001401a6f60 f   yourgame:imgui_draw.obj
 0001:001a6190       ?AddFontFromMemoryTTF@ImFontAtlas@@QEAAPEAUImFont@@PEAXHMPEBUImFontConfig@@PEBG@Z 00000001401a7190 f   yourgame:imgui_draw.obj
 0001:001a62c0       ?AddFontFromMemoryCompressedTTF@ImFontAtlas@@QEAAPEAUImFont@@PEBXHMPEBUImFontConfig@@PEBG@Z 00000001401a72c0 f   yourgame:imgui_draw.obj
 0001:001a72f0       ?AddCustomRectRegular@ImFontAtlas@@QEAAHHH@Z 00000001401a82f0 f   yourgame:imgui_draw.obj
 0001:001a73d0       ?AddCustomRectFontGlyph@ImFontAtlas@@QEAAHPEAUImFont@@GHHMAEBUImVec2@@@Z 00000001401a83d0 f   yourgame:imgui_draw.obj
 0001:001a74f0       ?CalcCustomRectUV@ImFontAtlas@@QEBAXPEBUImFontAtlasCustomRect@@PEAUImVec2@@1@Z 00000001401a84f0 f   yourgame:imgui_draw.obj
 0001:001a7540       ?GetMouseCursorTexData@ImFontAtlas@@QEAA_NHPEAUImVec2@@0QEAU2@1@Z 00000001401a8540 f   yourgame:imgui_draw.obj
 0001:001a7620       ?ImFontAtlasGetBuilderForStbTruetype@@YAPEBUImFontBuilderIO@@XZ 00000001401a8620 f   yourgame:imgui_draw.obj
 0001:001a7650       ?ImFontAtlasBuildMultiplyCalcLookupTable@@YAXQEAEM@Z 00000001401a8650 f   yourgame:imgui_draw.obj
 0001:001a79b0       ?ImFontAtlasBuildMultiplyRectAlpha8@@YAXQEBEPEAEHHHHH@Z 00000001401a89b0 f   yourgame:imgui_draw.obj
 0001:001ad280       ?ImFontAtlasBuildSetupFont@@YAXPEAUImFontAtlas@@PEAUImFont@@PEAUImFontConfig@@MM@Z 00000001401ae280 f   yourgame:imgui_draw.obj
 0001:001ad370       ?ClearOutputData@ImFont@@QEAAXXZ 00000001401ae370 f   yourgame:imgui_draw.obj
 0001:001ad410       ?ImFontAtlasBuildPackCustomRects@@YAXPEAUImFontAtlas@@PEAX@Z 00000001401ae410 f   yourgame:imgui_draw.obj
 0001:001adc00       ?ImFontAtlasBuildRender8bppRectFromString@@YAXPEAUImFontAtlas@@HHHHPEBDDE@Z 00000001401aec00 f   yourgame:imgui_draw.obj
 0001:001ade40       ?ImFontAtlasBuildRender32bppRectFromString@@YAXPEAUImFontAtlas@@HHHHPEBDDI@Z 00000001401aee40 f   yourgame:imgui_draw.obj
 0001:001ae050       ?ImFontAtlasBuildInit@@YAXPEAUImFontAtlas@@@Z 00000001401af050 f   yourgame:imgui_draw.obj
 0001:001ae2b0       ?ImFontAtlasBuildFinish@@YAXPEAUImFontAtlas@@@Z 00000001401af2b0 f   yourgame:imgui_draw.obj
 0001:001af2d0       ?AddGlyph@ImFont@@QEAAXPEBUImFontConfig@@GMMMMMMMMM@Z 00000001401b02d0 f   yourgame:imgui_draw.obj
 0001:001af590       ?BuildLookupTable@ImFont@@QEAAXXZ 00000001401b0590 f   yourgame:imgui_draw.obj
 0001:001afac0       ?FindGlyphNoFallback@ImFont@@QEBAPEBUImFontGlyph@@G@Z 00000001401b0ac0 f   yourgame:imgui_draw.obj
 0001:001afb00       ?GetGlyphRangesKorean@ImFontAtlas@@QEAAPEBGXZ 00000001401b0b00 f   yourgame:imgui_draw.obj
 0001:001afb20       ?GetGlyphRangesChineseFull@ImFontAtlas@@QEAAPEBGXZ 00000001401b0b20 f   yourgame:imgui_draw.obj
 0001:001afb40       ?GetGlyphRangesChineseSimplifiedCommon@ImFontAtlas@@QEAAPEBGXZ 00000001401b0b40 f   yourgame:imgui_draw.obj
 0001:001afbe0       ?GetGlyphRangesJapanese@ImFontAtlas@@QEAAPEBGXZ 00000001401b0be0 f   yourgame:imgui_draw.obj
 0001:001afc80       ?GetGlyphRangesCyrillic@ImFontAtlas@@QEAAPEBGXZ 00000001401b0c80 f   yourgame:imgui_draw.obj
 0001:001afca0       ?GetGlyphRangesThai@ImFontAtlas@@QEAAPEBGXZ 00000001401b0ca0 f   yourgame:imgui_draw.obj
 0001:001afcc0       ?GetGlyphRangesVietnamese@ImFontAtlas@@QEAAPEBGXZ 00000001401b0cc0 f   yourgame:imgui_draw.obj
 0001:001afce0       ?AddText@ImFontGlyphRangesBuilder@@QEAAXPEBD0@Z 00000001401b0ce0 f   yourgame:imgui_draw.obj
 0001:001afdb0       ?AddRanges@ImFontGlyphRangesBuilder@@QEAAXPEBG@Z 00000001401b0db0 f   yourgame:imgui_draw.obj
 0001:001afe10       ?BuildRanges@ImFontGlyphRangesBuilder@@QEAAXPEAU?$ImVector@G@@@Z 00000001401b0e10 f   yourgame:imgui_draw.obj
 0001:001b0060       ??1ImFont@@QEAA@XZ         00000001401b1060 f   yourgame:imgui_draw.obj
 0001:001b0120       ?GrowIndex@ImFont@@QEAAXH@Z 00000001401b1120 f   yourgame:imgui_draw.obj
 0001:001b0350       ?FindGlyph@ImFont@@QEBAPEBUImFontGlyph@@G@Z 00000001401b1350 f   yourgame:imgui_draw.obj
 0001:001b0390       ?SetGlyphVisible@ImFont@@QEAAXG_N@Z 00000001401b1390 f   yourgame:imgui_draw.obj
 0001:001b03f0       ?IsGlyphRangeUnused@ImFont@@QEAA_NII@Z 00000001401b13f0 f   yourgame:imgui_draw.obj
 0001:001b0450       ?SetFallbackChar@ImFont@@QEAAXG@Z 00000001401b1450 f   yourgame:imgui_draw.obj
 0001:001b0480       ?AddRemapChar@ImFont@@QEAAXGG_N@Z 00000001401b1480 f   yourgame:imgui_draw.obj
 0001:001b0540       ?CalcWordWrapPositionA@ImFont@@QEBAPEBDMPEBD0M@Z 00000001401b1540 f   yourgame:imgui_draw.obj
 0001:001b0780       ?CalcTextSizeA@ImFont@@QEBA?AUImVec2@@MMMPEBD0PEAPEBD@Z 00000001401b1780 f   yourgame:imgui_draw.obj
 0001:001b0a90       ?RenderChar@ImFont@@QEBAXPEAUImDrawList@@MUImVec2@@IG@Z 00000001401b1a90 f   yourgame:imgui_draw.obj
 0001:001b0c60       ?RenderArrow@ImGui@@YAXPEAUImDrawList@@UImVec2@@IHM@Z 00000001401b1c60 f   yourgame:imgui_draw.obj
 0001:001b0de0       ?RenderBullet@ImGui@@YAXPEAUImDrawList@@UImVec2@@I@Z 00000001401b1de0 f   yourgame:imgui_draw.obj
 0001:001b0ea0       ?RenderCheckMark@ImGui@@YAXPEAUImDrawList@@UImVec2@@IM@Z 00000001401b1ea0 f   yourgame:imgui_draw.obj
 0001:001b11f0       ?RenderMouseCursor@ImGui@@YAXPEAUImDrawList@@UImVec2@@MHIII@Z 00000001401b21f0 f   yourgame:imgui_draw.obj
 0001:001b15b0       ?RenderArrowPointingAt@ImGui@@YAXPEAUImDrawList@@UImVec2@@1HI@Z 00000001401b25b0 f   yourgame:imgui_draw.obj
 0001:001b1760       ?RenderRectFilledRangeH@ImGui@@YAXPEAUImDrawList@@AEBUImRect@@IMMM@Z 00000001401b2760 f   yourgame:imgui_draw.obj
 0001:001b1fb0       ?RenderRectFilledWithHole@ImGui@@YAXPEAUImDrawList@@UImRect@@1IM@Z 00000001401b2fb0 f   yourgame:imgui_draw.obj
 0001:001b2400       ?RenderColorRectWithAlphaCheckerboard@ImGui@@YAXPEAUImDrawList@@UImVec2@@1IM1MH@Z 00000001401b3400 f   yourgame:imgui_draw.obj
 0001:001b6550       ?ImGui_ImplGlfw_MouseButtonCallback@@YAXPEAUGLFWwindow@@HHH@Z 00000001401b7550 f   yourgame:imgui_impl_glfw.obj
 0001:001b65a0       ?ImGui_ImplGlfw_ScrollCallback@@YAXPEAUGLFWwindow@@NN@Z 00000001401b75a0 f   yourgame:imgui_impl_glfw.obj
 0001:001b6610       ?ImGui_ImplGlfw_KeyCallback@@YAXPEAUGLFWwindow@@HHHH@Z 00000001401b7610 f   yourgame:imgui_impl_glfw.obj
 0001:001b66d0       ?ImGui_ImplGlfw_CharCallback@@YAXPEAUGLFWwindow@@I@Z 00000001401b76d0 f   yourgame:imgui_impl_glfw.obj
 0001:001b6720       ?ImGui_ImplGlfw_InitForOpenGL@@YA_NPEAUGLFWwindow@@_N@Z 00000001401b7720 f   yourgame:imgui_impl_glfw.obj
 0001:001b69d0       ?ImGui_ImplGlfw_InitForVulkan@@YA_NPEAUGLFWwindow@@_N@Z 00000001401b79d0 f   yourgame:imgui_impl_glfw.obj
 0001:001b6a00       ?ImGui_ImplGlfw_InitForOther@@YA_NPEAUGLFWwindow@@_N@Z 00000001401b7a00 f   yourgame:imgui_impl_glfw.obj
 0001:001b6a30       ?ImGui_ImplGlfw_Shutdown@@YAXXZ 00000001401b7a30 f   yourgame:imgui_impl_glfw.obj
 0001:001b6b70       ?ImGui_ImplGlfw_NewFrame@@YAXXZ 00000001401b7b70 f   yourgame:imgui_impl_glfw.obj
 0001:001b71a0       ?ImGui_ImplOpenGL3_Init@@YA_NPEBD@Z 00000001401b81a0 f   yourgame:imgui_impl_opengl3.obj
 0001:001b72f0       ?ImGui_ImplOpenGL3_Shutdown@@YAXXZ 00000001401b82f0 f   yourgame:imgui_impl_opengl3.obj
 0001:001b7310       ?ImGui_ImplOpenGL3_DestroyDeviceObjects@@YAXXZ 00000001401b8310 f   yourgame:imgui_impl_opengl3.obj
 0001:001b7450       ?ImGui_ImplOpenGL3_NewFrame@@YAXXZ 00000001401b8450 f   yourgame:imgui_impl_opengl3.obj
 0001:001b7480       ?ImGui_ImplOpenGL3_CreateDeviceObjects@@YA_NXZ 00000001401b8480 f   yourgame:imgui_impl_opengl3.obj
 0001:001b79d0       ?ImGui_ImplOpenGL3_RenderDrawData@@YAXPEAUImDrawData@@@Z 00000001401b89d0 f   yourgame:imgui_impl_opengl3.obj
 0001:001b8310       ?ImGui_ImplOpenGL3_CreateFontsTexture@@YA_NXZ 00000001401b9310 f   yourgame:imgui_impl_opengl3.obj
 0001:001b8480       ?ImGui_ImplOpenGL3_DestroyFontsTexture@@YAXXZ 00000001401b9480 f   yourgame:imgui_impl_opengl3.obj
 0001:001b8620       fprintf                    00000001401b9620 f   yourgame:imgui_impl_opengl3.obj
 0001:001b86b0       ?TableFindByID@ImGui@@YAPEAUImGuiTable@@I@Z 00000001401b96b0 f   yourgame:imgui_tables.obj
 0001:001b8710       ?BeginTable@ImGui@@YA_NPEBDHHAEBUImVec2@@M@Z 00000001401b9710 f   yourgame:imgui_tables.obj
 0001:001b8780       ?BeginTableEx@ImGui@@YA_NPEBDIHHAEBUImVec2@@M@Z 00000001401b9780 f   yourgame:imgui_tables.obj
 0001:001b9480       ?TableBeginInitMemory@ImGui@@YAXPEAUImGuiTable@@H@Z 00000001401ba480 f   yourgame:imgui_tables.obj
 0001:001b9530       ?TableResetSettings@ImGui@@YAXPEAUImGuiTable@@@Z 00000001401ba530 f   yourgame:imgui_tables.obj
 0001:001b9560       ?TableLoadSettings@ImGui@@YAXPEAUImGuiTable@@@Z 00000001401ba560 f   yourgame:imgui_tables.obj
 0001:001b97c0       ?TableBeginApplyRequests@ImGui@@YAXPEAUImGuiTable@@@Z 00000001401ba7c0 f   yourgame:imgui_tables.obj
 0001:001b99b0       ?TableSetColumnWidth@ImGui@@YAXHM@Z 00000001401ba9b0 f   yourgame:imgui_tables.obj
 0001:001b9c80       ?TableUpdateLayout@ImGui@@YAXPEAUImGuiTable@@@Z 00000001401bac80 f   yourgame:imgui_tables.obj
 0001:001baef0       ?TableGetColumnWidthAuto@ImGui@@YAMPEAUImGuiTable@@PEAUImGuiTableColumn@@@Z 00000001401bbef0 f   yourgame:imgui_tables.obj
 0001:001baf90       ?TableGetMaxColumnWidth@ImGui@@YAMPEBUImGuiTable@@H@Z 00000001401bbf90 f   yourgame:imgui_tables.obj
 0001:001bb090       ?TableSetupDrawChannels@ImGui@@YAXPEAUImGuiTable@@@Z 00000001401bc090 f   yourgame:imgui_tables.obj
 0001:001bb230       ?TableUpdateBorders@ImGui@@YAXPEAUImGuiTable@@@Z 00000001401bc230 f   yourgame:imgui_tables.obj
 0001:001bb560       ?TableDrawContextMenu@ImGui@@YAXPEAUImGuiTable@@@Z 00000001401bc560 f   yourgame:imgui_tables.obj
 0001:001bb810       ?TableSortSpecsBuild@ImGui@@YAXPEAUImGuiTable@@@Z 00000001401bc810 f   yourgame:imgui_tables.obj
 0001:001bb9b0       ?TableGetColumnResizeID@ImGui@@YAIPEBUImGuiTable@@HH@Z 00000001401bc9b0 f   yourgame:imgui_tables.obj
 0001:001bb9d0       ?TableSetColumnWidthAutoSingle@ImGui@@YAXPEAUImGuiTable@@H@Z 00000001401bc9d0 f   yourgame:imgui_tables.obj
 0001:001bba00       ?EndTable@ImGui@@YAXXZ     00000001401bca00 f   yourgame:imgui_tables.obj
 0001:001bc2a0       ?TableEndRow@ImGui@@YAXPEAUImGuiTable@@@Z 00000001401bd2a0 f   yourgame:imgui_tables.obj
 0001:001bca20       ?TableOpenContextMenu@ImGui@@YAXH@Z 00000001401bda20 f   yourgame:imgui_tables.obj
 0001:001bcab0       ?TableDrawBorders@ImGui@@YAXPEAUImGuiTable@@@Z 00000001401bdab0 f   yourgame:imgui_tables.obj
 0001:001bcfc0       ?TableMergeDrawChannels@ImGui@@YAXPEAUImGuiTable@@@Z 00000001401bdfc0 f   yourgame:imgui_tables.obj
 0001:001bd730       ?TableSaveSettings@ImGui@@YAXPEAUImGuiTable@@@Z 00000001401be730 f   yourgame:imgui_tables.obj
 0001:001bd8f0       ?TableSetupColumn@ImGui@@YAXPEBDHMI@Z 00000001401be8f0 f   yourgame:imgui_tables.obj
 0001:001bdac0       ?TableSetupScrollFreeze@ImGui@@YAXHH@Z 00000001401beac0 f   yourgame:imgui_tables.obj
 0001:001bdb50       ?TableGetColumnCount@ImGui@@YAHXZ 00000001401beb50 f   yourgame:imgui_tables.obj
 0001:001bdb80       ?TableGetColumnName@ImGui@@YAPEBDH@Z 00000001401beb80 f   yourgame:imgui_tables.obj
 0001:001bdc00       ?TableGetColumnName@ImGui@@YAPEBDPEBUImGuiTable@@H@Z 00000001401bec00 f   yourgame:imgui_tables.obj
 0001:001bdc50       ?TableSetColumnEnabled@ImGui@@YAXH_N@Z 00000001401bec50 f   yourgame:imgui_tables.obj
 0001:001bdc90       ?TableGetColumnFlags@ImGui@@YAHH@Z 00000001401bec90 f   yourgame:imgui_tables.obj
 0001:001bdcf0       ?TableGetCellBgRect@ImGui@@YA?AUImRect@@PEBUImGuiTable@@H@Z 00000001401becf0 f   yourgame:imgui_tables.obj
 0001:001bdd60       ?TableGetHoveredColumn@ImGui@@YAHXZ 00000001401bed60 f   yourgame:imgui_tables.obj
 0001:001bdda0       ?TableSetBgColor@ImGui@@YAXHIH@Z 00000001401beda0 f   yourgame:imgui_tables.obj
 0001:001bde60       ?TableGetRowIndex@ImGui@@YAHXZ 00000001401bee60 f   yourgame:imgui_tables.obj
 0001:001bde90       ?TableNextRow@ImGui@@YAXHM@Z 00000001401bee90 f   yourgame:imgui_tables.obj
 0001:001be060       ?TableBeginRow@ImGui@@YAXPEAUImGuiTable@@@Z 00000001401bf060 f   yourgame:imgui_tables.obj
 0001:001be180       ?TableEndCell@ImGui@@YAXPEAUImGuiTable@@@Z 00000001401bf180 f   yourgame:imgui_tables.obj
 0001:001be260       ?SetWindowClipRectBeforeSetChannel@ImGui@@YAXPEAUImGuiWindow@@AEBUImRect@@@Z 00000001401bf260 f   yourgame:imgui_tables.obj
 0001:001be2a0       ?TableGetColumnIndex@ImGui@@YAHXZ 00000001401bf2a0 f   yourgame:imgui_tables.obj
 0001:001be2d0       ?TableSetColumnIndex@ImGui@@YA_NH@Z 00000001401bf2d0 f   yourgame:imgui_tables.obj
 0001:001be410       ?TableBeginCell@ImGui@@YAXPEAUImGuiTable@@H@Z 00000001401bf410 f   yourgame:imgui_tables.obj
 0001:001be600       ?TableNextColumn@ImGui@@YA_NXZ 00000001401bf600 f   yourgame:imgui_tables.obj
 0001:001be760       ?TableUpdateColumnsWeightFromWidth@ImGui@@YAXPEAUImGuiTable@@@Z 00000001401bf760 f   yourgame:imgui_tables.obj
 0001:001be820       ?TableSetColumnWidthAutoAll@ImGui@@YAXPEAUImGuiTable@@@Z 00000001401bf820 f   yourgame:imgui_tables.obj
 0001:001be880       ?TablePushBackgroundChannel@ImGui@@YAXXZ 00000001401bf880 f   yourgame:imgui_tables.obj
 0001:001be920       ?TablePopBackgroundChannel@ImGui@@YAXXZ 00000001401bf920 f   yourgame:imgui_tables.obj
 0001:001be9c0       ?TableGetSortSpecs@ImGui@@YAPEAUImGuiTableSortSpecs@@XZ 00000001401bf9c0 f   yourgame:imgui_tables.obj
 0001:001bea40       ?TableFixColumnSortDirection@ImGui@@YAXPEAUImGuiTable@@PEAUImGuiTableColumn@@@Z 00000001401bfa40 f   yourgame:imgui_tables.obj
 0001:001bea90       ?TableGetColumnNextSortDirection@ImGui@@YAHPEAUImGuiTableColumn@@@Z 00000001401bfa90 f   yourgame:imgui_tables.obj
 0001:001beb10       ?TableSetColumnSortDirection@ImGui@@YAXHH_N@Z 00000001401bfb10 f   yourgame:imgui_tables.obj
 0001:001bf100       ?TableSortSpecsSanitize@ImGui@@YAXPEAUImGuiTable@@@Z 00000001401c0100 f   yourgame:imgui_tables.obj
 0001:001bf320       ?TableGetHeaderRowHeight@ImGui@@YAMXZ 00000001401c0320 f   yourgame:imgui_tables.obj
 0001:001bf4e0       ?TableHeadersRow@ImGui@@YAXXZ 00000001401c04e0 f   yourgame:imgui_tables.obj
 0001:001bf750       ?TableHeader@ImGui@@YAXPEBD@Z 00000001401c0750 f   yourgame:imgui_tables.obj
 0001:001c0140       ?TableSettingsCreate@ImGui@@YAPEAUImGuiTableSettings@@IH@Z 00000001401c1140 f   yourgame:imgui_tables.obj
 0001:001c02f0       ?TableSettingsFindByID@ImGui@@YAPEAUImGuiTableSettings@@I@Z 00000001401c12f0 f   yourgame:imgui_tables.obj
 0001:001c0360       ?TableGetBoundSettings@ImGui@@YAPEAUImGuiTableSettings@@PEAUImGuiTable@@@Z 00000001401c1360 f   yourgame:imgui_tables.obj
 0001:001c03b0       ?TableSettingsInstallHandler@ImGui@@YAXPEAUImGuiContext@@@Z 00000001401c13b0 f   yourgame:imgui_tables.obj
 0001:001c0df0       ?TableRemove@ImGui@@YAXPEAUImGuiTable@@@Z 00000001401c1df0 f   yourgame:imgui_tables.obj
 0001:001c0e60       ?TableGcCompactTransientBuffers@ImGui@@YAXPEAUImGuiTable@@@Z 00000001401c1e60 f   yourgame:imgui_tables.obj
 0001:001c0f60       ?TableGcCompactSettings@ImGui@@YAXXZ 00000001401c1f60 f   yourgame:imgui_tables.obj
 0001:001c1170       ?DebugNodeTable@ImGui@@YAXPEAUImGuiTable@@@Z 00000001401c2170 f   yourgame:imgui_tables.obj
 0001:001c1c30       ?DebugNodeTableSettings@ImGui@@YAXPEAUImGuiTableSettings@@@Z 00000001401c2c30 f   yourgame:imgui_tables.obj
 0001:001c1db0       ?GetColumnIndex@ImGui@@YAHXZ 00000001401c2db0 f   yourgame:imgui_tables.obj
 0001:001c1df0       ?GetColumnsCount@ImGui@@YAHXZ 00000001401c2df0 f   yourgame:imgui_tables.obj
 0001:001c1e30       ?GetColumnOffsetFromNorm@ImGui@@YAMPEBUImGuiOldColumns@@M@Z 00000001401c2e30 f   yourgame:imgui_tables.obj
 0001:001c1e50       ?GetColumnNormFromOffset@ImGui@@YAMPEBUImGuiOldColumns@@M@Z 00000001401c2e50 f   yourgame:imgui_tables.obj
 0001:001c1e70       ?GetColumnOffset@ImGui@@YAMH@Z 00000001401c2e70 f   yourgame:imgui_tables.obj
 0001:001c1ee0       ?GetColumnWidth@ImGui@@YAMH@Z 00000001401c2ee0 f   yourgame:imgui_tables.obj
 0001:001c1fb0       ?SetColumnOffset@ImGui@@YAXHM@Z 00000001401c2fb0 f   yourgame:imgui_tables.obj
 0001:001c2100       ?SetColumnWidth@ImGui@@YAXHM@Z 00000001401c3100 f   yourgame:imgui_tables.obj
 0001:001c2190       ?PushColumnClipRect@ImGui@@YAXH@Z 00000001401c3190 f   yourgame:imgui_tables.obj
 0001:001c2200       ?PushColumnsBackground@ImGui@@YAXXZ 00000001401c3200 f   yourgame:imgui_tables.obj
 0001:001c2290       ?PopColumnsBackground@ImGui@@YAXXZ 00000001401c3290 f   yourgame:imgui_tables.obj
 0001:001c2320       ?FindOrCreateColumns@ImGui@@YAPEAUImGuiOldColumns@@PEAUImGuiWindow@@I@Z 00000001401c3320 f   yourgame:imgui_tables.obj
 0001:001c2540       ?GetColumnsID@ImGui@@YAIPEBDH@Z 00000001401c3540 f   yourgame:imgui_tables.obj
 0001:001c25d0       ?BeginColumns@ImGui@@YAXPEBDHH@Z 00000001401c35d0 f   yourgame:imgui_tables.obj
 0001:001c2cb0       ?NextColumn@ImGui@@YAXXZ   00000001401c3cb0 f   yourgame:imgui_tables.obj
 0001:001c2f80       ?EndColumns@ImGui@@YAXXZ   00000001401c3f80 f   yourgame:imgui_tables.obj
 0001:001c34f0       ?Columns@ImGui@@YAXHPEBD_N@Z 00000001401c44f0 f   yourgame:imgui_tables.obj
 0001:001c3580       ?Add@?$ImPool@UImGuiTable@@@@QEAAPEAUImGuiTable@@XZ 00000001401c4580 f   yourgame:imgui_tables.obj
 0001:001c3690       ?Remove@?$ImPool@UImGuiTable@@@@QEAAXIH@Z 00000001401c4690 f   yourgame:imgui_tables.obj
 0001:001c3750       ??0CreateFunc@btConvexConvexAlgorithm@@QEAA@PEAVbtConvexPenetrationDepthSolver@@@Z 00000001401c4750 f   BulletCollision:btConvexConvexAlgorithm.obj
 0001:001c3790       ??1CreateFunc@btConvexConvexAlgorithm@@UEAA@XZ 00000001401c4790 f   BulletCollision:btConvexConvexAlgorithm.obj
 0001:001c37b0       ??0btConvexConvexAlgorithm@@QEAA@PEAVbtPersistentManifold@@AEBUbtCollisionAlgorithmConstructionInfo@@PEBUbtCollisionObjectWrapper@@2PEAVbtConvexPenetrationDepthSolver@@HH@Z 00000001401c47b0 f   BulletCollision:btConvexConvexAlgorithm.obj
 0001:001c3850       ??1btConvexConvexAlgorithm@@UEAA@XZ 00000001401c4850 f   BulletCollision:btConvexConvexAlgorithm.obj
 0001:001c3900       ?setLowLevelOfDetail@btConvexConvexAlgorithm@@QEAAX_N@Z 00000001401c4900 f   BulletCollision:btConvexConvexAlgorithm.obj
 0001:001c3910       ?processCollision@btConvexConvexAlgorithm@@UEAAXPEBUbtCollisionObjectWrapper@@0AEBUbtDispatcherInfo@@PEAVbtManifoldResult@@@Z 00000001401c4910 f   BulletCollision:btConvexConvexAlgorithm.obj
 0001:001c7550       ?calculateTimeOfImpact@btConvexConvexAlgorithm@@UEAAMPEAVbtCollisionObject@@0AEBUbtDispatcherInfo@@PEAVbtManifoldResult@@@Z 00000001401c8550 f   BulletCollision:btConvexConvexAlgorithm.obj
 0001:001c7a90       ??_GCreateFunc@btConvexConvexAlgorithm@@UEAAPEAXI@Z 00000001401c8a90 f   BulletCollision:btConvexConvexAlgorithm.obj
 0001:001c7ad0       ?CreateCollisionAlgorithm@CreateFunc@btConvexConvexAlgorithm@@UEAAPEAVbtCollisionAlgorithm@@AEAUbtCollisionAlgorithmConstructionInfo@@PEBUbtCollisionObjectWrapper@@1@Z 00000001401c8ad0 f   BulletCollision:btConvexConvexAlgorithm.obj
 0001:001c7b90       ??_GbtConvexConvexAlgorithm@@UEAAPEAXI@Z 00000001401c8b90 f   BulletCollision:btConvexConvexAlgorithm.obj
 0001:001c7bd0       ?getAllContactManifolds@btConvexConvexAlgorithm@@UEAAXAEAV?$btAlignedObjectArray@PEAVbtPersistentManifold@@@@@Z 00000001401c8bd0 f   BulletCollision:btConvexConvexAlgorithm.obj
 0001:001c7e40       ??_GbtPerturbedContactResult@@UEAAPEAXI@Z 00000001401c8e40 f   BulletCollision:btConvexConvexAlgorithm.obj
 0001:001c7e80       ?addContactPoint@btPerturbedContactResult@@UEAAXAEBVbtVector3@@0M@Z 00000001401c8e80 f   BulletCollision:btConvexConvexAlgorithm.obj
 0001:001c8660       ??_GbtDiscreteCollisionDetectorInterface@@UEAAPEAXI@Z 00000001401c9660 f   BulletCollision:btConvexConvexAlgorithm.obj
 0001:001c8670       ?DebugDraw@CastResult@btConvexCast@@UEAAXM@Z 00000001401c9670 f   BulletCollision:btConvexConvexAlgorithm.obj
 0001:001c8680       ?drawCoordSystem@CastResult@btConvexCast@@UEAAXAEBVbtTransform@@@Z 00000001401c9680 f   BulletCollision:btConvexConvexAlgorithm.obj
 0001:001c8690       ?reportFailure@CastResult@btConvexCast@@UEAAXHH@Z 00000001401c9690 f   BulletCollision:btConvexConvexAlgorithm.obj
 0001:001c86a0       ??_GCastResult@btConvexCast@@UEAAPEAXI@Z 00000001401c96a0 f   BulletCollision:btConvexConvexAlgorithm.obj
 0001:001c86e0       ??0?$btAlignedObjectArray@H@@QEAA@AEBV0@@Z 00000001401c96e0 f   BulletCollision:btConvexConvexAlgorithm.obj
 0001:001c8920       ??0btConvexConcaveCollisionAlgorithm@@QEAA@AEBUbtCollisionAlgorithmConstructionInfo@@PEBUbtCollisionObjectWrapper@@1_N@Z 00000001401c9920 f   BulletCollision:btConvexConcaveCollisionAlgorithm.obj
 0001:001c89d0       ??0btConvexTriangleCallback@@QEAA@PEAVbtDispatcher@@PEBUbtCollisionObjectWrapper@@1_N@Z 00000001401c99d0 f   BulletCollision:btConvexConcaveCollisionAlgorithm.obj
 0001:001c8a50       ??1btConvexConcaveCollisionAlgorithm@@UEAA@XZ 00000001401c9a50 f   BulletCollision:btConvexConcaveCollisionAlgorithm.obj
 0001:001c8ad0       ??1btConvexTriangleCallback@@UEAA@XZ 00000001401c9ad0 f   BulletCollision:btConvexConcaveCollisionAlgorithm.obj
 0001:001c8b30       ?getAllContactManifolds@btConvexConcaveCollisionAlgorithm@@UEAAXAEAV?$btAlignedObjectArray@PEAVbtPersistentManifold@@@@@Z 00000001401c9b30 f   BulletCollision:btConvexConcaveCollisionAlgorithm.obj
 0001:001c8c80       ?clearCache@btConvexTriangleCallback@@QEAAXXZ 00000001401c9c80 f   BulletCollision:btConvexConcaveCollisionAlgorithm.obj
 0001:001c8cb0       ?processTriangle@btConvexTriangleCallback@@UEAAXPEAVbtVector3@@HH@Z 00000001401c9cb0 f   BulletCollision:btConvexConcaveCollisionAlgorithm.obj
 0001:001c8ff0       ?setTimeStepAndCounters@btConvexTriangleCallback@@QEAAXMAEBUbtDispatcherInfo@@PEBUbtCollisionObjectWrapper@@1PEAVbtManifoldResult@@@Z 00000001401c9ff0 f   BulletCollision:btConvexConcaveCollisionAlgorithm.obj
 0001:001c9360       ?clearCache@btConvexConcaveCollisionAlgorithm@@QEAAXXZ 00000001401ca360 f   BulletCollision:btConvexConcaveCollisionAlgorithm.obj
 0001:001c9390       ?processCollision@btConvexConcaveCollisionAlgorithm@@UEAAXPEBUbtCollisionObjectWrapper@@0AEBUbtDispatcherInfo@@PEAVbtManifoldResult@@@Z 00000001401ca390 f   BulletCollision:btConvexConcaveCollisionAlgorithm.obj
 0001:001c9c00       ?calculateTimeOfImpact@btConvexConcaveCollisionAlgorithm@@UEAAMPEAVbtCollisionObject@@0AEBUbtDispatcherInfo@@PEAVbtManifoldResult@@@Z 00000001401cac00 f   BulletCollision:btConvexConcaveCollisionAlgorithm.obj
